	.text
	.file	"ft/A/ft.A.bc"
	.file	1 "/home/norouzi/Desktop/software/benchmarks/NAS/NPB3.3-SER-C/FT/../common/type.h"
	.file	2 "/home/norouzi/Desktop/software/benchmarks/NAS/NPB3.3-SER-C/FT/appft.c"
	.file	3 "/home/norouzi/Desktop/software/benchmarks/NAS/NPB3.3-SER-C/FT/fft3d.c"
	.file	4 "/home/norouzi/Desktop/software/benchmarks/NAS/NPB3.3-SER-C/FT/mainft.c"
	.file	5 "/home/norouzi/Desktop/software/benchmarks/NAS/NPB3.3-SER-C/common/../common/type.h"
	.file	6 "/home/norouzi/Desktop/software/benchmarks/NAS/NPB3.3-SER-C/common/c_timers.c"
	.file	7 "/home/norouzi/Desktop/software/benchmarks/NAS/NPB3.3-SER-C/common/../common/wtime.c"
	.section	.rodata.cst8,"aM",@progbits,8
	.p2align	3
.LCPI0_0:
	.quad	-4682421225964825446    # double -3.947841760435743E-5
	.text
	.globl	appft
	.p2align	4, 0x90
	.type	appft,@function
appft:                                  # @appft
.Lfunc_begin0:
	.loc	2 54 0                  # appft.c:54:0
	.cfi_startproc
# BB#0:                                 # %entry
	pushq	%rbp
.Ltmp0:
	.cfi_def_cfa_offset 16
	pushq	%r15
.Ltmp1:
	.cfi_def_cfa_offset 24
	pushq	%r14
.Ltmp2:
	.cfi_def_cfa_offset 32
	pushq	%r13
.Ltmp3:
	.cfi_def_cfa_offset 40
	pushq	%r12
.Ltmp4:
	.cfi_def_cfa_offset 48
	pushq	%rbx
.Ltmp5:
	.cfi_def_cfa_offset 56
	subq	$10312, %rsp            # imm = 0x2848
.Ltmp6:
	.cfi_def_cfa_offset 10368
.Ltmp7:
	.cfi_offset %rbx, -56
.Ltmp8:
	.cfi_offset %r12, -48
.Ltmp9:
	.cfi_offset %r13, -40
.Ltmp10:
	.cfi_offset %r14, -32
.Ltmp11:
	.cfi_offset %r15, -24
.Ltmp12:
	.cfi_offset %rbp, -16
	#DEBUG_VALUE: appft:niter <- %EDI
	#DEBUG_VALUE: appft:total_time <- %RSI
	#DEBUG_VALUE: appft:verified <- %RDX
	movq	%rdx, 32(%rsp)          # 8-byte Spill
.Ltmp13:
	#DEBUG_VALUE: appft:verified <- [%RSP+32]
	movq	%rsi, 40(%rsp)          # 8-byte Spill
.Ltmp14:
	#DEBUG_VALUE: appft:total_time <- [%RSP+40]
	movl	%edi, 28(%rsp)          # 4-byte Spill
.Ltmp15:
	#DEBUG_VALUE: appft:i <- 1
	#DEBUG_VALUE: appft:niter <- [%RSP+28]
	.loc	2 61 5 prologue_end     # appft.c:61:5
	movl	$1, %edi
	callq	timer_clear
.Ltmp16:
	#DEBUG_VALUE: appft:i <- 2
	movl	$2, %edi
	callq	timer_clear
	movl	$3, %edi
	callq	timer_clear
	movl	$4, %edi
	callq	timer_clear
	movl	$5, %edi
	callq	timer_clear
	movl	$6, %edi
	callq	timer_clear
	movl	$7, %edi
	callq	timer_clear
	movl	$8, %edi
	callq	timer_clear
	movl	$9, %edi
	callq	timer_clear
	movl	$10, %edi
	callq	timer_clear
	movl	$11, %edi
	callq	timer_clear
	movl	$12, %edi
	callq	timer_clear
	movl	$13, %edi
	callq	timer_clear
	movl	$14, %edi
	callq	timer_clear
	movl	$15, %edi
	callq	timer_clear
.Ltmp17:
	.loc	2 64 3                  # appft.c:64:3
	movl	$2, %edi
	callq	timer_start
	.loc	2 65 3                  # appft.c:65:3
	movl	$256, %edi              # imm = 0x100
	movl	$256, %esi              # imm = 0x100
	movl	$128, %edx
	movl	$xnt, %ecx
	callq	compute_initial_conditions
	leaq	6208(%rsp), %r14
.Ltmp18:
	#DEBUG_VALUE: appft:exp1 <- [%R14+0]
	.loc	2 67 3                  # appft.c:67:3
	movl	$256, %edi              # imm = 0x100
	movq	%r14, %rsi
	callq	CompExp
	leaq	2112(%rsp), %rbp
.Ltmp19:
	#DEBUG_VALUE: appft:exp2 <- [%RBP+0]
	.loc	2 68 3                  # appft.c:68:3
	movl	$256, %edi              # imm = 0x100
	movq	%rbp, %rsi
	callq	CompExp
	leaq	64(%rsp), %rbx
.Ltmp20:
	#DEBUG_VALUE: appft:exp3 <- [%RBX+0]
	.loc	2 69 3                  # appft.c:69:3
	movl	$128, %edi
	movq	%rbx, %rsi
	callq	CompExp
	.loc	2 70 3                  # appft.c:70:3
	movq	%rbx, 16(%rsp)
.Ltmp21:
	#DEBUG_VALUE: appft:exp3 <- undef
	movq	%rbp, 8(%rsp)
.Ltmp22:
	#DEBUG_VALUE: appft:exp2 <- undef
	movq	%r14, (%rsp)
.Ltmp23:
	#DEBUG_VALUE: appft:exp1 <- undef
	movl	$1, %edi
	movl	$256, %esi              # imm = 0x100
	movl	$256, %edx              # imm = 0x100
	movl	$128, %ecx
	movl	$xnt, %r8d
	movl	$y, %r9d
	callq	fftXYZ
	.loc	2 71 3                  # appft.c:71:3
	movl	$2, %edi
	callq	timer_stop
	.loc	2 73 3                  # appft.c:73:3
	movl	$1, %edi
	callq	timer_start
	movl	$twiddle, %r14d
	xorl	%edx, %edx
.Ltmp24:
	.loc	2 74 7                  # appft.c:74:7
	cmpl	$0, timers_enabled(%rip)
	je	.LBB0_2
# BB#1:                                 # %if.then
	.loc	2 74 23 is_stmt 0 discriminator 1 # appft.c:74:23
	movl	$13, %edi
	callq	timer_start
	movl	$twiddle, %r14d
	xorl	%edx, %edx
.Ltmp25:
	.p2align	4, 0x90
.LBB0_2:                                # %for.body8
                                        # =>This Loop Header: Depth=1
                                        #     Child Loop BB0_3 Depth 2
                                        #       Child Loop BB0_4 Depth 3
	.loc	2 81 17 is_stmt 1       # appft.c:81:17
	movq	%rdx, 48(%rsp)          # 8-byte Spill
	movq	%r14, 56(%rsp)          # 8-byte Spill
	movl	%edx, %eax
	sarl	$31, %eax
	shrl	$26, %eax
	addl	%edx, %eax
	.loc	2 81 24 is_stmt 0       # appft.c:81:24
	addl	%eax, %eax
	.loc	2 81 17                 # appft.c:81:17
	andl	$-128, %eax
	.loc	2 81 12                 # appft.c:81:12
	movl	%edx, %ebx
	subl	%eax, %ebx
.Ltmp26:
	#DEBUG_VALUE: appft:ii <- %EBX
	.loc	2 82 14 is_stmt 1       # appft.c:82:14
	imull	%ebx, %ebx
.Ltmp27:
	#DEBUG_VALUE: appft:ii2 <- %EBX
	.loc	2 81 12                 # appft.c:81:12
	xorl	%r13d, %r13d
.Ltmp28:
	#DEBUG_VALUE: appft:k <- 0
	movsd	.LCPI0_0(%rip), %xmm1   # xmm1 = mem[0],zero
.Ltmp29:
	.p2align	4, 0x90
.LBB0_3:                                # %for.body12
                                        #   Parent Loop BB0_2 Depth=1
                                        # =>  This Loop Header: Depth=2
                                        #       Child Loop BB0_4 Depth 3
	.loc	2 84 19                 # appft.c:84:19
	movl	%r13d, %eax
	sarl	$31, %eax
	shrl	$25, %eax
	addl	%r13d, %eax
	andl	$-128, %eax
	addl	%eax, %eax
	.loc	2 84 14 is_stmt 0       # appft.c:84:14
	movl	%r13d, %r12d
	subl	%eax, %r12d
.Ltmp30:
	#DEBUG_VALUE: appft:kk <- %R12D
	.loc	2 85 21 is_stmt 1       # appft.c:85:21
	imull	%r12d, %r12d
.Ltmp31:
	.loc	2 85 17 is_stmt 0       # appft.c:85:17
	addl	%ebx, %r12d
.Ltmp32:
	#DEBUG_VALUE: appft:j <- 0
	#DEBUG_VALUE: appft:ik2 <- %R12D
	movq	%r14, %r15
	xorl	%ebp, %ebp
.Ltmp33:
	.p2align	4, 0x90
.LBB0_4:                                # %for.body19
                                        #   Parent Loop BB0_2 Depth=1
                                        #     Parent Loop BB0_3 Depth=2
                                        # =>    This Inner Loop Header: Depth=3
	.loc	2 87 21 is_stmt 1       # appft.c:87:21
	movl	%ebp, %eax
	sarl	$31, %eax
	shrl	$25, %eax
	addl	%ebp, %eax
	andl	$-128, %eax
	addl	%eax, %eax
	.loc	2 88 46                 # appft.c:88:46
	movl	%ebp, %ecx
	subl	%eax, %ecx
	imull	%ecx, %ecx
	.loc	2 88 50 is_stmt 0       # appft.c:88:50
	addl	%r12d, %ecx
	.loc	2 88 35                 # appft.c:88:35
	cvtsi2sdl	%ecx, %xmm0
	.loc	2 88 34                 # appft.c:88:34
	mulsd	%xmm1, %xmm0
	.loc	2 88 28                 # appft.c:88:28
	callq	exp
	movsd	.LCPI0_0(%rip), %xmm1   # xmm1 = mem[0],zero
	.loc	2 88 26                 # appft.c:88:26
	movsd	%xmm0, (%r15)
.Ltmp34:
	.loc	2 86 7 is_stmt 1 discriminator 1 # appft.c:86:7
	incq	%rbp
	addq	$8, %r15
	cmpq	$256, %rbp              # imm = 0x100
	jne	.LBB0_4
.Ltmp35:
# BB#5:                                 # %for.inc33
                                        #   in Loop: Header=BB0_3 Depth=2
	.loc	2 83 5 discriminator 1  # appft.c:83:5
	incq	%r13
	addq	$2056, %r14             # imm = 0x808
	cmpq	$256, %r13              # imm = 0x100
	jne	.LBB0_3
.Ltmp36:
# BB#6:                                 # %for.inc36
                                        #   in Loop: Header=BB0_2 Depth=1
	movq	48(%rsp), %rdx          # 8-byte Reload
	.loc	2 80 3 discriminator 1  # appft.c:80:3
	incq	%rdx
	movq	56(%rsp), %r14          # 8-byte Reload
	addq	$526336, %r14           # imm = 0x80800
	cmpq	$128, %rdx
	jne	.LBB0_2
.Ltmp37:
# BB#7:                                 # %for.end38
	.loc	2 92 7                  # appft.c:92:7
	cmpl	$0, timers_enabled(%rip)
	je	.LBB0_10
# BB#8:                                 # %if.end41
	.loc	2 92 23 is_stmt 0 discriminator 1 # appft.c:92:23
	movl	$13, %edi
	callq	timer_stop
.Ltmp38:
	.loc	2 94 7 is_stmt 1        # appft.c:94:7
	cmpl	$0, timers_enabled(%rip)
	je	.LBB0_10
# BB#9:                                 # %if.then43
	.loc	2 94 23 is_stmt 0 discriminator 1 # appft.c:94:23
	movl	$12, %edi
	callq	timer_start
.Ltmp39:
.LBB0_10:                               # %if.end44
	.loc	2 95 3 is_stmt 1        # appft.c:95:3
	movl	$256, %edi              # imm = 0x100
	movl	$256, %esi              # imm = 0x100
	movl	$128, %edx
	movl	$xnt, %ecx
	callq	compute_initial_conditions
.Ltmp40:
	.loc	2 96 7                  # appft.c:96:7
	cmpl	$0, timers_enabled(%rip)
	movl	28(%rsp), %ebp          # 4-byte Reload
	leaq	6208(%rsp), %rbx
	movq	%rbx, %r12
	leaq	2112(%rsp), %rbx
	movq	%rbx, %r13
	leaq	64(%rsp), %rbx
	je	.LBB0_13
# BB#11:                                # %if.end47
	.loc	2 96 23 is_stmt 0 discriminator 1 # appft.c:96:23
	movl	$12, %edi
	callq	timer_stop
.Ltmp41:
	.loc	2 97 7 is_stmt 1        # appft.c:97:7
	cmpl	$0, timers_enabled(%rip)
	je	.LBB0_13
# BB#12:                                # %if.then49
	.loc	2 97 23 is_stmt 0 discriminator 1 # appft.c:97:23
	movl	$15, %edi
	callq	timer_start
.Ltmp42:
.LBB0_13:                               # %if.end50
	.loc	2 98 3 is_stmt 1        # appft.c:98:3
	movq	%rbx, 16(%rsp)
	movq	%r13, 8(%rsp)
	movq	%r12, (%rsp)
	movl	$1, %r14d
	movl	$1, %edi
	movl	$256, %esi              # imm = 0x100
	movl	$256, %edx              # imm = 0x100
	movl	$128, %ecx
	movl	$xnt, %r8d
	movl	$y, %r9d
	callq	fftXYZ
	xorl	%eax, %eax
.Ltmp43:
	.loc	2 99 7                  # appft.c:99:7
	cmpl	$0, timers_enabled(%rip)
	movq	40(%rsp), %r15          # 8-byte Reload
	je	.LBB0_16
# BB#14:                                # %if.then55
	.loc	2 99 23 is_stmt 0 discriminator 1 # appft.c:99:23
	movl	$15, %edi
	callq	timer_stop
	movl	$1, %r14d
.Ltmp44:
.LBB0_15:                               # %for.cond57thread-pre-split
	.loc	2 102 9 is_stmt 1       # appft.c:102:9
	movl	timers_enabled(%rip), %eax
.Ltmp45:
.LBB0_16:                               # %for.cond57
	.loc	2 101 19 discriminator 1 # appft.c:101:19
	cmpl	%ebp, %r14d
	jle	.LBB0_17
.Ltmp46:
# BB#28:                                # %for.end86
	.loc	2 114 7                 # appft.c:114:7
	testl	%eax, %eax
	je	.LBB0_30
# BB#29:                                # %if.then88
.Ltmp47:
	.loc	2 114 23 is_stmt 0 discriminator 1 # appft.c:114:23
	movl	$14, %edi
	callq	timer_start
.Ltmp48:
.LBB0_30:                               # %if.end89
	.loc	2 115 3 is_stmt 1       # appft.c:115:3
	movl	$256, %edi              # imm = 0x100
	movl	$256, %esi              # imm = 0x100
	movl	$128, %edx
	movl	$sums, %r8d
	movl	%ebp, %ecx
	movq	32(%rsp), %r9           # 8-byte Reload
	callq	verify
.Ltmp49:
	.loc	2 116 7                 # appft.c:116:7
	cmpl	$0, timers_enabled(%rip)
	je	.LBB0_32
# BB#31:                                # %if.then91
	.loc	2 116 23 is_stmt 0 discriminator 1 # appft.c:116:23
	movl	$14, %edi
	callq	timer_stop
.Ltmp50:
.LBB0_32:                               # %if.end92
	.loc	2 117 3 is_stmt 1       # appft.c:117:3
	movl	$1, %edi
	callq	timer_stop
	.loc	2 119 17                # appft.c:119:17
	movl	$1, %edi
	callq	timer_read
	.loc	2 119 15 is_stmt 0      # appft.c:119:15
	movsd	%xmm0, (%r15)
.Ltmp51:
	.loc	2 120 8 is_stmt 1       # appft.c:120:8
	cmpl	$0, timers_enabled(%rip)
	je	.LBB0_34
.Ltmp52:
# BB#33:                                # %if.end96
	.loc	2 122 3                 # appft.c:122:3
	movl	$.Lstr, %edi
	callq	puts
	.loc	2 123 58                # appft.c:123:58
	movl	$1, %edi
	callq	timer_read
	.loc	2 123 3 is_stmt 0 discriminator 1 # appft.c:123:3
	movl	$.L.str.1, %edi
	movl	$.L.str.2, %esi
	movb	$1, %al
	callq	printf
	.loc	2 124 58 is_stmt 1      # appft.c:124:58
	movl	$2, %edi
	callq	timer_read
	.loc	2 124 3 is_stmt 0 discriminator 1 # appft.c:124:3
	movl	$.L.str.1, %edi
	movl	$.L.str.3, %esi
	movb	$1, %al
	callq	printf
	.loc	2 125 58 is_stmt 1      # appft.c:125:58
	movl	$3, %edi
	callq	timer_read
	.loc	2 125 3 is_stmt 0 discriminator 1 # appft.c:125:3
	movl	$.L.str.1, %edi
	movl	$.L.str.4, %esi
	movb	$1, %al
	callq	printf
	.loc	2 126 58 is_stmt 1      # appft.c:126:58
	movl	$4, %edi
	callq	timer_read
	.loc	2 126 3 is_stmt 0 discriminator 1 # appft.c:126:3
	movl	$.L.str.1, %edi
	movl	$.L.str.5, %esi
	movb	$1, %al
	callq	printf
	.loc	2 127 58 is_stmt 1      # appft.c:127:58
	movl	$7, %edi
	callq	timer_read
	.loc	2 127 3 is_stmt 0 discriminator 1 # appft.c:127:3
	movl	$.L.str.1, %edi
	movl	$.L.str.6, %esi
	movb	$1, %al
	callq	printf
	.loc	2 128 58 is_stmt 1      # appft.c:128:58
	movl	$8, %edi
	callq	timer_read
	.loc	2 128 3 is_stmt 0 discriminator 1 # appft.c:128:3
	movl	$.L.str.1, %edi
	movl	$.L.str.7, %esi
	movb	$1, %al
	callq	printf
	.loc	2 129 58 is_stmt 1      # appft.c:129:58
	movl	$9, %edi
	callq	timer_read
	.loc	2 129 3 is_stmt 0 discriminator 1 # appft.c:129:3
	movl	$.L.str.1, %edi
	movl	$.L.str.8, %esi
	movb	$1, %al
	callq	printf
	.loc	2 130 58 is_stmt 1      # appft.c:130:58
	movl	$10, %edi
	callq	timer_read
	.loc	2 130 3 is_stmt 0 discriminator 1 # appft.c:130:3
	movl	$.L.str.1, %edi
	movl	$.L.str.9, %esi
	movb	$1, %al
	callq	printf
	.loc	2 131 58 is_stmt 1      # appft.c:131:58
	movl	$11, %edi
	callq	timer_read
	.loc	2 131 3 is_stmt 0 discriminator 1 # appft.c:131:3
	movl	$.L.str.1, %edi
	movl	$.L.str.10, %esi
	movb	$1, %al
	callq	printf
	.loc	2 132 58 is_stmt 1      # appft.c:132:58
	movl	$12, %edi
	callq	timer_read
	.loc	2 132 3 is_stmt 0 discriminator 1 # appft.c:132:3
	movl	$.L.str.1, %edi
	movl	$.L.str.11, %esi
	movb	$1, %al
	callq	printf
	.loc	2 133 58 is_stmt 1      # appft.c:133:58
	movl	$13, %edi
	callq	timer_read
	.loc	2 133 3 is_stmt 0 discriminator 1 # appft.c:133:3
	movl	$.L.str.1, %edi
	movl	$.L.str.12, %esi
	movb	$1, %al
	callq	printf
	.loc	2 134 58 is_stmt 1      # appft.c:134:58
	movl	$14, %edi
	callq	timer_read
	.loc	2 134 3 is_stmt 0 discriminator 1 # appft.c:134:3
	movl	$.L.str.1, %edi
	movl	$.L.str.13, %esi
	movb	$1, %al
	callq	printf
	.loc	2 135 58 is_stmt 1      # appft.c:135:58
	movl	$15, %edi
	callq	timer_read
	.loc	2 135 3 is_stmt 0 discriminator 1 # appft.c:135:3
	movl	$.L.str.1, %edi
	movl	$.L.str.14, %esi
	movb	$1, %al
	callq	printf
	.loc	2 136 58 is_stmt 1      # appft.c:136:58
	movsd	(%r15), %xmm0           # xmm0 = mem[0],zero
	.loc	2 136 3 is_stmt 0       # appft.c:136:3
	movl	$.L.str.1, %edi
	movl	$.L.str.15, %esi
	movb	$1, %al
	callq	printf
.LBB0_34:                               # %cleanup
	.loc	2 137 1 is_stmt 1 discriminator 2 # appft.c:137:1
	addq	$10312, %rsp            # imm = 0x2848
	popq	%rbx
	popq	%r12
	popq	%r13
	popq	%r14
	popq	%r15
	popq	%rbp
	retq
.LBB0_17:                               # %for.body60
.Ltmp53:
	.loc	2 102 9                 # appft.c:102:9
	testl	%eax, %eax
	je	.LBB0_19
# BB#18:                                # %if.then62
.Ltmp54:
	.loc	2 102 25 is_stmt 0 discriminator 1 # appft.c:102:25
	movl	$11, %edi
	callq	timer_start
.Ltmp55:
.LBB0_19:                               # %if.end63
	.loc	2 103 5 is_stmt 1       # appft.c:103:5
	movl	$256, %edi              # imm = 0x100
	movl	$256, %esi              # imm = 0x100
	movl	$128, %edx
	movl	$xnt, %ecx
	movl	$y, %r8d
	movl	$twiddle, %r9d
	callq	evolve
.Ltmp56:
	.loc	2 104 9                 # appft.c:104:9
	cmpl	$0, timers_enabled(%rip)
	je	.LBB0_22
# BB#20:                                # %if.end66
	.loc	2 104 25 is_stmt 0 discriminator 1 # appft.c:104:25
	movl	$11, %edi
	callq	timer_stop
.Ltmp57:
	.loc	2 105 9 is_stmt 1       # appft.c:105:9
	cmpl	$0, timers_enabled(%rip)
	je	.LBB0_22
# BB#21:                                # %if.then68
	.loc	2 105 25 is_stmt 0 discriminator 1 # appft.c:105:25
	movl	$15, %edi
	callq	timer_start
.Ltmp58:
.LBB0_22:                               # %if.end69
	.loc	2 106 5 is_stmt 1       # appft.c:106:5
	movq	%rbx, 16(%rsp)
	movq	%r13, 8(%rsp)
	movq	%r12, (%rsp)
	movl	$-1, %edi
	movl	$256, %esi              # imm = 0x100
	movl	$256, %edx              # imm = 0x100
	movl	$128, %ecx
	movl	$xnt, %r8d
	movl	$xnt, %r9d
	callq	fftXYZ
.Ltmp59:
	.loc	2 107 9                 # appft.c:107:9
	cmpl	$0, timers_enabled(%rip)
	je	.LBB0_25
# BB#23:                                # %if.end75
	.loc	2 107 25 is_stmt 0 discriminator 1 # appft.c:107:25
	movl	$15, %edi
	callq	timer_stop
.Ltmp60:
	.loc	2 108 9 is_stmt 1       # appft.c:108:9
	cmpl	$0, timers_enabled(%rip)
	je	.LBB0_25
# BB#24:                                # %if.then77
	.loc	2 108 25 is_stmt 0 discriminator 1 # appft.c:108:25
	movl	$10, %edi
	callq	timer_start
.Ltmp61:
.LBB0_25:                               # %if.end78
	.loc	2 109 24 is_stmt 1      # appft.c:109:24
	movslq	%r14d, %rax
	shlq	$4, %rax
	leaq	sums(%rax), %rdi
	.loc	2 109 5 is_stmt 0       # appft.c:109:5
	movl	$256, %edx              # imm = 0x100
	movl	$256, %ecx              # imm = 0x100
	movl	$128, %r8d
	movl	$xnt, %r9d
	movl	%r14d, %esi
	callq	CalculateChecksum
.Ltmp62:
	.loc	2 110 9 is_stmt 1       # appft.c:110:9
	cmpl	$0, timers_enabled(%rip)
	je	.LBB0_27
# BB#26:                                # %if.then82
	.loc	2 110 25 is_stmt 0 discriminator 1 # appft.c:110:25
	movl	$10, %edi
	callq	timer_stop
.Ltmp63:
.LBB0_27:                               # %for.inc84
	.loc	2 101 31 is_stmt 1 discriminator 2 # appft.c:101:31
	incl	%r14d
.Ltmp64:
	#DEBUG_VALUE: appft:kt <- %R14D
	jmp	.LBB0_15
.Ltmp65:
.Lfunc_end0:
	.size	appft, .Lfunc_end0-appft
	.cfi_endproc

	.section	.rodata.cst8,"aM",@progbits,8
	.p2align	3
.LCPI1_0:
	.quad	4607182418800017408     # double 1
.LCPI1_1:
	.quad	4742906807993761792     # double 1220703125
	.text
	.globl	compute_initial_conditions
	.p2align	4, 0x90
	.type	compute_initial_conditions,@function
compute_initial_conditions:             # @compute_initial_conditions
.Lfunc_begin1:
	.file	8 "/home/norouzi/Desktop/software/benchmarks/NAS/NPB3.3-SER-C/FT/auxfnct.c"
	.loc	8 138 0                 # auxfnct.c:138:0
	.cfi_startproc
# BB#0:                                 # %entry
	pushq	%rbp
.Ltmp66:
	.cfi_def_cfa_offset 16
	pushq	%r15
.Ltmp67:
	.cfi_def_cfa_offset 24
	pushq	%r14
.Ltmp68:
	.cfi_def_cfa_offset 32
	pushq	%r13
.Ltmp69:
	.cfi_def_cfa_offset 40
	pushq	%r12
.Ltmp70:
	.cfi_def_cfa_offset 48
	pushq	%rbx
.Ltmp71:
	.cfi_def_cfa_offset 56
	subq	$6248, %rsp             # imm = 0x1868
.Ltmp72:
	.cfi_def_cfa_offset 6304
.Ltmp73:
	.cfi_offset %rbx, -56
.Ltmp74:
	.cfi_offset %r12, -48
.Ltmp75:
	.cfi_offset %r13, -40
.Ltmp76:
	.cfi_offset %r14, -32
.Ltmp77:
	.cfi_offset %r15, -24
.Ltmp78:
	.cfi_offset %rbp, -16
	#DEBUG_VALUE: compute_initial_conditions:d1 <- %EDI
	#DEBUG_VALUE: compute_initial_conditions:d2 <- %ESI
	#DEBUG_VALUE: compute_initial_conditions:d3 <- %EDX
	#DEBUG_VALUE: compute_initial_conditions:u0 <- %RCX
	movq	%rcx, %r13
.Ltmp79:
	#DEBUG_VALUE: compute_initial_conditions:u0 <- %R13
	#DEBUG_VALUE: compute_initial_conditions:d3 <- [%RSP+16]
	movq	%rdx, 16(%rsp)          # 8-byte Spill
	movl	%esi, %ebx
.Ltmp80:
	#DEBUG_VALUE: compute_initial_conditions:d2 <- %EBX
	movl	%ebx, 4(%rsp)           # 4-byte Spill
	movl	%edi, %ebp
.Ltmp81:
	#DEBUG_VALUE: compute_initial_conditions:d1 <- %EBP
	movl	%ebx, %eax
.Ltmp82:
	.loc	8 137 55 prologue_end   # auxfnct.c:137:55
	movq	%rax, 40(%rsp)          # 8-byte Spill
	leal	1(%rbp), %eax
	.loc	8 147 9                 # auxfnct.c:147:9
	movq	%rax, 48(%rsp)          # 8-byte Spill
	movabsq	$4734050326586327040, %rax # imm = 0x41B2B9B0A1000000
.Ltmp83:
	#DEBUG_VALUE: compute_initial_conditions:start <- 3.141593e+08
	#DEBUG_VALUE: compute_initial_conditions:a <- 1.220703e+09
	#DEBUG_VALUE: compute_initial_conditions:seed <- 3.141593e+08
	movq	%rax, 32(%rsp)
	leaq	32(%rsp), %rdi
.Ltmp84:
	#DEBUG_VALUE: compute_initial_conditions:start <- [%RDI+0]
	#DEBUG_VALUE: compute_initial_conditions:an <- 1.000000e+00
	#DEBUG_VALUE: ipow46:result <- 1.000000e+00
	#DEBUG_VALUE: ipow46:a <- 1.220703e+09
	movsd	.LCPI1_0(%rip), %xmm0   # xmm0 = mem[0],zero
	.loc	8 152 11                # auxfnct.c:152:11
	movsd	%xmm0, 8(%rsp)          # 8-byte Spill
	callq	randlc
.Ltmp85:
	.loc	8 153 19                # auxfnct.c:153:19
	leal	(%rbp,%rbp), %eax
	movl	%eax, 28(%rsp)          # 4-byte Spill
	movq	%rbp, %r12
.Ltmp86:
	#DEBUG_VALUE: compute_initial_conditions:d1 <- %R12D
	.loc	8 153 22 is_stmt 0      # auxfnct.c:153:22
	movl	%eax, %ebp
	imull	%ebx, %ebp
.Ltmp87:
	#DEBUG_VALUE: ipow46:result <- 1.000000e+00
	#DEBUG_VALUE: ipow46:a <- 1.220703e+09
	#DEBUG_VALUE: compute_initial_conditions:d2 <- [%RSP+4]
	.loc	8 96 16 is_stmt 1       # auxfnct.c:96:16
	testl	%ebp, %ebp
	je	.LBB1_8
.Ltmp88:
# BB#1:                                 # %if.end.i
	#DEBUG_VALUE: compute_initial_conditions:d2 <- [%RSP+4]
	#DEBUG_VALUE: compute_initial_conditions:d1 <- %R12D
	#DEBUG_VALUE: compute_initial_conditions:start <- [%RDI+0]
	#DEBUG_VALUE: compute_initial_conditions:u0 <- %R13
	#DEBUG_VALUE: ipow46:q <- 1.220703e+09
	movabsq	$4742906807993761792, %rax # imm = 0x41D2309CE5400000
	.loc	8 97 5                  # auxfnct.c:97:5
	movq	%rax, 80(%rsp)
	.loc	8 98 5                  # auxfnct.c:98:5
	movabsq	$4607182418800017408, %rax # imm = 0x3FF0000000000000
.Ltmp89:
	#DEBUG_VALUE: ipow46:r <- 1.000000e+00
	movq	%rax, 64(%rsp)
	movsd	.LCPI1_1(%rip), %xmm0   # xmm0 = mem[0],zero
.Ltmp90:
	.loc	8 101 3 discriminator 1 # auxfnct.c:101:3
	cmpl	$2, %ebp
	jl	.LBB1_7
.Ltmp91:
# BB#2:
	#DEBUG_VALUE: compute_initial_conditions:u0 <- %R13
	#DEBUG_VALUE: compute_initial_conditions:start <- [%RDI+0]
	#DEBUG_VALUE: compute_initial_conditions:d1 <- %R12D
	#DEBUG_VALUE: compute_initial_conditions:d2 <- [%RSP+4]
	leaq	80(%rsp), %r14
	leaq	64(%rsp), %r15
.Ltmp92:
	.p2align	4, 0x90
.LBB1_3:                                # %while.body.i
                                        # =>This Inner Loop Header: Depth=1
	.loc	8 102 12                # auxfnct.c:102:12
	movl	%ebp, %ebx
	shrl	$31, %ebx
	addl	%ebp, %ebx
.Ltmp93:
	.loc	8 103 12                # auxfnct.c:103:12
	movl	%ebx, %eax
	andl	$-2, %eax
.Ltmp94:
	.loc	8 103 9 is_stmt 0       # auxfnct.c:103:9
	cmpl	%ebp, %eax
	jne	.LBB1_5
# BB#4:                                 # %if.then3.i
                                        #   in Loop: Header=BB1_3 Depth=1
	.loc	8 102 12 is_stmt 1      # auxfnct.c:102:12
	sarl	%ebx
.Ltmp95:
	#DEBUG_VALUE: ipow46:n2 <- %EBX
	#DEBUG_VALUE: ipow46:n <- %EBX
	#DEBUG_VALUE: ipow46:q <- [%R14+0]
	.loc	8 104 15                # auxfnct.c:104:15
	movq	%r14, %rdi
	callq	randlc
.Ltmp96:
	.loc	8 153 8                 # auxfnct.c:153:8
	movl	%ebx, %ebp
.Ltmp97:
	#DEBUG_VALUE: ipow46:n2 <- %EBP
	#DEBUG_VALUE: ipow46:n <- %EBP
	jmp	.LBB1_6
.Ltmp98:
	.p2align	4, 0x90
.LBB1_5:                                # %if.else.i
                                        #   in Loop: Header=BB1_3 Depth=1
	#DEBUG_VALUE: ipow46:r <- [%R15+0]
	#DEBUG_VALUE: ipow46:q <- %XMM0
	.loc	8 107 15                # auxfnct.c:107:15
	movq	%r15, %rdi
	callq	randlc
.Ltmp99:
	.loc	8 108 12                # auxfnct.c:108:12
	decl	%ebp
.Ltmp100:
	#DEBUG_VALUE: ipow46:n <- %EBP
.LBB1_6:                                # %while.cond.backedge.i
                                        #   in Loop: Header=BB1_3 Depth=1
	#DEBUG_VALUE: ipow46:n <- %EBP
	.loc	8 101 12 discriminator 1 # auxfnct.c:101:12
	cmpl	$1, %ebp
.Ltmp101:
	.loc	8 104 26                # auxfnct.c:104:26
	movsd	80(%rsp), %xmm0         # xmm0 = mem[0],zero
	jg	.LBB1_3
.Ltmp102:
.LBB1_7:                                # %while.end.i
	#DEBUG_VALUE: ipow46:q <- %XMM0
	leaq	64(%rsp), %rdi
.Ltmp103:
	#DEBUG_VALUE: ipow46:r <- [%RDI+0]
	.loc	8 111 11                # auxfnct.c:111:11
	callq	randlc
.Ltmp104:
	.loc	8 112 12                # auxfnct.c:112:12
	movsd	64(%rsp), %xmm0         # xmm0 = mem[0],zero
.Ltmp105:
	#DEBUG_VALUE: ipow46:r <- [%RSP+8]
	#DEBUG_VALUE: ipow46:result <- [%RSP+8]
	movsd	%xmm0, 8(%rsp)          # 8-byte Spill
.Ltmp106:
.LBB1_8:                                # %ipow46.exit
	.loc	8 157 18                # auxfnct.c:157:18
	movq	32(%rsp), %rax
.Ltmp107:
	#DEBUG_VALUE: compute_initial_conditions:k <- 1
	.loc	8 157 16 is_stmt 0      # auxfnct.c:157:16
	movq	%rax, 96(%rsp)
.Ltmp108:
	.loc	8 158 3 is_stmt 1 discriminator 1 # auxfnct.c:158:3
	movq	16(%rsp), %rax          # 8-byte Reload
	cmpl	$2, %eax
	jl	.LBB1_11
.Ltmp109:
# BB#9:                                 # %for.body.preheader
	.loc	8 140 14                # auxfnct.c:140:14
	leaq	104(%rsp), %rbp
	movq	16(%rsp), %rax          # 8-byte Reload
	leal	-1(%rax), %ebx
	leaq	32(%rsp), %r14
	.p2align	4, 0x90
.LBB1_10:                               # %for.body
                                        # =>This Inner Loop Header: Depth=1
.Ltmp110:
	#DEBUG_VALUE: compute_initial_conditions:start <- [%R14+0]
	#DEBUG_VALUE: compute_initial_conditions:an <- undef
	.loc	8 159 13                # auxfnct.c:159:13
	movq	%r14, %rdi
.Ltmp111:
	#DEBUG_VALUE: compute_initial_conditions:an <- [%RSP+8]
	movsd	8(%rsp), %xmm0          # 8-byte Reload
                                        # xmm0 = mem[0],zero
	callq	randlc
.Ltmp112:
	#DEBUG_VALUE: compute_initial_conditions:an <- undef
	.loc	8 160 20                # auxfnct.c:160:20
	movq	32(%rsp), %rax
	.loc	8 160 18 is_stmt 0      # auxfnct.c:160:18
	movq	%rax, (%rbp)
.Ltmp113:
	.loc	8 158 3 is_stmt 1 discriminator 1 # auxfnct.c:158:3
	addq	$8, %rbp
	decl	%ebx
	jne	.LBB1_10
.Ltmp114:
.LBB1_11:                               # %for.cond16.preheader
	.loc	8 163 3 discriminator 1 # auxfnct.c:163:3
	movq	16(%rsp), %rax          # 8-byte Reload
	testl	%eax, %eax
	jle	.LBB1_21
# BB#12:                                # %for.body18.lr.ph
.Ltmp115:
	.loc	8 165 19 discriminator 1 # auxfnct.c:165:19
	cmpl	$0, 4(%rsp)             # 4-byte Folded Reload
	jle	.LBB1_13
.Ltmp116:
# BB#22:                                # %for.body18.us.preheader
	movq	%r12, %rax
	.loc	8 164 10                # auxfnct.c:164:10
	movq	%rax, 72(%rsp)          # 8-byte Spill
	leal	-1(%rax), %ecx
.Ltmp117:
	.loc	8 167 7 discriminator 1 # auxfnct.c:167:7
	movl	%ecx, 8(%rsp)           # 4-byte Spill
	movl	%eax, %r15d
	andl	$3, %r15d
	movq	40(%rsp), %rax          # 8-byte Reload
	movq	48(%rsp), %r12          # 8-byte Reload
.Ltmp118:
	.loc	8 164 10                # auxfnct.c:164:10
	imulq	%r12, %rax
	shlq	$4, %rax
	movq	%rax, 40(%rsp)          # 8-byte Spill
	shlq	$4, %r12
	xorl	%ecx, %ecx
	leaq	2144(%rsp), %r14
	.p2align	4, 0x90
.LBB1_23:                               # %for.body18.us
                                        # =>This Loop Header: Depth=1
                                        #     Child Loop BB1_24 Depth 2
                                        #     Child Loop BB1_26 Depth 2
                                        #       Child Loop BB1_27 Depth 3
                                        #       Child Loop BB1_30 Depth 3
	movq	%rcx, 88(%rsp)          # 8-byte Spill
	movq	%r13, 48(%rsp)          # 8-byte Spill
	movq	72(%rsp), %rax          # 8-byte Reload
	testl	%eax, %eax
	movq	96(%rsp,%rcx,8), %rax
	.loc	8 164 8 is_stmt 0       # auxfnct.c:164:8
	movq	%rax, 56(%rsp)
.Ltmp119:
	#DEBUG_VALUE: compute_initial_conditions:j <- 0
	movl	4(%rsp), %ebx           # 4-byte Reload
	movl	$0, %ebp
	jle	.LBB1_24
	.p2align	4, 0x90
.LBB1_26:                               # %for.body23.us.us
                                        #   Parent Loop BB1_23 Depth=1
                                        # =>  This Loop Header: Depth=2
                                        #       Child Loop BB1_27 Depth 3
                                        #       Child Loop BB1_30 Depth 3
.Ltmp120:
	#DEBUG_VALUE: compute_initial_conditions:x0 <- undef
	.loc	8 166 7 is_stmt 1       # auxfnct.c:166:7
	movl	28(%rsp), %edi          # 4-byte Reload
	leaq	56(%rsp), %rsi
	movsd	.LCPI1_1(%rip), %xmm0   # xmm0 = mem[0],zero
	movq	%r14, %rdx
	callq	vranlc
	testl	%r15d, %r15d
.Ltmp121:
	#DEBUG_VALUE: compute_initial_conditions:i <- 0
	movq	%r13, %rcx
	movq	%r14, %rdx
	movl	$0, %eax
	je	.LBB1_28
	.p2align	4, 0x90
.LBB1_27:                               # %for.body27.us.us.prol
                                        #   Parent Loop BB1_23 Depth=1
                                        #     Parent Loop BB1_26 Depth=2
                                        # =>    This Inner Loop Header: Depth=3
.Ltmp122:
	.loc	8 168 23                # auxfnct.c:168:23
	movupd	(%rdx), %xmm0
	movupd	%xmm0, (%rcx)
.Ltmp123:
	.loc	8 167 7 discriminator 1 # auxfnct.c:167:7
	incq	%rax
	addq	$16, %rdx
	addq	$16, %rcx
	cmpl	%eax, %r15d
	jne	.LBB1_27
.LBB1_28:                               # %for.body23.us.us.split
                                        #   in Loop: Header=BB1_26 Depth=2
	cmpl	$3, 8(%rsp)             # 4-byte Folded Reload
	jb	.LBB1_31
# BB#29:                                # %for.body23.us.us.split.split
                                        #   in Loop: Header=BB1_26 Depth=2
	movq	72(%rsp), %rcx          # 8-byte Reload
	subl	%eax, %ecx
	shlq	$4, %rax
	leaq	2144(%rsp,%rax), %rdx
	addq	%r13, %rax
	xorl	%esi, %esi
	.p2align	4, 0x90
.LBB1_30:                               # %for.body27.us.us
                                        #   Parent Loop BB1_23 Depth=1
                                        #     Parent Loop BB1_26 Depth=2
                                        # =>    This Inner Loop Header: Depth=3
.Ltmp124:
	.loc	8 168 23                # auxfnct.c:168:23
	movups	(%rdx,%rsi), %xmm0
	movups	%xmm0, (%rax,%rsi)
	movups	16(%rdx,%rsi), %xmm0
	movups	%xmm0, 16(%rax,%rsi)
	movups	32(%rdx,%rsi), %xmm0
	movups	%xmm0, 32(%rax,%rsi)
	movupd	48(%rdx,%rsi), %xmm0
	movupd	%xmm0, 48(%rax,%rsi)
.Ltmp125:
	.loc	8 167 7 discriminator 1 # auxfnct.c:167:7
	addq	$64, %rsi
	addl	$-4, %ecx
	jne	.LBB1_30
.Ltmp126:
.LBB1_31:                               # %for.cond25.for.inc39_crit_edge.us.us
                                        #   in Loop: Header=BB1_26 Depth=2
	.loc	8 165 5 discriminator 1 # auxfnct.c:165:5
	incq	%rbp
	addq	%r12, %r13
	cmpl	4(%rsp), %ebp           # 4-byte Folded Reload
	jne	.LBB1_26
	jmp	.LBB1_25
	.p2align	4, 0x90
.LBB1_24:                               # %for.body23.us81
                                        #   Parent Loop BB1_23 Depth=1
                                        # =>  This Inner Loop Header: Depth=2
	#DEBUG_VALUE: compute_initial_conditions:x0 <- undef
.Ltmp127:
	.loc	8 166 7                 # auxfnct.c:166:7
	movl	28(%rsp), %edi          # 4-byte Reload
	leaq	56(%rsp), %rsi
	movsd	.LCPI1_1(%rip), %xmm0   # xmm0 = mem[0],zero
	movq	%r14, %rdx
	callq	vranlc
.Ltmp128:
	#DEBUG_VALUE: compute_initial_conditions:i <- 0
	.loc	8 165 5 discriminator 1 # auxfnct.c:165:5
	decl	%ebx
	jne	.LBB1_24
.Ltmp129:
.LBB1_25:                               # %for.cond21.for.inc42_crit_edge.us
                                        #   in Loop: Header=BB1_23 Depth=1
	movq	88(%rsp), %rcx          # 8-byte Reload
	.loc	8 163 3 discriminator 1 # auxfnct.c:163:3
	incq	%rcx
	movq	48(%rsp), %r13          # 8-byte Reload
	addq	40(%rsp), %r13          # 8-byte Folded Reload
	movq	16(%rsp), %rax          # 8-byte Reload
	cmpl	%eax, %ecx
	jne	.LBB1_23
	jmp	.LBB1_21
.Ltmp130:
.LBB1_13:                               # %for.body18.preheader
	movq	16(%rsp), %rdx          # 8-byte Reload
	.loc	8 143 10                # auxfnct.c:143:10
	leal	-1(%rdx), %ecx
	xorl	%eax, %eax
	testb	$7, %dl
	movq	%rdx, %rbp
                                        # implicit-def: %RDX
	je	.LBB1_16
# BB#14:                                # %for.body18.prol.preheader
	movl	%ebp, %esi
	andl	$7, %esi
	xorl	%edi, %edi
	.p2align	4, 0x90
.LBB1_15:                               # %for.body18.prol
                                        # =>This Inner Loop Header: Depth=1
	#DEBUG_VALUE: compute_initial_conditions:j <- 0
.Ltmp131:
	.loc	8 163 3 discriminator 1 # auxfnct.c:163:3
	leaq	1(%rdi), %rax
	movq	%rdi, %rdx
	cmpl	%eax, %esi
	movq	%rax, %rdi
	jne	.LBB1_15
.Ltmp132:
.LBB1_16:                               # %for.body18.preheader.split
	.loc	8 143 10                # auxfnct.c:143:10
	cmpl	$7, %ecx
	jb	.LBB1_20
# BB#17:                                # %for.body18.preheader.split.split
	movl	%ebp, %ecx
	.p2align	4, 0x90
.LBB1_18:                               # %for.body18
                                        # =>This Inner Loop Header: Depth=1
	#DEBUG_VALUE: compute_initial_conditions:j <- 0
	movq	%rax, %rdx
.Ltmp133:
	.loc	8 163 3 discriminator 1 # auxfnct.c:163:3
	leaq	8(%rdx), %rax
	cmpl	%eax, %ecx
	jne	.LBB1_18
# BB#19:                                # %for.end44.loopexit121.unr-lcssa
	addq	$7, %rdx
.LBB1_20:                               # %for.end44.loopexit121
.Ltmp134:
	.loc	8 164 10                # auxfnct.c:164:10
	movq	96(%rsp,%rdx,8), %rax
	.loc	8 164 8 is_stmt 0       # auxfnct.c:164:8
	movq	%rax, 56(%rsp)
.Ltmp135:
.LBB1_21:                               # %for.end44
	.loc	8 172 1 is_stmt 1       # auxfnct.c:172:1
	addq	$6248, %rsp             # imm = 0x1868
	popq	%rbx
	popq	%r12
	popq	%r13
	popq	%r14
	popq	%r15
	popq	%rbp
	retq
.Ltmp136:
.Lfunc_end1:
	.size	compute_initial_conditions, .Lfunc_end1-compute_initial_conditions
	.cfi_endproc

	.section	.rodata.cst8,"aM",@progbits,8
	.p2align	3
.LCPI2_0:
	.quad	4607182418800017408     # double 1
.LCPI2_1:
	.quad	4614256656552045848     # double 3.1415926535897931
.LCPI2_2:
	.quad	0                       # double 0
	.text
	.globl	CompExp
	.p2align	4, 0x90
	.type	CompExp,@function
CompExp:                                # @CompExp
.Lfunc_begin2:
	.loc	8 45 0                  # auxfnct.c:45:0
	.cfi_startproc
# BB#0:                                 # %entry
	pushq	%rbp
.Ltmp137:
	.cfi_def_cfa_offset 16
	pushq	%r15
.Ltmp138:
	.cfi_def_cfa_offset 24
	pushq	%r14
.Ltmp139:
	.cfi_def_cfa_offset 32
	pushq	%r13
.Ltmp140:
	.cfi_def_cfa_offset 40
	pushq	%r12
.Ltmp141:
	.cfi_def_cfa_offset 48
	pushq	%rbx
.Ltmp142:
	.cfi_def_cfa_offset 56
	subq	$40, %rsp
.Ltmp143:
	.cfi_def_cfa_offset 96
.Ltmp144:
	.cfi_offset %rbx, -56
.Ltmp145:
	.cfi_offset %r12, -48
.Ltmp146:
	.cfi_offset %r13, -40
.Ltmp147:
	.cfi_offset %r14, -32
.Ltmp148:
	.cfi_offset %r15, -24
.Ltmp149:
	.cfi_offset %rbp, -16
	#DEBUG_VALUE: CompExp:n <- %EDI
	#DEBUG_VALUE: CompExp:exponent <- %RSI
.Ltmp150:
	#DEBUG_VALUE: CompExp:nu <- %EDI
	movq	%rsi, %r13
.Ltmp151:
	#DEBUG_VALUE: ilog2:n <- %EDI
	#DEBUG_VALUE: CompExp:pi <- 3.141593e+00
	#DEBUG_VALUE: CompExp:exponent <- %R13
	.loc	8 70 7 prologue_end     # auxfnct.c:70:7
	cmpl	$1, %edi
	jne	.LBB2_2
.Ltmp152:
# BB#1:                                 # %ilog2.exit.thread
	#DEBUG_VALUE: CompExp:exponent <- %R13
	#DEBUG_VALUE: ilog2:n <- %EDI
	#DEBUG_VALUE: CompExp:nu <- %EDI
	#DEBUG_VALUE: CompExp:n <- %EDI
	.loc	8 52 17                 # auxfnct.c:52:17
	xorpd	%xmm0, %xmm0
	movupd	%xmm0, (%r13)
.Ltmp153:
	#DEBUG_VALUE: CompExp:j <- 1
	#DEBUG_VALUE: CompExp:ln <- 1
	#DEBUG_VALUE: CompExp:ku <- 2
	jmp	.LBB2_13
.Ltmp154:
.LBB2_2:                                # %while.cond.preheader.i
	#DEBUG_VALUE: CompExp:exponent <- %R13
	#DEBUG_VALUE: ilog2:n <- %EDI
	#DEBUG_VALUE: CompExp:nu <- %EDI
	#DEBUG_VALUE: CompExp:n <- %EDI
	.loc	8 74 13 discriminator 1 # auxfnct.c:74:13
	cmpl	$2, %edi
	jle	.LBB2_14
.Ltmp155:
# BB#3:
	#DEBUG_VALUE: CompExp:n <- %EDI
	#DEBUG_VALUE: CompExp:nu <- %EDI
	#DEBUG_VALUE: ilog2:n <- %EDI
	#DEBUG_VALUE: CompExp:exponent <- %R13
	movl	$2, %ecx
	xorl	%eax, %eax
.Ltmp156:
	.p2align	4, 0x90
.LBB2_4:                                # %while.body.i
                                        # =>This Inner Loop Header: Depth=1
	.loc	8 51 7                  # auxfnct.c:51:7
	movl	%eax, %edx
.Ltmp157:
	.loc	8 75 13                 # auxfnct.c:75:13
	addl	%ecx, %ecx
.Ltmp158:
	#DEBUG_VALUE: ilog2:nn <- %ECX
	.loc	8 74 3 discriminator 1  # auxfnct.c:74:3
	leal	1(%rdx), %eax
	.loc	8 74 13 is_stmt 0 discriminator 1 # auxfnct.c:74:13
	cmpl	%edi, %ecx
	.loc	8 74 3 discriminator 1  # auxfnct.c:74:3
	jl	.LBB2_4
.Ltmp159:
# BB#5:                                 # %ilog2.exit
	#DEBUG_VALUE: ilog2:nn <- %ECX
	addl	$2, %edx
.Ltmp160:
	.loc	8 52 17 is_stmt 1       # auxfnct.c:52:17
	cvtsi2sdl	%edx, %xmm0
	movsd	%xmm0, (%r13)
	#DEBUG_VALUE: CompExp:j <- 1
	#DEBUG_VALUE: CompExp:ln <- 1
	#DEBUG_VALUE: CompExp:ku <- 2
	movq	$0, 8(%r13)
.Ltmp161:
	.loc	8 55 17 discriminator 1 # auxfnct.c:55:17
	testl	%eax, %eax
	jns	.LBB2_6
	jmp	.LBB2_13
.Ltmp162:
.LBB2_14:                               # %ilog2.exit.thread55
	#DEBUG_VALUE: CompExp:n <- %EDI
	#DEBUG_VALUE: CompExp:nu <- %EDI
	#DEBUG_VALUE: ilog2:n <- %EDI
	#DEBUG_VALUE: CompExp:exponent <- %R13
	.loc	8 52 17                 # auxfnct.c:52:17
	movsd	.LCPI2_0(%rip), %xmm0   # xmm0 = mem[0],zero
	movupd	%xmm0, (%r13)
	#DEBUG_VALUE: CompExp:j <- 1
	#DEBUG_VALUE: CompExp:ln <- 1
	#DEBUG_VALUE: CompExp:ku <- 2
	movl	$1, %edx
.Ltmp163:
.LBB2_6:                                # %for.body.preheader
	movq	%rdx, 24(%rsp)          # 8-byte Spill
	movl	$1, %eax
	movl	$2, %r15d
	movl	$1, %ebx
	.p2align	4, 0x90
.LBB2_7:                                # %for.body
                                        # =>This Loop Header: Depth=1
                                        #     Child Loop BB2_11 Depth 2
.Ltmp164:
	#DEBUG_VALUE: CompExp:i <- 0
	movq	%rax, 32(%rsp)          # 8-byte Spill
.Ltmp165:
	.loc	8 57 5 discriminator 1  # auxfnct.c:57:5
	testl	%ebx, %ebx
	jle	.LBB2_12
.Ltmp166:
# BB#8:                                 # %for.body6.lr.ph
                                        #   in Loop: Header=BB2_7 Depth=1
	.loc	8 56 14                 # auxfnct.c:56:14
	xorps	%xmm0, %xmm0
	cvtsi2sdl	%ebx, %xmm0
	.loc	8 56 12 is_stmt 0       # auxfnct.c:56:12
	movsd	.LCPI2_1(%rip), %xmm1   # xmm1 = mem[0],zero
	divsd	%xmm0, %xmm1
.Ltmp167:
	#DEBUG_VALUE: CompExp:t <- %XMM1
	.loc	8 57 5 is_stmt 1 discriminator 1 # auxfnct.c:57:5
	movsd	%xmm1, 16(%rsp)         # 8-byte Spill
	testb	$1, %bl
	movl	$0, %ebp
	je	.LBB2_10
.Ltmp168:
# BB#9:                                 # %for.body6.prol
                                        #   in Loop: Header=BB2_7 Depth=1
	#DEBUG_VALUE: CompExp:t <- %XMM1
	.loc	8 58 14                 # auxfnct.c:58:14
	movapd	%xmm1, %xmm0
	mulsd	.LCPI2_2, %xmm0
.Ltmp169:
	#DEBUG_VALUE: CompExp:ti <- %XMM0
	.loc	8 59 20                 # auxfnct.c:59:20
	movsd	%xmm0, (%rsp)           # 8-byte Spill
	leal	-1(%r15), %eax
	.loc	8 59 7 is_stmt 0        # auxfnct.c:59:7
	movslq	%eax, %rbp
.Ltmp170:
	#DEBUG_VALUE: CompExp:ti <- [%RSP+0]
	movsd	%xmm1, 16(%rsp)         # 8-byte Spill
	.loc	8 59 26                 # auxfnct.c:59:26
	callq	cos
.Ltmp171:
	movsd	%xmm0, 8(%rsp)          # 8-byte Spill
	.loc	8 59 26 discriminator 1 # auxfnct.c:59:26
	movsd	(%rsp), %xmm0           # 8-byte Reload
                                        # xmm0 = mem[0],zero
	callq	sin
	movsd	16(%rsp), %xmm1         # 8-byte Reload
                                        # xmm1 = mem[0],zero
.Ltmp172:
	.loc	8 59 26 discriminator 2 # auxfnct.c:59:26
	shlq	$4, %rbp
	movsd	8(%rsp), %xmm2          # 8-byte Reload
                                        # xmm2 = mem[0],zero
	movsd	%xmm2, (%r13,%rbp)
	movsd	%xmm0, 8(%r13,%rbp)
	movl	$1, %ebp
.Ltmp173:
.LBB2_10:                               # %for.body6.lr.ph.split
                                        #   in Loop: Header=BB2_7 Depth=1
	.loc	8 57 5 is_stmt 1 discriminator 1 # auxfnct.c:57:5
	cmpl	$1, %ebx
	je	.LBB2_12
	.p2align	4, 0x90
.LBB2_11:                               # %for.body6
                                        #   Parent Loop BB2_7 Depth=1
                                        # =>  This Inner Loop Header: Depth=2
.Ltmp174:
	.loc	8 58 12                 # auxfnct.c:58:12
	xorps	%xmm0, %xmm0
	cvtsi2sdl	%ebp, %xmm0
	.loc	8 58 14 is_stmt 0       # auxfnct.c:58:14
	mulsd	%xmm1, %xmm0
.Ltmp175:
	#DEBUG_VALUE: CompExp:ti <- %XMM0
	.loc	8 59 7 is_stmt 1        # auxfnct.c:59:7
	movsd	%xmm0, (%rsp)           # 8-byte Spill
	leal	(%r15,%rbp), %r14d
	leal	-1(%r15,%rbp), %eax
	movslq	%eax, %r12
.Ltmp176:
	#DEBUG_VALUE: CompExp:ti <- [%RSP+0]
	.loc	8 59 26 is_stmt 0       # auxfnct.c:59:26
	callq	cos
.Ltmp177:
	movsd	%xmm0, 8(%rsp)          # 8-byte Spill
	.loc	8 59 26 discriminator 1 # auxfnct.c:59:26
	movsd	(%rsp), %xmm0           # 8-byte Reload
                                        # xmm0 = mem[0],zero
	callq	sin
	.loc	8 59 26 discriminator 2 # auxfnct.c:59:26
	shlq	$4, %r12
	movsd	8(%rsp), %xmm1          # 8-byte Reload
                                        # xmm1 = mem[0],zero
	movsd	%xmm1, (%r13,%r12)
	movsd	%xmm0, 8(%r13,%r12)
.Ltmp178:
	.loc	8 57 5 is_stmt 1 discriminator 1 # auxfnct.c:57:5
	leal	1(%rbp), %eax
.Ltmp179:
	.loc	8 58 12                 # auxfnct.c:58:12
	xorps	%xmm0, %xmm0
	cvtsi2sdl	%eax, %xmm0
	.loc	8 58 14 is_stmt 0       # auxfnct.c:58:14
	mulsd	16(%rsp), %xmm0         # 8-byte Folded Reload
	movsd	%xmm0, (%rsp)           # 8-byte Spill
	movl	%ebx, %r12d
	.loc	8 59 7 is_stmt 1        # auxfnct.c:59:7
	movslq	%r14d, %rbx
	.loc	8 59 26 is_stmt 0       # auxfnct.c:59:26
	callq	cos
	movsd	%xmm0, 8(%rsp)          # 8-byte Spill
	.loc	8 59 26 discriminator 1 # auxfnct.c:59:26
	movsd	(%rsp), %xmm0           # 8-byte Reload
                                        # xmm0 = mem[0],zero
	callq	sin
	movsd	16(%rsp), %xmm1         # 8-byte Reload
                                        # xmm1 = mem[0],zero
	.loc	8 59 26 discriminator 2 # auxfnct.c:59:26
	shlq	$4, %rbx
	movsd	8(%rsp), %xmm2          # 8-byte Reload
                                        # xmm2 = mem[0],zero
	movsd	%xmm2, (%r13,%rbx)
	movsd	%xmm0, 8(%r13,%rbx)
	movl	%r12d, %ebx
.Ltmp180:
	.loc	8 57 5 is_stmt 1 discriminator 1 # auxfnct.c:57:5
	addq	$2, %rbp
	cmpl	%ebx, %ebp
	jne	.LBB2_11
.Ltmp181:
.LBB2_12:                               # %for.end
                                        #   in Loop: Header=BB2_7 Depth=1
	.loc	8 61 13                 # auxfnct.c:61:13
	addl	%ebx, %r15d
.Ltmp182:
	#DEBUG_VALUE: CompExp:ku <- %R15D
	.loc	8 62 12                 # auxfnct.c:62:12
	addl	%ebx, %ebx
.Ltmp183:
	#DEBUG_VALUE: CompExp:ln <- %EBX
	movq	24(%rsp), %rax          # 8-byte Reload
	movq	32(%rsp), %rcx          # 8-byte Reload
.Ltmp184:
	.loc	8 55 3 discriminator 1  # auxfnct.c:55:3
	cmpl	%eax, %ecx
	.loc	8 55 24 is_stmt 0 discriminator 2 # auxfnct.c:55:24
	leal	1(%rcx), %eax
.Ltmp185:
	#DEBUG_VALUE: CompExp:j <- %EAX
	jne	.LBB2_7
.Ltmp186:
.LBB2_13:                               # %for.end19
	.loc	8 64 1 is_stmt 1        # auxfnct.c:64:1
	addq	$40, %rsp
	popq	%rbx
	popq	%r12
	popq	%r13
	popq	%r14
	popq	%r15
	popq	%rbp
	retq
.Ltmp187:
.Lfunc_end2:
	.size	CompExp, .Lfunc_end2-CompExp
	.cfi_endproc

	.globl	fftXYZ
	.p2align	4, 0x90
	.type	fftXYZ,@function
fftXYZ:                                 # @fftXYZ
.Lfunc_begin3:
	.loc	3 143 0                 # fft3d.c:143:0
	.cfi_startproc
# BB#0:                                 # %entry
	pushq	%rbp
.Ltmp188:
	.cfi_def_cfa_offset 16
	pushq	%r15
.Ltmp189:
	.cfi_def_cfa_offset 24
	pushq	%r14
.Ltmp190:
	.cfi_def_cfa_offset 32
	pushq	%r13
.Ltmp191:
	.cfi_def_cfa_offset 40
	pushq	%r12
.Ltmp192:
	.cfi_def_cfa_offset 48
	pushq	%rbx
.Ltmp193:
	.cfi_def_cfa_offset 56
	subq	$248, %rsp
.Ltmp194:
	.cfi_def_cfa_offset 304
.Ltmp195:
	.cfi_offset %rbx, -56
.Ltmp196:
	.cfi_offset %r12, -48
.Ltmp197:
	.cfi_offset %r13, -40
.Ltmp198:
	.cfi_offset %r14, -32
.Ltmp199:
	.cfi_offset %r15, -24
.Ltmp200:
	.cfi_offset %rbp, -16
	#DEBUG_VALUE: fftXYZ:sign <- %EDI
	#DEBUG_VALUE: fftXYZ:n1 <- %ESI
	#DEBUG_VALUE: fftXYZ:n2 <- %EDX
	#DEBUG_VALUE: fftXYZ:n3 <- %ECX
	#DEBUG_VALUE: fftXYZ:x <- %R8
	#DEBUG_VALUE: fftXYZ:xout <- %R9
	movq	%r9, 208(%rsp)          # 8-byte Spill
.Ltmp201:
	#DEBUG_VALUE: fftXYZ:xout <- [%RSP+208]
	movq	%r8, 104(%rsp)          # 8-byte Spill
.Ltmp202:
	#DEBUG_VALUE: fftXYZ:x <- [%RSP+104]
	movl	%ecx, %r14d
.Ltmp203:
	#DEBUG_VALUE: fftXYZ:n3 <- %R14D
	movl	%edx, %ebp
.Ltmp204:
	#DEBUG_VALUE: fftXYZ:n2 <- %EBP
	movq	%rbp, 80(%rsp)          # 8-byte Spill
	movl	%esi, %r13d
.Ltmp205:
	#DEBUG_VALUE: fftXYZ:n1 <- %R13D
	movq	%r13, 32(%rsp)          # 8-byte Spill
	movl	%edi, %r12d
.Ltmp206:
	#DEBUG_VALUE: fftXYZ:sign <- %R12D
	movq	320(%rsp), %rax
	#DEBUG_VALUE: fftXYZ:exp3 <- [%RSP+144]
	movq	%rax, 144(%rsp)         # 8-byte Spill
	movq	312(%rsp), %rbx
	#DEBUG_VALUE: fftXYZ:exp2 <- %RBX
	movq	304(%rsp), %rax
	#DEBUG_VALUE: fftXYZ:exp1 <- [%RSP+136]
	movq	%rax, 136(%rsp)         # 8-byte Spill
	movl	%ebp, %eax
.Ltmp207:
	.loc	3 141 34 prologue_end   # fft3d.c:141:34
	movq	%rax, 112(%rsp)         # 8-byte Spill
	leal	1(%r13), %eax
.Ltmp208:
	.loc	3 149 7                 # fft3d.c:149:7
	movq	%rax, 56(%rsp)          # 8-byte Spill
	cmpl	$0, timers_enabled(%rip)
	je	.LBB3_2
.Ltmp209:
# BB#1:                                 # %if.then
	#DEBUG_VALUE: fftXYZ:exp1 <- [%RSP+136]
	#DEBUG_VALUE: fftXYZ:exp2 <- %RBX
	#DEBUG_VALUE: fftXYZ:exp3 <- [%RSP+144]
	#DEBUG_VALUE: fftXYZ:sign <- %R12D
	#DEBUG_VALUE: fftXYZ:n1 <- %R13D
	#DEBUG_VALUE: fftXYZ:n2 <- %EBP
	#DEBUG_VALUE: fftXYZ:n3 <- %R14D
	#DEBUG_VALUE: fftXYZ:x <- [%RSP+104]
	#DEBUG_VALUE: fftXYZ:xout <- [%RSP+208]
	.loc	3 149 23 is_stmt 0 discriminator 1 # fft3d.c:149:23
	movl	$3, %edi
	callq	timer_start
.Ltmp210:
.LBB3_2:                                # %if.end
	#DEBUG_VALUE: fftXYZ:exp2 <- %RBX
	#DEBUG_VALUE: fftXYZ:sign <- %R12D
	#DEBUG_VALUE: fftXYZ:n1 <- %R13D
	#DEBUG_VALUE: fftXYZ:n2 <- %EBP
	#DEBUG_VALUE: fftXYZ:n3 <- %R14D
	movq	%rbx, 216(%rsp)         # 8-byte Spill
	movl	%r12d, 16(%rsp)         # 4-byte Spill
	.loc	3 151 24 is_stmt 1      # fft3d.c:151:24
	movl	$8192, %eax             # imm = 0x2000
	xorl	%edx, %edx
	idivl	%r13d
.Ltmp211:
	.loc	3 152 16                # fft3d.c:152:16
	cmpl	$33, %eax
	movl	$32, %ebx
.Ltmp212:
	.loc	3 152 7 is_stmt 0       # fft3d.c:152:7
	cmovll	%eax, %ebx
.Ltmp213:
	.loc	3 152 38 discriminator 1 # fft3d.c:152:38
	movl	%ebx, fftblock(%rip)
.Ltmp214:
	.loc	3 154 9 is_stmt 1       # fft3d.c:154:9
	movl	%r13d, %edi
	callq	ilog2
	movl	%eax, 52(%rsp)          # 4-byte Spill
.Ltmp215:
	#DEBUG_VALUE: fftXYZ:log <- [%RSP+52]
	.loc	3 155 7                 # fft3d.c:155:7
	cmpl	$0, timers_enabled(%rip)
	je	.LBB3_4
.Ltmp216:
# BB#3:                                 # %if.then7
	#DEBUG_VALUE: fftXYZ:n3 <- %R14D
	#DEBUG_VALUE: fftXYZ:n2 <- %EBP
	#DEBUG_VALUE: fftXYZ:n1 <- %R13D
	#DEBUG_VALUE: fftXYZ:sign <- %R12D
	#DEBUG_VALUE: fftXYZ:log <- [%RSP+52]
	.loc	3 155 23 is_stmt 0 discriminator 1 # fft3d.c:155:23
	movl	$7, %edi
	callq	timer_start
.Ltmp217:
.LBB3_4:                                # %for.cond.preheader
	#DEBUG_VALUE: fftXYZ:n3 <- %R14D
	#DEBUG_VALUE: fftXYZ:n2 <- %EBP
	#DEBUG_VALUE: fftXYZ:n1 <- %R13D
	#DEBUG_VALUE: fftXYZ:sign <- %R12D
	.loc	3 156 3 is_stmt 1 discriminator 1 # fft3d.c:156:3
	movl	%r14d, 72(%rsp)         # 4-byte Spill
	testl	%r14d, %r14d
	jle	.LBB3_32
.Ltmp218:
# BB#5:                                 # %for.cond10.preheader.lr.ph
	#DEBUG_VALUE: fftXYZ:sign <- %R12D
	#DEBUG_VALUE: fftXYZ:n1 <- %R13D
	#DEBUG_VALUE: fftXYZ:n2 <- %EBP
	#DEBUG_VALUE: fftXYZ:n3 <- %R14D
	.loc	3 153 19                # fft3d.c:153:19
	incl	%ebx
.Ltmp219:
	.loc	3 159 30 discriminator 1 # fft3d.c:159:30
	movl	%ebx, 76(%rsp)          # 4-byte Spill
	leal	-1(%rbp), %eax
.Ltmp220:
	#DEBUG_VALUE: fftXYZ:ble <- [%RSP+132]
	.loc	3 156 3 discriminator 1 # fft3d.c:156:3
	movl	%eax, 132(%rsp)         # 4-byte Spill
	movslq	%ebx, %r15
	movq	%r15, 184(%rsp)         # 8-byte Spill
	leal	-1(%r13), %eax
.Ltmp221:
	.loc	3 162 9 discriminator 1 # fft3d.c:162:9
	movl	%eax, 96(%rsp)          # 4-byte Spill
	movl	%r13d, %r14d
.Ltmp222:
	andl	$3, %r14d
.Ltmp223:
	.loc	3 167 7 discriminator 1 # fft3d.c:167:7
	testl	%r13d, %r13d
	setle	23(%rsp)                # 1-byte Folded Spill
.Ltmp224:
	.loc	3 156 3 discriminator 1 # fft3d.c:156:3
	movq	112(%rsp), %rax         # 8-byte Reload
	movq	%rax, %rdx
	movq	56(%rsp), %rax          # 8-byte Reload
	imulq	%rax, %rdx
	shlq	$4, %rdx
	movq	%rdx, 224(%rsp)         # 8-byte Spill
	shlq	$4, %rax
	movq	%rax, 40(%rsp)          # 8-byte Spill
	movq	%r15, %r12
.Ltmp225:
	shlq	$4, %r12
	movq	104(%rsp), %rax         # 8-byte Reload
	leaq	48(%rax), %rdx
	movq	%rdx, 176(%rsp)         # 8-byte Spill
	shlq	$6, %r15
	xorl	%ecx, %ecx
	movq	%rcx, 200(%rsp)         # 8-byte Spill
	movq	%rax, 160(%rsp)         # 8-byte Spill
.Ltmp226:
	.p2align	4, 0x90
.LBB3_6:                                # %for.cond10.preheader
                                        # =>This Loop Header: Depth=1
                                        #     Child Loop BB3_8 Depth 2
                                        #       Child Loop BB3_12 Depth 3
                                        #         Child Loop BB3_15 Depth 4
                                        #         Child Loop BB3_18 Depth 4
                                        #       Child Loop BB3_22 Depth 3
                                        #         Child Loop BB3_25 Depth 4
                                        #         Child Loop BB3_28 Depth 4
	.loc	3 157 5 discriminator 1 # fft3d.c:157:5
	testl	%ebp, %ebp
	jle	.LBB3_31
# BB#7:                                 # %for.body12.lr.ph
                                        #   in Loop: Header=BB3_6 Depth=1
	xorl	%edi, %edi
.Ltmp227:
	.loc	3 158 19                # fft3d.c:158:19
	movl	fftblock(%rip), %eax
	xorl	%ecx, %ecx
	.p2align	4, 0x90
.LBB3_8:                                # %for.body12
                                        #   Parent Loop BB3_6 Depth=1
                                        # =>  This Loop Header: Depth=2
                                        #       Child Loop BB3_12 Depth 3
                                        #         Child Loop BB3_15 Depth 4
                                        #         Child Loop BB3_18 Depth 4
                                        #       Child Loop BB3_22 Depth 3
                                        #         Child Loop BB3_25 Depth 4
                                        #         Child Loop BB3_28 Depth 4
	.loc	3 158 28 is_stmt 0      # fft3d.c:158:28
	leal	-1(%rcx,%rax), %eax
.Ltmp228:
	#DEBUG_VALUE: fftXYZ:ble <- %EAX
	.loc	3 159 15 is_stmt 1      # fft3d.c:159:15
	cmpl	%ebp, %eax
.Ltmp229:
	.loc	3 159 11 is_stmt 0      # fft3d.c:159:11
	cmovgl	132(%rsp), %eax         # 4-byte Folded Reload
.Ltmp230:
	.loc	3 160 23 is_stmt 1      # fft3d.c:160:23
	leal	1(%rdi,%rax), %edx
.Ltmp231:
	#DEBUG_VALUE: fftXYZ:len <- %EDX
	.loc	3 161 7 discriminator 1 # fft3d.c:161:7
	cmpl	%eax, %ecx
	jg	.LBB3_9
.Ltmp232:
# BB#10:                                # %for.cond23.preheader.lr.ph
                                        #   in Loop: Header=BB3_8 Depth=2
	#DEBUG_VALUE: fftXYZ:len <- %EDX
	testl	%r13d, %r13d
	jle	.LBB3_9
.Ltmp233:
# BB#11:                                # %for.body25.lr.ph.us.preheader
                                        #   in Loop: Header=BB3_8 Depth=2
	#DEBUG_VALUE: fftXYZ:len <- %EDX
	movl	%edx, 196(%rsp)         # 4-byte Spill
.Ltmp234:
	.loc	3 163 18                # fft3d.c:163:18
	movslq	%ecx, %rbp
	movq	%rbp, 168(%rsp)         # 8-byte Spill
	movq	%rax, 232(%rsp)         # 8-byte Spill
	cltq
	movq	%rax, 64(%rsp)          # 8-byte Spill
	movq	56(%rsp), %rsi          # 8-byte Reload
	imulq	%rbp, %rsi
	shlq	$4, %rsi
	movq	%rsi, 88(%rsp)          # 8-byte Spill
	movq	160(%rsp), %rax         # 8-byte Reload
	leaq	(%rax,%rsi), %rdx
.Ltmp235:
	addl	%ecx, %edi
	movq	%rdi, 240(%rsp)         # 8-byte Spill
	movq	%rcx, 152(%rsp)         # 8-byte Spill
	movq	40(%rsp), %r13          # 8-byte Reload
	imulq	%rbp, %r13
	movq	176(%rsp), %rax         # 8-byte Reload
	movq	%rax, 120(%rsp)         # 8-byte Spill
	movl	%edi, %r9d
	.p2align	4, 0x90
.LBB3_12:                               # %for.body25.lr.ph.us
                                        #   Parent Loop BB3_6 Depth=1
                                        #     Parent Loop BB3_8 Depth=2
                                        # =>    This Loop Header: Depth=3
                                        #         Child Loop BB3_15 Depth 4
                                        #         Child Loop BB3_18 Depth 4
	movslq	%r9d, %r10
	testl	%r14d, %r14d
	je	.LBB3_13
# BB#14:                                #   in Loop: Header=BB3_12 Depth=3
	movq	%r10, %rax
	shlq	$4, %rax
	leaq	plane(%rax), %rcx
	movq	%rdx, 24(%rsp)          # 8-byte Spill
	xorl	%eax, %eax
	.p2align	4, 0x90
.LBB3_15:                               # %for.body25.us.prol
                                        #   Parent Loop BB3_6 Depth=1
                                        #     Parent Loop BB3_8 Depth=2
                                        #       Parent Loop BB3_12 Depth=3
                                        # =>      This Inner Loop Header: Depth=4
	.loc	3 163 33 is_stmt 0      # fft3d.c:163:33
	movups	(%rdx), %xmm0
	movups	%xmm0, (%rcx)
.Ltmp236:
	.loc	3 162 9 is_stmt 1 discriminator 1 # fft3d.c:162:9
	incq	%rax
	addq	$16, %rdx
	addq	%r12, %rcx
	cmpl	%eax, %r14d
	jne	.LBB3_15
	jmp	.LBB3_16
	.p2align	4, 0x90
.LBB3_13:                               #   in Loop: Header=BB3_12 Depth=3
	movq	%rdx, 24(%rsp)          # 8-byte Spill
	xorl	%eax, %eax
.LBB3_16:                               # %for.body25.lr.ph.us.split
                                        #   in Loop: Header=BB3_12 Depth=3
	cmpl	$3, 96(%rsp)            # 4-byte Folded Reload
	movq	%r15, %r11
	jb	.LBB3_19
# BB#17:                                # %for.body25.lr.ph.us.split.split
                                        #   in Loop: Header=BB3_12 Depth=3
	movq	32(%rsp), %rcx          # 8-byte Reload
	subl	%eax, %ecx
	movq	%rax, %rsi
	shlq	$4, %rsi
	leaq	3(%rax), %rdx
	movq	184(%rsp), %rdi         # 8-byte Reload
	imulq	%rdi, %rdx
	addq	%r10, %rdx
	shlq	$4, %rdx
	leaq	plane(%rdx), %r8
	leaq	2(%rax), %rdx
	imulq	%rdi, %rdx
	addq	%r10, %rdx
	shlq	$4, %rdx
	leaq	plane(%rdx), %rdx
	movq	%rdi, %rbx
	imulq	%rax, %rbx
	addq	%r10, %rbx
	shlq	$4, %rbx
	leaq	plane(%rbx), %r15
	incq	%rax
	imulq	%rdi, %rax
	addq	%r10, %rax
	shlq	$4, %rax
	leaq	plane(%rax), %rax
	xorl	%ebx, %ebx
	movq	120(%rsp), %rdi         # 8-byte Reload
	.p2align	4, 0x90
.LBB3_18:                               # %for.body25.us
                                        #   Parent Loop BB3_6 Depth=1
                                        #     Parent Loop BB3_8 Depth=2
                                        #       Parent Loop BB3_12 Depth=3
                                        # =>      This Inner Loop Header: Depth=4
.Ltmp237:
	.loc	3 163 33                # fft3d.c:163:33
	leaq	(%rdi,%r13), %r10
	movups	-48(%rsi,%r10), %xmm0
	movups	%xmm0, (%r15,%rbx)
	movups	-32(%rsi,%r10), %xmm0
	movups	%xmm0, (%rax,%rbx)
	movups	-16(%rsi,%r10), %xmm0
	movups	%xmm0, (%rdx,%rbx)
	movups	(%rsi,%r10), %xmm0
	movups	%xmm0, (%r8,%rbx)
.Ltmp238:
	.loc	3 162 9 discriminator 1 # fft3d.c:162:9
	addq	$64, %rdi
	addq	%r11, %rbx
	addl	$-4, %ecx
	jne	.LBB3_18
.Ltmp239:
.LBB3_19:                               # %for.cond23.for.inc35_crit_edge.us
                                        #   in Loop: Header=BB3_12 Depth=3
	movq	%r11, %r15
	movq	40(%rsp), %rax          # 8-byte Reload
	movq	24(%rsp), %rdx          # 8-byte Reload
	.loc	3 161 7 discriminator 1 # fft3d.c:161:7
	addq	%rax, %rdx
	incl	%r9d
	addq	%rax, 120(%rsp)         # 8-byte Folded Spill
	.loc	3 161 23 is_stmt 0 discriminator 1 # fft3d.c:161:23
	cmpq	64(%rsp), %rbp          # 8-byte Folded Reload
	.loc	3 161 7 discriminator 1 # fft3d.c:161:7
	leaq	1(%rbp), %rbp
	jl	.LBB3_12
.Ltmp240:
# BB#20:                                # %for.end37
                                        #   in Loop: Header=BB3_8 Depth=2
	movq	152(%rsp), %rax         # 8-byte Reload
	movq	232(%rsp), %rcx         # 8-byte Reload
	cmpl	%ecx, %eax
	setg	%bl
	.loc	3 166 7 is_stmt 1       # fft3d.c:166:7
	movq	136(%rsp), %rax         # 8-byte Reload
	movq	%rax, (%rsp)
	movl	$plane, %r9d
	movl	16(%rsp), %edi          # 4-byte Reload
	movl	52(%rsp), %esi          # 4-byte Reload
	movl	196(%rsp), %edx         # 4-byte Reload
	movq	32(%rsp), %rcx          # 8-byte Reload
	movl	76(%rsp), %r8d          # 4-byte Reload
	callq	Swarztrauber
.Ltmp241:
	.loc	3 167 7 discriminator 1 # fft3d.c:167:7
	orb	23(%rsp), %bl           # 1-byte Folded Reload
	movq	240(%rsp), %r11         # 8-byte Reload
	movq	88(%rsp), %rdx          # 8-byte Reload
	jne	.LBB3_30
# BB#21:                                # %for.body43.lr.ph.us.preheader
                                        #   in Loop: Header=BB3_8 Depth=2
.Ltmp242:
	.loc	3 169 11                # fft3d.c:169:11
	addq	160(%rsp), %rdx         # 8-byte Folded Reload
	.p2align	4, 0x90
.LBB3_22:                               # %for.body43.lr.ph.us
                                        #   Parent Loop BB3_6 Depth=1
                                        #     Parent Loop BB3_8 Depth=2
                                        # =>    This Loop Header: Depth=3
                                        #         Child Loop BB3_25 Depth 4
                                        #         Child Loop BB3_28 Depth 4
	movslq	%r11d, %r8
	shlq	$4, %r8
	testl	%r14d, %r14d
	je	.LBB3_23
# BB#24:                                #   in Loop: Header=BB3_22 Depth=3
	leaq	plane(%r8), %rcx
	movq	%rdx, 88(%rsp)          # 8-byte Spill
	xorl	%eax, %eax
	.p2align	4, 0x90
.LBB3_25:                               # %for.body43.us.prol
                                        #   Parent Loop BB3_6 Depth=1
                                        #     Parent Loop BB3_8 Depth=2
                                        #       Parent Loop BB3_22 Depth=3
                                        # =>      This Inner Loop Header: Depth=4
	.loc	3 169 24 is_stmt 0      # fft3d.c:169:24
	movups	(%rcx), %xmm0
	movups	%xmm0, (%rdx)
.Ltmp243:
	.loc	3 168 9 is_stmt 1 discriminator 1 # fft3d.c:168:9
	incq	%rax
	addq	%r12, %rcx
	addq	$16, %rdx
	cmpl	%eax, %r14d
	jne	.LBB3_25
	jmp	.LBB3_26
	.p2align	4, 0x90
.LBB3_23:                               #   in Loop: Header=BB3_22 Depth=3
	movq	%rdx, 88(%rsp)          # 8-byte Spill
	xorl	%eax, %eax
.LBB3_26:                               # %for.body43.lr.ph.us.split
                                        #   in Loop: Header=BB3_22 Depth=3
	cmpl	$3, 96(%rsp)            # 4-byte Folded Reload
	jb	.LBB3_29
# BB#27:                                # %for.body43.lr.ph.us.split.split
                                        #   in Loop: Header=BB3_22 Depth=3
	movq	32(%rsp), %rcx          # 8-byte Reload
	movl	%ecx, %edx
	subl	%eax, %edx
	leaq	3(%rax), %r10
	imulq	%r12, %r10
	addq	%r8, %r10
	movq	%rax, %rdi
	shlq	$4, %rdi
	movq	176(%rsp), %rcx         # 8-byte Reload
	leaq	(%rcx,%rdi), %r9
	leaq	2(%rax), %rcx
	imulq	%r12, %rcx
	addq	%r8, %rcx
	addq	160(%rsp), %rdi         # 8-byte Folded Reload
	movq	%r12, %rbx
	imulq	%rax, %rbx
	addq	%r8, %rbx
	incq	%rax
	imulq	%r12, %rax
	addq	%r8, %rax
	movq	%r13, %rbp
	movl	$plane, %esi
	.p2align	4, 0x90
.LBB3_28:                               # %for.body43.us
                                        #   Parent Loop BB3_6 Depth=1
                                        #     Parent Loop BB3_8 Depth=2
                                        #       Parent Loop BB3_22 Depth=3
                                        # =>      This Inner Loop Header: Depth=4
.Ltmp244:
	.loc	3 169 24                # fft3d.c:169:24
	movups	(%rsi,%rbx), %xmm0
	movups	%xmm0, (%rdi,%rbp)
	movups	(%rsi,%rax), %xmm0
	movups	%xmm0, 16(%rdi,%rbp)
	movups	(%rsi,%rcx), %xmm0
	movups	%xmm0, 32(%rdi,%rbp)
	movups	(%rsi,%r10), %xmm0
	movups	%xmm0, (%r9,%rbp)
.Ltmp245:
	.loc	3 168 9 discriminator 1 # fft3d.c:168:9
	addq	%r15, %rsi
	addq	$64, %rbp
	addl	$-4, %edx
	jne	.LBB3_28
.Ltmp246:
.LBB3_29:                               # %for.cond41.for.inc58_crit_edge.us
                                        #   in Loop: Header=BB3_22 Depth=3
	.loc	3 167 7 discriminator 1 # fft3d.c:167:7
	incl	%r11d
	movq	40(%rsp), %rax          # 8-byte Reload
	movq	88(%rsp), %rdx          # 8-byte Reload
	addq	%rax, %rdx
	addq	%rax, %r13
	movq	168(%rsp), %rax         # 8-byte Reload
	.loc	3 167 23 is_stmt 0 discriminator 1 # fft3d.c:167:23
	cmpq	64(%rsp), %rax          # 8-byte Folded Reload
	.loc	3 167 7 discriminator 1 # fft3d.c:167:7
	leaq	1(%rax), %rax
	movq	%rax, 168(%rsp)         # 8-byte Spill
	jl	.LBB3_22
	jmp	.LBB3_30
.Ltmp247:
	.p2align	4, 0x90
.LBB3_9:                                # %for.end37.thread
                                        #   in Loop: Header=BB3_8 Depth=2
	#DEBUG_VALUE: fftXYZ:len <- %EDX
	movq	%rcx, 152(%rsp)         # 8-byte Spill
	.loc	3 166 7 is_stmt 1       # fft3d.c:166:7
	movq	136(%rsp), %rax         # 8-byte Reload
	movq	%rax, (%rsp)
	movl	$plane, %r9d
	movl	16(%rsp), %edi          # 4-byte Reload
	movl	52(%rsp), %esi          # 4-byte Reload
	movl	%r13d, %ecx
	movl	76(%rsp), %r8d          # 4-byte Reload
	callq	Swarztrauber
.Ltmp248:
.LBB3_30:                               # %for.inc61
                                        #   in Loop: Header=BB3_8 Depth=2
	.loc	3 157 36 discriminator 2 # fft3d.c:157:36
	movl	fftblock(%rip), %eax
	movq	152(%rsp), %rcx         # 8-byte Reload
	.loc	3 157 33 is_stmt 0 discriminator 2 # fft3d.c:157:33
	addl	%eax, %ecx
.Ltmp249:
	#DEBUG_VALUE: fftXYZ:bls <- %ECX
	#DEBUG_VALUE: fftXYZ:j <- %ECX
	movl	%ecx, %edi
	negl	%edi
	movq	80(%rsp), %rbp          # 8-byte Reload
	.loc	3 157 23 discriminator 1 # fft3d.c:157:23
	cmpl	%ebp, %ecx
	movq	32(%rsp), %r13          # 8-byte Reload
	jl	.LBB3_8
.Ltmp250:
.LBB3_31:                               # %for.inc64
                                        #   in Loop: Header=BB3_6 Depth=1
	movq	200(%rsp), %rcx         # 8-byte Reload
	.loc	3 156 3 is_stmt 1 discriminator 1 # fft3d.c:156:3
	incq	%rcx
	movq	%rcx, 200(%rsp)         # 8-byte Spill
	movq	224(%rsp), %rax         # 8-byte Reload
	addq	%rax, 160(%rsp)         # 8-byte Folded Spill
	addq	%rax, 176(%rsp)         # 8-byte Folded Spill
	cmpl	72(%rsp), %ecx          # 4-byte Folded Reload
	jne	.LBB3_6
.Ltmp251:
.LBB3_32:                               # %for.end66
	movq	%r13, 32(%rsp)          # 8-byte Spill
	movl	72(%rsp), %ebx          # 4-byte Reload
.Ltmp252:
	.loc	3 174 7                 # fft3d.c:174:7
	cmpl	$0, timers_enabled(%rip)
	je	.LBB3_34
# BB#33:                                # %if.then68
	.loc	3 174 23 is_stmt 0 discriminator 1 # fft3d.c:174:23
	movl	$7, %edi
	callq	timer_stop
.Ltmp253:
.LBB3_34:                               # %if.end69
	.loc	3 176 24 is_stmt 1      # fft3d.c:176:24
	movl	$8192, %eax             # imm = 0x2000
	xorl	%edx, %edx
	idivl	%ebp
.Ltmp254:
	.loc	3 177 16                # fft3d.c:177:16
	cmpl	$33, %eax
	movl	$32, %ecx
.Ltmp255:
	.loc	3 177 7 is_stmt 0       # fft3d.c:177:7
	cmovll	%eax, %ecx
.Ltmp256:
	.loc	3 177 38 discriminator 1 # fft3d.c:177:38
	movl	%ecx, fftblock(%rip)
.Ltmp257:
	.loc	3 179 9 is_stmt 1       # fft3d.c:179:9
	movl	%ebp, %edi
	movq	%rbp, 80(%rsp)          # 8-byte Spill
	callq	ilog2
	movl	%eax, 24(%rsp)          # 4-byte Spill
.Ltmp258:
	#DEBUG_VALUE: fftXYZ:log <- [%RSP+24]
	.loc	3 180 7                 # fft3d.c:180:7
	cmpl	$0, timers_enabled(%rip)
	je	.LBB3_36
.Ltmp259:
# BB#35:                                # %if.then77
	#DEBUG_VALUE: fftXYZ:log <- [%RSP+24]
	.loc	3 180 23 is_stmt 0 discriminator 1 # fft3d.c:180:23
	movl	$8, %edi
	callq	timer_start
.Ltmp260:
.LBB3_36:                               # %for.cond79.preheader
	movl	%ebx, %ecx
.Ltmp261:
	.loc	3 181 3 is_stmt 1 discriminator 1 # fft3d.c:181:3
	testl	%ecx, %ecx
	jle	.LBB3_42
# BB#37:                                # %for.cond82.preheader.lr.ph
.Ltmp262:
	.loc	3 182 5 discriminator 1 # fft3d.c:182:5
	movq	32(%rsp), %rax          # 8-byte Reload
	testl	%eax, %eax
	jle	.LBB3_42
# BB#38:                                # %for.body84.lr.ph.us.preheader
.Ltmp263:
	.loc	3 184 30 discriminator 1 # fft3d.c:184:30
	movq	32(%rsp), %rax          # 8-byte Reload
	leal	-1(%rax), %r14d
.Ltmp264:
	#DEBUG_VALUE: fftXYZ:ble <- %R14D
	.loc	3 186 47                # fft3d.c:186:47
	movq	112(%rsp), %rax         # 8-byte Reload
	imulq	56(%rsp), %rax          # 8-byte Folded Reload
	movq	%rax, 64(%rsp)          # 8-byte Spill
	.loc	3 183 19                # fft3d.c:183:19
	movl	fftblock(%rip), %eax
	xorl	%esi, %esi
	movq	32(%rsp), %r12          # 8-byte Reload
	movq	56(%rsp), %r13          # 8-byte Reload
	movq	216(%rsp), %r15         # 8-byte Reload
.Ltmp265:
	.p2align	4, 0x90
.LBB3_39:                               # %for.body84.lr.ph.us
                                        # =>This Loop Header: Depth=1
                                        #     Child Loop BB3_40 Depth 2
	.loc	3 186 47                # fft3d.c:186:47
	movq	%rsi, 40(%rsp)          # 8-byte Spill
	movq	64(%rsp), %rbp          # 8-byte Reload
	imulq	%rsi, %rbp
	shlq	$4, %rbp
	addq	104(%rsp), %rbp         # 8-byte Folded Reload
	xorl	%ebx, %ebx
	.p2align	4, 0x90
.LBB3_40:                               # %for.body84.us
                                        #   Parent Loop BB3_39 Depth=1
                                        # =>  This Inner Loop Header: Depth=2
	.loc	3 183 28                # fft3d.c:183:28
	leal	-1(%rbx,%rax), %eax
.Ltmp266:
	#DEBUG_VALUE: fftXYZ:ble <- %EAX
	.loc	3 184 15                # fft3d.c:184:15
	cmpl	%r12d, %eax
.Ltmp267:
	.loc	3 184 11 is_stmt 0      # fft3d.c:184:11
	cmovgl	%r14d, %eax
.Ltmp268:
	.loc	3 185 17 is_stmt 1      # fft3d.c:185:17
	movl	$1, %edx
	subl	%ebx, %edx
	.loc	3 185 23 is_stmt 0      # fft3d.c:185:23
	addl	%eax, %edx
.Ltmp269:
	#DEBUG_VALUE: fftXYZ:len <- %EDX
	.loc	3 186 47 is_stmt 1      # fft3d.c:186:47
	movslq	%ebx, %rbx
	movq	%rbx, %r9
	shlq	$4, %r9
	addq	%rbp, %r9
	.loc	3 186 7 is_stmt 0       # fft3d.c:186:7
	movq	%r15, (%rsp)
	movl	16(%rsp), %edi          # 4-byte Reload
	movl	24(%rsp), %esi          # 4-byte Reload
	movq	80(%rsp), %rcx          # 8-byte Reload
	movl	%r13d, %r8d
	callq	Swarztrauber
.Ltmp270:
	.loc	3 182 36 is_stmt 1 discriminator 2 # fft3d.c:182:36
	movl	fftblock(%rip), %eax
	.loc	3 182 33 is_stmt 0 discriminator 2 # fft3d.c:182:33
	addl	%eax, %ebx
.Ltmp271:
	#DEBUG_VALUE: fftXYZ:bls <- %EBX
	.loc	3 182 23 discriminator 1 # fft3d.c:182:23
	cmpl	%r12d, %ebx
	.loc	3 182 5 discriminator 1 # fft3d.c:182:5
	jl	.LBB3_40
.Ltmp272:
# BB#41:                                # %for.cond82.for.inc102_crit_edge.us
                                        #   in Loop: Header=BB3_39 Depth=1
	#DEBUG_VALUE: fftXYZ:bls <- %EBX
	#DEBUG_VALUE: fftXYZ:len <- %EDX
	movq	80(%rsp), %rbp          # 8-byte Reload
	movq	40(%rsp), %rsi          # 8-byte Reload
	.loc	3 181 3 is_stmt 1 discriminator 1 # fft3d.c:181:3
	incq	%rsi
	movl	72(%rsp), %ecx          # 4-byte Reload
	cmpl	%ecx, %esi
	jne	.LBB3_39
.Ltmp273:
.LBB3_42:                               # %for.end104
	.loc	3 189 7                 # fft3d.c:189:7
	cmpl	$0, timers_enabled(%rip)
	je	.LBB3_44
# BB#43:                                # %if.then106
	.loc	3 189 23 is_stmt 0 discriminator 1 # fft3d.c:189:23
	movl	$8, %edi
	movl	%ecx, %ebx
	callq	timer_stop
	movl	%ebx, %ecx
.Ltmp274:
.LBB3_44:                               # %if.end107
	.loc	3 191 24 is_stmt 1      # fft3d.c:191:24
	movl	$8192, %eax             # imm = 0x2000
	xorl	%edx, %edx
	idivl	%ecx
	movl	%eax, %ebx
.Ltmp275:
	.loc	3 192 16                # fft3d.c:192:16
	cmpl	$33, %ebx
	movl	$32, %eax
.Ltmp276:
	.loc	3 192 7 is_stmt 0       # fft3d.c:192:7
	cmovll	%ebx, %eax
.Ltmp277:
	.loc	3 192 38 discriminator 1 # fft3d.c:192:38
	movl	%eax, 24(%rsp)          # 4-byte Spill
	movl	%eax, fftblock(%rip)
.Ltmp278:
	.loc	3 194 9 is_stmt 1       # fft3d.c:194:9
	movl	%ecx, %edi
	movl	%ecx, %r14d
	callq	ilog2
	movl	%eax, 40(%rsp)          # 4-byte Spill
.Ltmp279:
	#DEBUG_VALUE: fftXYZ:log <- [%RSP+40]
	.loc	3 195 7                 # fft3d.c:195:7
	cmpl	$0, timers_enabled(%rip)
.Ltmp280:
	.loc	3 195 7 is_stmt 0       # fft3d.c:195:7
	movq	%rbp, 80(%rsp)          # 8-byte Spill
	je	.LBB3_46
.Ltmp281:
# BB#45:                                # %if.then115
	#DEBUG_VALUE: fftXYZ:log <- [%RSP+40]
	.loc	3 195 23 discriminator 1 # fft3d.c:195:23
	movl	$9, %edi
	callq	timer_start
.Ltmp282:
.LBB3_46:                               # %for.cond117.preheader
	.loc	3 196 3 is_stmt 1 discriminator 1 # fft3d.c:196:3
	testl	%ebp, %ebp
	movl	%r14d, %ecx
	movq	32(%rsp), %rdx          # 8-byte Reload
	movq	56(%rsp), %rsi          # 8-byte Reload
	jle	.LBB3_65
.Ltmp283:
# BB#47:                                # %for.cond120.preheader.lr.ph
	.loc	3 193 19                # fft3d.c:193:19
	incl	24(%rsp)                # 4-byte Folded Spill
.Ltmp284:
	#DEBUG_VALUE: fftXYZ:blkp <- [%RSP+24]
	.loc	3 199 30 discriminator 1 # fft3d.c:199:30
	leal	-1(%rdx), %eax
.Ltmp285:
	#DEBUG_VALUE: fftXYZ:ble <- [%RSP+64]
	movl	%eax, 64(%rsp)          # 4-byte Spill
	movq	112(%rsp), %rax         # 8-byte Reload
.Ltmp286:
	.loc	3 203 33                # fft3d.c:203:33
	imulq	%rsi, %rax
.Ltmp287:
	.loc	3 196 3 discriminator 1 # fft3d.c:196:3
	movslq	%ebp, %rdi
	movslq	%esi, %rbp
.Ltmp288:
	.loc	3 207 7 discriminator 1 # fft3d.c:207:7
	movq	%rbp, 184(%rsp)         # 8-byte Spill
	testl	%ecx, %ecx
	setle	88(%rsp)                # 1-byte Folded Spill
.Ltmp289:
	.loc	3 196 3 discriminator 1 # fft3d.c:196:3
	shlq	$4, %rsi
	movq	%rsi, 56(%rsp)          # 8-byte Spill
	shlq	$4, %rax
	movq	%rax, 112(%rsp)         # 8-byte Spill
	notl	%ebx
	cmpl	$-34, %ebx
	movl	$-33, %r12d
	cmovgl	%ebx, %r12d
	imulq	%rbp, %rdi
	shlq	$4, %rdi
	movq	%rdi, 120(%rsp)         # 8-byte Spill
	xorl	%eax, %eax
	movq	%rax, 96(%rsp)          # 8-byte Spill
	xorl	%esi, %esi
.Ltmp290:
	.p2align	4, 0x90
.LBB3_48:                               # %for.cond120.preheader
                                        # =>This Loop Header: Depth=1
                                        #     Child Loop BB3_50 Depth 2
                                        #       Child Loop BB3_55 Depth 3
                                        #         Child Loop BB3_56 Depth 4
                                        #       Child Loop BB3_60 Depth 3
                                        #         Child Loop BB3_61 Depth 4
	movq	%rsi, 168(%rsp)         # 8-byte Spill
.Ltmp291:
	.loc	3 197 5 discriminator 1 # fft3d.c:197:5
	testl	%edx, %edx
	jle	.LBB3_64
# BB#49:                                # %for.body122.lr.ph
                                        #   in Loop: Header=BB3_48 Depth=1
	xorl	%r14d, %r14d
.Ltmp292:
	.loc	3 198 19                # fft3d.c:198:19
	movl	fftblock(%rip), %eax
	xorl	%r13d, %r13d
	.p2align	4, 0x90
.LBB3_50:                               # %for.body122
                                        #   Parent Loop BB3_48 Depth=1
                                        # =>  This Loop Header: Depth=2
                                        #       Child Loop BB3_55 Depth 3
                                        #         Child Loop BB3_56 Depth 4
                                        #       Child Loop BB3_60 Depth 3
                                        #         Child Loop BB3_61 Depth 4
	.loc	3 198 28 is_stmt 0      # fft3d.c:198:28
	leal	-1(%r13,%rax), %r15d
.Ltmp293:
	#DEBUG_VALUE: fftXYZ:ble <- %R15D
	.loc	3 199 15 is_stmt 1      # fft3d.c:199:15
	cmpl	%edx, %r15d
.Ltmp294:
	.loc	3 199 11 is_stmt 0      # fft3d.c:199:11
	cmovgl	64(%rsp), %r15d         # 4-byte Folded Reload
.Ltmp295:
	testl	%ecx, %ecx
	.loc	3 200 23 is_stmt 1      # fft3d.c:200:23
	leal	1(%r14,%r15), %edx
.Ltmp296:
	#DEBUG_VALUE: fftXYZ:i <- 0
	#DEBUG_VALUE: fftXYZ:len <- %EDX
	jle	.LBB3_51
.Ltmp297:
# BB#52:                                # %for.cond134.preheader.lr.ph
                                        #   in Loop: Header=BB3_50 Depth=2
	#DEBUG_VALUE: fftXYZ:len <- %EDX
	.loc	3 202 9 discriminator 1 # fft3d.c:202:9
	cmpl	%r15d, %r13d
	jle	.LBB3_54
.Ltmp298:
# BB#53:                                # %for.end153.thread
                                        #   in Loop: Header=BB3_50 Depth=2
	#DEBUG_VALUE: fftXYZ:len <- %EDX
	.loc	3 206 7                 # fft3d.c:206:7
	movq	144(%rsp), %rax         # 8-byte Reload
	movq	%rax, (%rsp)
	movl	$plane, %r9d
	movl	16(%rsp), %edi          # 4-byte Reload
	movl	40(%rsp), %esi          # 4-byte Reload
	movl	24(%rsp), %r8d          # 4-byte Reload
	movl	%ecx, %ebx
	callq	Swarztrauber
	#DEBUG_VALUE: fftXYZ:i <- 0
	movl	%ebx, %ecx
.Ltmp299:
	.loc	3 208 25 discriminator 1 # fft3d.c:208:25
	cmpl	%r15d, %r13d
	movq	120(%rsp), %r10         # 8-byte Reload
	jle	.LBB3_59
	jmp	.LBB3_63
.Ltmp300:
	.p2align	4, 0x90
.LBB3_51:                               # %for.end153.thread403
                                        #   in Loop: Header=BB3_50 Depth=2
	#DEBUG_VALUE: fftXYZ:len <- %EDX
	.loc	3 206 7                 # fft3d.c:206:7
	movq	144(%rsp), %rax         # 8-byte Reload
	movq	%rax, (%rsp)
	movl	$plane, %r9d
	movl	16(%rsp), %edi          # 4-byte Reload
	movl	40(%rsp), %esi          # 4-byte Reload
	movl	24(%rsp), %r8d          # 4-byte Reload
	movl	%ecx, %ebx
	callq	Swarztrauber
	movl	%ebx, %ecx
	#DEBUG_VALUE: fftXYZ:i <- 0
	jmp	.LBB3_63
.Ltmp301:
	.p2align	4, 0x90
.LBB3_54:                               # %for.body136.lr.ph.preheader
                                        #   in Loop: Header=BB3_50 Depth=2
	#DEBUG_VALUE: fftXYZ:len <- %EDX
	.loc	3 203 27                # fft3d.c:203:27
	movslq	%r13d, %r9
	movslq	%r15d, %rbx
	leaq	-1(%r9), %r8
	shlq	$4, %r9
	addq	104(%rsp), %r9          # 8-byte Folded Reload
	leal	(%r14,%r13), %r10d
	xorl	%r11d, %r11d
.Ltmp302:
	.p2align	4, 0x90
.LBB3_55:                               # %for.body136.lr.ph
                                        #   Parent Loop BB3_48 Depth=1
                                        #     Parent Loop BB3_50 Depth=2
                                        # =>    This Loop Header: Depth=3
                                        #         Child Loop BB3_56 Depth 4
	movl	%r10d, %ebp
	movq	%r9, %rax
	movq	%r8, %rsi
	.p2align	4, 0x90
.LBB3_56:                               # %for.body136
                                        #   Parent Loop BB3_48 Depth=1
                                        #     Parent Loop BB3_50 Depth=2
                                        #       Parent Loop BB3_55 Depth=3
                                        # =>      This Inner Loop Header: Depth=4
	.loc	3 203 11 is_stmt 0      # fft3d.c:203:11
	movslq	%ebp, %rbp
	movq	%rbp, %rdi
	shlq	$4, %rdi
	.loc	3 203 33                # fft3d.c:203:33
	movups	(%rax), %xmm0
	movups	%xmm0, plane(%rdi)
.Ltmp303:
	.loc	3 202 25 is_stmt 1 discriminator 1 # fft3d.c:202:25
	incq	%rsi
	addq	$16, %rax
	incl	%ebp
	cmpq	%rbx, %rsi
	.loc	3 202 9 is_stmt 0 discriminator 1 # fft3d.c:202:9
	jl	.LBB3_56
.Ltmp304:
# BB#57:                                # %for.inc151
                                        #   in Loop: Header=BB3_55 Depth=3
	.loc	3 201 7 is_stmt 1 discriminator 1 # fft3d.c:201:7
	incq	%r11
	addq	112(%rsp), %r9          # 8-byte Folded Reload
	subl	%r12d, %r10d
	cmpl	%ecx, %r11d
	jne	.LBB3_55
.Ltmp305:
# BB#58:                                # %for.end153
                                        #   in Loop: Header=BB3_50 Depth=2
	.loc	3 206 7                 # fft3d.c:206:7
	movq	144(%rsp), %rax         # 8-byte Reload
	movq	%rax, (%rsp)
	movl	$plane, %r9d
	movl	16(%rsp), %edi          # 4-byte Reload
	movl	40(%rsp), %esi          # 4-byte Reload
	movl	24(%rsp), %r8d          # 4-byte Reload
	movl	%ecx, %ebx
	callq	Swarztrauber
	#DEBUG_VALUE: fftXYZ:i <- 0
	movl	%ebx, %ecx
.Ltmp306:
	.loc	3 208 25 discriminator 1 # fft3d.c:208:25
	cmpl	%r15d, %r13d
	setg	%al
.Ltmp307:
	.loc	3 207 7 discriminator 1 # fft3d.c:207:7
	orb	88(%rsp), %al           # 1-byte Folded Reload
	movq	120(%rsp), %r10         # 8-byte Reload
	jne	.LBB3_63
.LBB3_59:                               # %for.body160.lr.ph.preheader
                                        #   in Loop: Header=BB3_50 Depth=2
.Ltmp308:
	.loc	3 209 30                # fft3d.c:209:30
	movslq	%r13d, %r8
	movslq	%r15d, %rbp
	movq	96(%rsp), %rax          # 8-byte Reload
	leaq	(%rax,%r8), %r9
	decq	%r8
	shlq	$4, %r9
	addq	208(%rsp), %r9          # 8-byte Folded Reload
	addl	%r13d, %r14d
	xorl	%esi, %esi
	.p2align	4, 0x90
.LBB3_60:                               # %for.body160.lr.ph
                                        #   Parent Loop BB3_48 Depth=1
                                        #     Parent Loop BB3_50 Depth=2
                                        # =>    This Loop Header: Depth=3
                                        #         Child Loop BB3_61 Depth 4
	movl	%r14d, %ebx
	movq	%r9, %rdx
	movq	%r8, %rax
	.p2align	4, 0x90
.LBB3_61:                               # %for.body160
                                        #   Parent Loop BB3_48 Depth=1
                                        #     Parent Loop BB3_50 Depth=2
                                        #       Parent Loop BB3_60 Depth=3
                                        # =>      This Inner Loop Header: Depth=4
	.loc	3 209 37 is_stmt 0      # fft3d.c:209:37
	movslq	%ebx, %rbx
	movq	%rbx, %rdi
	shlq	$4, %rdi
	movups	plane(%rdi), %xmm0
	movups	%xmm0, (%rdx)
.Ltmp309:
	.loc	3 208 25 is_stmt 1 discriminator 1 # fft3d.c:208:25
	incq	%rax
	addq	$16, %rdx
	incl	%ebx
	cmpq	%rbp, %rax
	.loc	3 208 9 is_stmt 0 discriminator 1 # fft3d.c:208:9
	jl	.LBB3_61
.Ltmp310:
# BB#62:                                # %for.inc176
                                        #   in Loop: Header=BB3_60 Depth=3
	.loc	3 207 7 is_stmt 1 discriminator 1 # fft3d.c:207:7
	incq	%rsi
	addq	%r10, %r9
	subl	%r12d, %r14d
	cmpl	%ecx, %esi
	jne	.LBB3_60
.Ltmp311:
.LBB3_63:                               # %for.inc179
                                        #   in Loop: Header=BB3_50 Depth=2
	.loc	3 197 36 discriminator 2 # fft3d.c:197:36
	movl	fftblock(%rip), %eax
	.loc	3 197 33 is_stmt 0 discriminator 2 # fft3d.c:197:33
	addl	%eax, %r13d
.Ltmp312:
	#DEBUG_VALUE: fftXYZ:bls <- %R13D
	movl	%r13d, %r14d
	negl	%r14d
	movq	32(%rsp), %rdx          # 8-byte Reload
	.loc	3 197 23 discriminator 1 # fft3d.c:197:23
	cmpl	%edx, %r13d
	jl	.LBB3_50
.Ltmp313:
.LBB3_64:                               # %for.inc182
                                        #   in Loop: Header=BB3_48 Depth=1
	movq	168(%rsp), %rsi         # 8-byte Reload
	.loc	3 196 3 is_stmt 1 discriminator 1 # fft3d.c:196:3
	incq	%rsi
	movq	56(%rsp), %rax          # 8-byte Reload
	addq	%rax, 104(%rsp)         # 8-byte Folded Spill
	movq	96(%rsp), %rax          # 8-byte Reload
	addq	184(%rsp), %rax         # 8-byte Folded Reload
	movq	%rax, 96(%rsp)          # 8-byte Spill
	movq	80(%rsp), %rax          # 8-byte Reload
	cmpl	%eax, %esi
	jne	.LBB3_48
.Ltmp314:
.LBB3_65:                               # %for.end184
	.loc	3 214 7                 # fft3d.c:214:7
	cmpl	$0, timers_enabled(%rip)
	je	.LBB3_67
# BB#66:                                # %if.end187
	.loc	3 214 23 is_stmt 0 discriminator 1 # fft3d.c:214:23
	movl	$9, %edi
	callq	timer_stop
.Ltmp315:
	.loc	3 215 7 is_stmt 1       # fft3d.c:215:7
	cmpl	$0, timers_enabled(%rip)
	je	.LBB3_67
# BB#68:                                # %if.then189
	.loc	3 215 23 is_stmt 0 discriminator 1 # fft3d.c:215:23
	movl	$3, %edi
	addq	$248, %rsp
	popq	%rbx
	popq	%r12
	popq	%r13
	popq	%r14
	popq	%r15
	popq	%rbp
	jmp	timer_stop              # TAILCALL
.Ltmp316:
.LBB3_67:                               # %if.end190
	.loc	3 216 1 is_stmt 1       # fft3d.c:216:1
	addq	$248, %rsp
	popq	%rbx
	popq	%r12
	popq	%r13
	popq	%r14
	popq	%r15
	popq	%rbp
	retq
.Ltmp317:
.Lfunc_end3:
	.size	fftXYZ, .Lfunc_end3-fftXYZ
	.cfi_endproc

	.globl	ilog2
	.p2align	4, 0x90
	.type	ilog2,@function
ilog2:                                  # @ilog2
.Lfunc_begin4:
	.loc	8 68 0                  # auxfnct.c:68:0
	.cfi_startproc
# BB#0:                                 # %entry
	#DEBUG_VALUE: ilog2:n <- %EDI
	xorl	%eax, %eax
.Ltmp318:
	.loc	8 70 9 prologue_end     # auxfnct.c:70:9
	cmpl	$1, %edi
	je	.LBB4_4
.Ltmp319:
# BB#1:                                 # %while.cond.preheader
	#DEBUG_VALUE: ilog2:n <- %EDI
	movl	$1, %eax
	.loc	8 74 3 discriminator 1  # auxfnct.c:74:3
	cmpl	$3, %edi
	jl	.LBB4_4
# BB#2:
	#DEBUG_VALUE: ilog2:n <- %EDI
	movl	$2, %ecx
	.p2align	4, 0x90
.LBB4_3:                                # %while.body
                                        # =>This Inner Loop Header: Depth=1
.Ltmp320:
	.loc	8 75 13                 # auxfnct.c:75:13
	addl	%ecx, %ecx
.Ltmp321:
	#DEBUG_VALUE: ilog2:nn <- %ECX
	.loc	8 76 13                 # auxfnct.c:76:13
	incl	%eax
.Ltmp322:
	#DEBUG_VALUE: ilog2:lg <- %EAX
	.loc	8 74 13 discriminator 1 # auxfnct.c:74:13
	cmpl	%edi, %ecx
	.loc	8 74 3 is_stmt 0 discriminator 1 # auxfnct.c:74:3
	jl	.LBB4_3
.Ltmp323:
.LBB4_4:                                # %cleanup
	.loc	8 79 1 is_stmt 1        # auxfnct.c:79:1
	retq
.Ltmp324:
.Lfunc_end4:
	.size	ilog2, .Lfunc_end4-ilog2
	.cfi_endproc

	.section	.rodata.cst16,"aM",@progbits,16
	.p2align	4
.LCPI5_0:
	.quad	-9223372036854775808    # 0x8000000000000000
	.quad	-9223372036854775808    # 0x8000000000000000
	.text
	.p2align	4, 0x90
	.type	Swarztrauber,@function
Swarztrauber:                           # @Swarztrauber
.Lfunc_begin5:
	.loc	3 61 0                  # fft3d.c:61:0
	.cfi_startproc
# BB#0:                                 # %entry
	pushq	%rbp
.Ltmp325:
	.cfi_def_cfa_offset 16
	pushq	%r15
.Ltmp326:
	.cfi_def_cfa_offset 24
	pushq	%r14
.Ltmp327:
	.cfi_def_cfa_offset 32
	pushq	%r13
.Ltmp328:
	.cfi_def_cfa_offset 40
	pushq	%r12
.Ltmp329:
	.cfi_def_cfa_offset 48
	pushq	%rbx
.Ltmp330:
	.cfi_def_cfa_offset 56
	subq	$136, %rsp
.Ltmp331:
	.cfi_def_cfa_offset 192
.Ltmp332:
	.cfi_offset %rbx, -56
.Ltmp333:
	.cfi_offset %r12, -48
.Ltmp334:
	.cfi_offset %r13, -40
.Ltmp335:
	.cfi_offset %r14, -32
.Ltmp336:
	.cfi_offset %r15, -24
.Ltmp337:
	.cfi_offset %rbp, -16
	#DEBUG_VALUE: Swarztrauber:is <- %EDI
	#DEBUG_VALUE: Swarztrauber:m <- %ESI
	#DEBUG_VALUE: Swarztrauber:vlen <- %EDX
	#DEBUG_VALUE: Swarztrauber:n <- %ECX
	#DEBUG_VALUE: Swarztrauber:xd1 <- %R8D
	#DEBUG_VALUE: Swarztrauber:ox <- %R9
	movq	%r9, %r15
.Ltmp338:
	#DEBUG_VALUE: Swarztrauber:ox <- %R15
	movl	%ecx, %ebp
.Ltmp339:
	#DEBUG_VALUE: Swarztrauber:n <- %EBP
	movl	%ebp, 104(%rsp)         # 4-byte Spill
	movl	%edx, %ebx
.Ltmp340:
	#DEBUG_VALUE: Swarztrauber:vlen <- %EBX
	movl	%esi, 16(%rsp)          # 4-byte Spill
.Ltmp341:
	#DEBUG_VALUE: Swarztrauber:m <- [%RSP+16]
	movl	%edi, 24(%rsp)          # 4-byte Spill
.Ltmp342:
	#DEBUG_VALUE: Swarztrauber:is <- [%RSP+24]
	movq	192(%rsp), %rax
	#DEBUG_VALUE: Swarztrauber:exponent <- [%RSP+72]
.Ltmp343:
	.loc	3 62 3 prologue_end     # fft3d.c:62:3
	movq	%rax, 72(%rsp)          # 8-byte Spill
	movl	%r8d, %r14d
.Ltmp344:
	.loc	3 68 7                  # fft3d.c:68:7
	cmpl	$0, timers_enabled(%rip)
	je	.LBB5_2
.Ltmp345:
# BB#1:                                 # %if.then
	#DEBUG_VALUE: Swarztrauber:exponent <- [%RSP+72]
	#DEBUG_VALUE: Swarztrauber:is <- [%RSP+24]
	#DEBUG_VALUE: Swarztrauber:m <- [%RSP+16]
	#DEBUG_VALUE: Swarztrauber:vlen <- %EBX
	#DEBUG_VALUE: Swarztrauber:n <- %EBP
	#DEBUG_VALUE: Swarztrauber:ox <- %R15
	#DEBUG_VALUE: Swarztrauber:xd1 <- %R8D
	.loc	3 68 23 is_stmt 0 discriminator 1 # fft3d.c:68:23
	movl	$4, %edi
	callq	timer_start
.Ltmp346:
.LBB5_2:                                # %if.end
	#DEBUG_VALUE: Swarztrauber:vlen <- %EBX
	#DEBUG_VALUE: Swarztrauber:n <- %EBP
	#DEBUG_VALUE: Swarztrauber:ox <- %R15
	#DEBUG_VALUE: Swarztrauber:xd1 <- %R8D
	#DEBUG_VALUE: Swarztrauber:lj <- 1
	#DEBUG_VALUE: Swarztrauber:l <- 1
	.loc	3 75 17 is_stmt 1 discriminator 1 # fft3d.c:75:17
	cmpl	$0, 16(%rsp)            # 4-byte Folded Reload
	jle	.LBB5_33
.Ltmp347:
# BB#3:                                 # %for.body.lr.ph
	#DEBUG_VALUE: Swarztrauber:xd1 <- %R8D
	#DEBUG_VALUE: Swarztrauber:ox <- %R15
	#DEBUG_VALUE: Swarztrauber:n <- %EBP
	#DEBUG_VALUE: Swarztrauber:vlen <- %EBX
	.loc	3 72 10                 # fft3d.c:72:10
	movl	%ebp, %eax
	shrl	$31, %eax
	addl	%ebp, %eax
	sarl	%eax
.Ltmp348:
	#DEBUG_VALUE: Swarztrauber:n1 <- %EAX
	movl	$1, %r11d
	.loc	3 74 10                 # fft3d.c:74:10
	movl	$1, %edi
	movl	16(%rsp), %ecx          # 4-byte Reload
	shll	%cl, %edi
.Ltmp349:
	#DEBUG_VALUE: Swarztrauber:li <- %EDI
	.loc	3 75 3 discriminator 1  # fft3d.c:75:3
	movslq	%eax, %rcx
	movq	%rbx, 88(%rsp)          # 8-byte Spill
	leal	-1(%rbx), %eax
.Ltmp350:
	.loc	3 92 7 discriminator 1  # fft3d.c:92:7
	movl	%eax, 100(%rsp)         # 4-byte Spill
	testl	%ebx, %ebx
	setle	%al
.Ltmp351:
	.loc	3 103 7 discriminator 1 # fft3d.c:103:7
	movb	%al, 7(%rsp)            # 1-byte Spill
	testl	%ebp, %ebp
	setle	%dl
	orb	%al, %dl
	movb	%dl, 15(%rsp)           # 1-byte Spill
.Ltmp352:
	.loc	3 104 9 discriminator 1 # fft3d.c:104:9
	movl	%ebx, %eax
	andl	$3, %eax
.Ltmp353:
	.loc	3 75 3 discriminator 1  # fft3d.c:75:3
	movq	%rax, 120(%rsp)         # 8-byte Spill
	imulq	$528, %rcx, %rax        # imm = 0x210
	imulq	%r14, %rcx
.Ltmp354:
	.loc	3 81 5 discriminator 1  # fft3d.c:81:5
	shlq	$4, %r14
.Ltmp355:
	.loc	3 75 3 discriminator 1  # fft3d.c:75:3
	shlq	$4, %rcx
	movq	%r15, %rbx
.Ltmp356:
	movq	%rbx, 32(%rsp)          # 8-byte Spill
	addq	%rbx, %rcx
	movq	%rcx, 128(%rsp)         # 8-byte Spill
	leaq	scr(%rax), %rsi
	leaq	8(%rbx), %rax
	movq	%rax, 112(%rsp)         # 8-byte Spill
	movapd	.LCPI5_0(%rip), %xmm0   # xmm0 = [9223372036854775808,9223372036854775808]
	movl	$1, %r9d
.Ltmp357:
	.p2align	4, 0x90
.LBB5_4:                                # %for.body
                                        # =>This Loop Header: Depth=1
                                        #     Child Loop BB5_6 Depth 2
                                        #       Child Loop BB5_9 Depth 3
                                        #         Child Loop BB5_10 Depth 4
                                        #     Child Loop BB5_24 Depth 2
                                        #       Child Loop BB5_27 Depth 3
                                        #         Child Loop BB5_28 Depth 4
                                        #     Child Loop BB5_16 Depth 2
                                        #       Child Loop BB5_17 Depth 3
                                        #       Child Loop BB5_20 Depth 3
	movl	%edi, 108(%rsp)         # 4-byte Spill
	movl	%r11d, 28(%rsp)         # 4-byte Spill
.Ltmp358:
	.loc	3 77 12                 # fft3d.c:77:12
	leal	(%r9,%r9), %eax
	.loc	3 78 13                 # fft3d.c:78:13
	movl	%eax, 20(%rsp)          # 4-byte Spill
	movl	%edi, %eax
	shrl	$31, %eax
	addl	%edi, %eax
	sarl	%eax
.Ltmp359:
	#DEBUG_VALUE: Swarztrauber:i <- 0
	#DEBUG_VALUE: Swarztrauber:ku <- %EAX
	#DEBUG_VALUE: Swarztrauber:li <- %EAX
	movl	%eax, 8(%rsp)           # 4-byte Spill
.Ltmp360:
	#DEBUG_VALUE: Swarztrauber:ku <- [%RSP+8]
	#DEBUG_VALUE: Swarztrauber:li <- [%RSP+8]
	.loc	3 81 5 discriminator 1  # fft3d.c:81:5
	cmpl	$2, %edi
	jl	.LBB5_13
.Ltmp361:
# BB#5:                                 # %for.body4.lr.ph
                                        #   in Loop: Header=BB5_4 Depth=1
	#DEBUG_VALUE: Swarztrauber:li <- [%RSP+8]
	#DEBUG_VALUE: Swarztrauber:ku <- [%RSP+8]
	movslq	8(%rsp), %rdx           # 4-byte Folded Reload
	movq	%rdx, 64(%rsp)          # 8-byte Spill
	movslq	20(%rsp), %rax          # 4-byte Folded Reload
	movslq	%r9d, %rcx
.Ltmp362:
	.loc	3 92 7 discriminator 1  # fft3d.c:92:7
	testl	%r9d, %r9d
	setle	%bl
	orb	7(%rsp), %bl            # 1-byte Folded Reload
	movb	%bl, 56(%rsp)           # 1-byte Spill
.Ltmp363:
	.loc	3 81 5 discriminator 1  # fft3d.c:81:5
	movq	%r14, %rdi
	imulq	%rcx, %rdi
	movq	%rdi, 48(%rsp)          # 8-byte Spill
	imulq	$528, %rax, %rax        # imm = 0x210
	movq	%rax, 40(%rsp)          # 8-byte Spill
	imulq	$66, %rcx, %rbp
	xorl	%r15d, %r15d
	movq	128(%rsp), %r10         # 8-byte Reload
	movq	32(%rsp), %r8           # 8-byte Reload
	xorl	%r13d, %r13d
.Ltmp364:
	.p2align	4, 0x90
.LBB5_6:                                # %for.body4
                                        #   Parent Loop BB5_4 Depth=1
                                        # =>  This Loop Header: Depth=2
                                        #       Child Loop BB5_9 Depth 3
                                        #         Child Loop BB5_10 Depth 4
	.loc	3 88 25                 # fft3d.c:88:25
	leaq	(%r13,%rdx), %rax
	.loc	3 88 14 is_stmt 0       # fft3d.c:88:14
	shlq	$4, %rax
	cmpl	$0, 24(%rsp)            # 4-byte Folded Reload
	movq	72(%rsp), %rcx          # 8-byte Reload
	movsd	(%rcx,%rax), %xmm1      # xmm1 = mem[0],zero
	movsd	8(%rcx,%rax), %xmm2     # xmm2 = mem[0],zero
	jg	.LBB5_8
.Ltmp365:
# BB#7:                                 # %for.body4
                                        #   in Loop: Header=BB5_6 Depth=2
	.loc	3 90 14 is_stmt 1       # fft3d.c:90:14
	xorpd	%xmm0, %xmm2
.Ltmp366:
	#DEBUG_VALUE: Swarztrauber:u1 [bit_piece offset=64 size=64] <- %XMM2
.LBB5_8:                                # %for.body4
                                        #   in Loop: Header=BB5_6 Depth=2
	#DEBUG_VALUE: Swarztrauber:k <- 0
	.loc	3 92 7 discriminator 1  # fft3d.c:92:7
	cmpb	$0, 56(%rsp)            # 1-byte Folded Reload
	movq	%r15, 80(%rsp)          # 8-byte Spill
	movq	%r10, %r11
	movq	%r8, %rbx
	movl	$0, %edx
	jne	.LBB5_12
	.p2align	4, 0x90
.LBB5_9:                                # %for.body27.lr.ph.us
                                        #   Parent Loop BB5_4 Depth=1
                                        #     Parent Loop BB5_6 Depth=2
                                        # =>    This Loop Header: Depth=3
                                        #         Child Loop BB5_10 Depth 4
	movq	88(%rsp), %rax          # 8-byte Reload
	movq	%r15, %rdi
	movq	%r11, %r12
	movq	%rbx, %rcx
	.p2align	4, 0x90
.LBB5_10:                               # %for.body27.us
                                        #   Parent Loop BB5_4 Depth=1
                                        #     Parent Loop BB5_6 Depth=2
                                        #       Parent Loop BB5_9 Depth=3
                                        # =>      This Inner Loop Header: Depth=4
.Ltmp367:
	.loc	3 94 17                 # fft3d.c:94:17
	movupd	(%rcx), %xmm3
	.loc	3 95 17                 # fft3d.c:95:17
	movupd	(%r12), %xmm4
	.loc	3 96 27                 # fft3d.c:96:27
	movapd	%xmm3, %xmm5
	addpd	%xmm4, %xmm5
	movapd	%xmm5, scr(%rdi)
	.loc	3 97 27                 # fft3d.c:97:27
	movapd	%xmm3, %xmm5
	subsd	%xmm4, %xmm5
	movapd	%xmm1, %xmm6
	mulsd	%xmm5, %xmm6
	shufpd	$1, %xmm3, %xmm3        # xmm3 = xmm3[1,0]
	shufpd	$1, %xmm4, %xmm4        # xmm4 = xmm4[1,0]
	subsd	%xmm4, %xmm3
	movapd	%xmm2, %xmm4
	mulsd	%xmm3, %xmm4
	subsd	%xmm4, %xmm6
	mulsd	%xmm1, %xmm3
	mulsd	%xmm2, %xmm5
	addsd	%xmm3, %xmm5
	movsd	%xmm6, scr(%rdi,%rbp,8)
	movsd	%xmm5, scr+8(%rdi,%rbp,8)
.Ltmp368:
	.loc	3 93 9 discriminator 1  # fft3d.c:93:9
	addq	$16, %rcx
	addq	$16, %r12
	addq	$16, %rdi
	decl	%eax
	jne	.LBB5_10
.Ltmp369:
# BB#11:                                # %for.cond25.for.inc110_crit_edge.us
                                        #   in Loop: Header=BB5_9 Depth=3
	.loc	3 92 7 discriminator 1  # fft3d.c:92:7
	incq	%rdx
	addq	%r14, %rbx
	addq	%r14, %r11
	addq	$528, %r15              # imm = 0x210
	cmpl	%r9d, %edx
	jne	.LBB5_9
.Ltmp370:
.LBB5_12:                               # %for.inc113
                                        #   in Loop: Header=BB5_6 Depth=2
	.loc	3 81 5 discriminator 1  # fft3d.c:81:5
	incq	%r13
	movq	48(%rsp), %rax          # 8-byte Reload
	addq	%rax, %r8
	addq	%rax, %r10
	movq	80(%rsp), %r15          # 8-byte Reload
	addq	40(%rsp), %r15          # 8-byte Folded Reload
	movq	64(%rsp), %rdx          # 8-byte Reload
	.loc	3 81 19 is_stmt 0 discriminator 1 # fft3d.c:81:19
	cmpq	%rdx, %r13
	jl	.LBB5_6
.Ltmp371:
.LBB5_13:                               # %for.end115
                                        #   in Loop: Header=BB5_4 Depth=1
	movl	28(%rsp), %r11d         # 4-byte Reload
	.loc	3 102 9 is_stmt 1       # fft3d.c:102:9
	cmpl	16(%rsp), %r11d         # 4-byte Folded Reload
	jne	.LBB5_22
# BB#14:                                # %for.cond118.preheader
                                        #   in Loop: Header=BB5_4 Depth=1
.Ltmp372:
	.loc	3 103 7 discriminator 1 # fft3d.c:103:7
	cmpb	$0, 15(%rsp)            # 1-byte Folded Reload
	movq	32(%rsp), %r9           # 8-byte Reload
	movl	$scr, %r12d
	movl	$0, %r8d
	movl	104(%rsp), %r10d        # 4-byte Reload
	movl	100(%rsp), %r15d        # 4-byte Reload
	movq	120(%rsp), %rdx         # 8-byte Reload
	jne	.LBB5_15
	.p2align	4, 0x90
.LBB5_16:                               # %for.body123.lr.ph.us
                                        #   Parent Loop BB5_4 Depth=1
                                        # =>  This Loop Header: Depth=2
                                        #       Child Loop BB5_17 Depth 3
                                        #       Child Loop BB5_20 Depth 3
	testl	%edx, %edx
	movq	%r9, %rax
	movq	%r12, %rcx
	movl	$0, %edi
	je	.LBB5_18
	.p2align	4, 0x90
.LBB5_17:                               # %for.body123.us.prol
                                        #   Parent Loop BB5_4 Depth=1
                                        #     Parent Loop BB5_16 Depth=2
                                        # =>    This Inner Loop Header: Depth=3
.Ltmp373:
	.loc	3 105 21                # fft3d.c:105:21
	movupd	(%rcx), %xmm1
	movupd	%xmm1, (%rax)
.Ltmp374:
	.loc	3 104 9 discriminator 1 # fft3d.c:104:9
	incq	%rdi
	addq	$16, %rcx
	addq	$16, %rax
	cmpl	%edi, %edx
	jne	.LBB5_17
.LBB5_18:                               # %for.body123.lr.ph.us.split
                                        #   in Loop: Header=BB5_16 Depth=2
	cmpl	$3, %r15d
	jb	.LBB5_21
# BB#19:                                # %for.body123.lr.ph.us.split.split
                                        #   in Loop: Header=BB5_16 Depth=2
	movq	88(%rsp), %rax          # 8-byte Reload
	movl	%eax, %ebp
	subl	%edi, %ebp
	shlq	$4, %rdi
	leaq	(%r12,%rdi), %rbx
	addq	%r9, %rdi
	xorl	%eax, %eax
	.p2align	4, 0x90
.LBB5_20:                               # %for.body123.us
                                        #   Parent Loop BB5_4 Depth=1
                                        #     Parent Loop BB5_16 Depth=2
                                        # =>    This Inner Loop Header: Depth=3
.Ltmp375:
	.loc	3 105 21                # fft3d.c:105:21
	movups	(%rbx,%rax), %xmm1
	movups	%xmm1, (%rdi,%rax)
	movups	16(%rbx,%rax), %xmm1
	movups	%xmm1, 16(%rdi,%rax)
	movups	32(%rbx,%rax), %xmm1
	movups	%xmm1, 32(%rdi,%rax)
	movupd	48(%rbx,%rax), %xmm1
	movupd	%xmm1, 48(%rdi,%rax)
.Ltmp376:
	.loc	3 104 9 discriminator 1 # fft3d.c:104:9
	addq	$64, %rax
	addl	$-4, %ebp
	jne	.LBB5_20
.Ltmp377:
.LBB5_21:                               # %for.cond121.for.inc135_crit_edge.us
                                        #   in Loop: Header=BB5_16 Depth=2
	.loc	3 103 7 discriminator 1 # fft3d.c:103:7
	incq	%r8
	addq	$528, %r12              # imm = 0x210
	addq	%r14, %r9
	cmpl	%r10d, %r8d
	jne	.LBB5_16
.Ltmp378:
.LBB5_15:                               #   in Loop: Header=BB5_4 Depth=1
	movl	20(%rsp), %edx          # 4-byte Reload
	movl	8(%rsp), %ecx           # 4-byte Reload
	jmp	.LBB5_32
	.p2align	4, 0x90
.LBB5_22:                               # %if.else138
                                        #   in Loop: Header=BB5_4 Depth=1
.Ltmp379:
	.loc	3 110 14                # fft3d.c:110:14
	leal	(,%r9,4), %edx
.Ltmp380:
	#DEBUG_VALUE: Swarztrauber:lj <- %EDX
	movl	108(%rsp), %eax         # 4-byte Reload
	.loc	3 111 15                # fft3d.c:111:15
	movl	%eax, %ecx
	sarl	$31, %ecx
	shrl	$30, %ecx
	addl	%eax, %ecx
	sarl	$2, %ecx
	#DEBUG_VALUE: Swarztrauber:i <- 0
.Ltmp381:
	#DEBUG_VALUE: Swarztrauber:ku <- %ECX
	#DEBUG_VALUE: Swarztrauber:li <- %ECX
	.loc	3 114 7 discriminator 1 # fft3d.c:114:7
	cmpl	$4, %eax
	jl	.LBB5_32
.Ltmp382:
# BB#23:                                # %for.body144.lr.ph
                                        #   in Loop: Header=BB5_4 Depth=1
	#DEBUG_VALUE: Swarztrauber:li <- %ECX
	#DEBUG_VALUE: Swarztrauber:ku <- %ECX
	#DEBUG_VALUE: Swarztrauber:lj <- %EDX
	movl	%edx, 40(%rsp)          # 4-byte Spill
	movslq	20(%rsp), %rax          # 4-byte Folded Reload
	movslq	%ecx, %rdx
.Ltmp383:
	movq	%rdx, 80(%rsp)          # 8-byte Spill
	movl	%ecx, 8(%rsp)           # 4-byte Spill
.Ltmp384:
	.loc	3 125 9 discriminator 1 # fft3d.c:125:9
	testl	%r9d, %r9d
	setle	%cl
.Ltmp385:
	orb	7(%rsp), %cl            # 1-byte Folded Reload
	movb	%cl, 64(%rsp)           # 1-byte Spill
.Ltmp386:
	.loc	3 114 7 discriminator 1 # fft3d.c:114:7
	imulq	$528, %rax, %rcx        # imm = 0x210
	movq	%rcx, 56(%rsp)          # 8-byte Spill
	shll	$2, %r9d
	movslq	%r9d, %rcx
	imulq	%r14, %rcx
	movq	%rcx, 48(%rsp)          # 8-byte Spill
	movq	%r14, %r11
	imulq	%rax, %r11
	addq	112(%rsp), %r11         # 8-byte Folded Reload
	movq	32(%rsp), %r13          # 8-byte Reload
	xorl	%r15d, %r15d
	xorl	%edi, %edi
	.p2align	4, 0x90
.LBB5_24:                               # %for.body144
                                        #   Parent Loop BB5_4 Depth=1
                                        # =>  This Loop Header: Depth=2
                                        #       Child Loop BB5_27 Depth 3
                                        #         Child Loop BB5_28 Depth 4
.Ltmp387:
	.loc	3 121 27                # fft3d.c:121:27
	leaq	(%rdi,%rdx), %rcx
	.loc	3 121 16 is_stmt 0      # fft3d.c:121:16
	shlq	$4, %rcx
	cmpl	$0, 24(%rsp)            # 4-byte Folded Reload
	movq	72(%rsp), %rdx          # 8-byte Reload
	movsd	(%rdx,%rcx), %xmm1      # xmm1 = mem[0],zero
	movsd	8(%rdx,%rcx), %xmm2     # xmm2 = mem[0],zero
	jg	.LBB5_26
.Ltmp388:
# BB#25:                                # %for.body144
                                        #   in Loop: Header=BB5_24 Depth=2
	.loc	3 123 16 is_stmt 1      # fft3d.c:123:16
	xorpd	%xmm0, %xmm2
.Ltmp389:
	#DEBUG_VALUE: Swarztrauber:u1 [bit_piece offset=64 size=64] <- %XMM2
.LBB5_26:                               # %for.body144
                                        #   in Loop: Header=BB5_24 Depth=2
	#DEBUG_VALUE: Swarztrauber:k <- 0
	.loc	3 125 9 discriminator 1 # fft3d.c:125:9
	cmpb	$0, 64(%rsp)            # 1-byte Folded Reload
	movq	%r11, %rcx
	movq	%r13, %r9
	movq	%r15, %r8
	movl	$0, %r12d
	jne	.LBB5_30
	.p2align	4, 0x90
.LBB5_27:                               # %for.body174.lr.ph.us
                                        #   Parent Loop BB5_4 Depth=1
                                        #     Parent Loop BB5_24 Depth=2
                                        # =>    This Loop Header: Depth=3
                                        #         Child Loop BB5_28 Depth 4
	movq	88(%rsp), %rdx          # 8-byte Reload
	movl	%edx, %r10d
	movq	%rcx, %rbp
	movq	%r9, %rdx
	movq	%r8, %rbx
	.p2align	4, 0x90
.LBB5_28:                               # %for.body174.us
                                        #   Parent Loop BB5_4 Depth=1
                                        #     Parent Loop BB5_24 Depth=2
                                        #       Parent Loop BB5_27 Depth=3
                                        # =>      This Inner Loop Header: Depth=4
.Ltmp390:
	.loc	3 127 19                # fft3d.c:127:19
	movapd	scr(%rbx), %xmm3
	.loc	3 128 19                # fft3d.c:128:19
	movapd	(%rsi,%rbx), %xmm4
	.loc	3 129 27                # fft3d.c:129:27
	movapd	%xmm3, %xmm5
	addpd	%xmm4, %xmm5
	movupd	%xmm5, (%rdx)
	.loc	3 130 27                # fft3d.c:130:27
	movapd	%xmm3, %xmm5
	subsd	%xmm4, %xmm5
	movapd	%xmm1, %xmm6
	mulsd	%xmm5, %xmm6
	shufpd	$1, %xmm3, %xmm3        # xmm3 = xmm3[1,0]
	shufpd	$1, %xmm4, %xmm4        # xmm4 = xmm4[1,0]
	subsd	%xmm4, %xmm3
	movapd	%xmm2, %xmm4
	mulsd	%xmm3, %xmm4
	subsd	%xmm4, %xmm6
	mulsd	%xmm1, %xmm3
	mulsd	%xmm2, %xmm5
	addsd	%xmm3, %xmm5
	movsd	%xmm6, -8(%rbp)
	movsd	%xmm5, (%rbp)
.Ltmp391:
	.loc	3 126 11 discriminator 1 # fft3d.c:126:11
	addq	$16, %rbx
	addq	$16, %rdx
	addq	$16, %rbp
	decl	%r10d
	jne	.LBB5_28
.Ltmp392:
# BB#29:                                # %for.cond172.for.inc260_crit_edge.us
                                        #   in Loop: Header=BB5_27 Depth=3
	.loc	3 125 9 discriminator 1 # fft3d.c:125:9
	incq	%r12
	addq	$528, %r8               # imm = 0x210
	addq	%r14, %r9
	addq	%r14, %rcx
	.loc	3 125 23 is_stmt 0 discriminator 1 # fft3d.c:125:23
	cmpq	%rax, %r12
	jl	.LBB5_27
.Ltmp393:
.LBB5_30:                               # %for.inc263
                                        #   in Loop: Header=BB5_24 Depth=2
	.loc	3 114 7 is_stmt 1 discriminator 1 # fft3d.c:114:7
	incq	%rdi
	addq	56(%rsp), %r15          # 8-byte Folded Reload
	movq	48(%rsp), %rcx          # 8-byte Reload
	addq	%rcx, %r13
	addq	%rcx, %r11
	movq	80(%rsp), %rdx          # 8-byte Reload
	.loc	3 114 21 is_stmt 0 discriminator 1 # fft3d.c:114:21
	cmpq	%rdx, %rdi
	jl	.LBB5_24
.Ltmp394:
# BB#31:                                #   in Loop: Header=BB5_4 Depth=1
	movl	28(%rsp), %r11d         # 4-byte Reload
	movl	8(%rsp), %ecx           # 4-byte Reload
	movl	40(%rsp), %edx          # 4-byte Reload
.LBB5_32:                               # %for.inc267
                                        #   in Loop: Header=BB5_4 Depth=1
	.loc	3 75 25 is_stmt 1 discriminator 2 # fft3d.c:75:25
	addl	$2, %r11d
.Ltmp395:
	#DEBUG_VALUE: Swarztrauber:l <- %R11D
	.loc	3 75 3 is_stmt 0 discriminator 1 # fft3d.c:75:3
	cmpl	16(%rsp), %r11d         # 4-byte Folded Reload
	movl	%ecx, %edi
	movl	%edx, %r9d
	jle	.LBB5_4
.Ltmp396:
.LBB5_33:                               # %for.end269
	.loc	3 136 7 is_stmt 1       # fft3d.c:136:7
	cmpl	$0, timers_enabled(%rip)
	je	.LBB5_34
# BB#35:                                # %if.then271
	.loc	3 136 23 is_stmt 0 discriminator 1 # fft3d.c:136:23
	movl	$4, %edi
	addq	$136, %rsp
	popq	%rbx
	popq	%r12
	popq	%r13
	popq	%r14
	popq	%r15
	popq	%rbp
	jmp	timer_stop              # TAILCALL
.Ltmp397:
.LBB5_34:                               # %if.end272
	.loc	3 137 1 is_stmt 1       # fft3d.c:137:1
	addq	$136, %rsp
	popq	%rbx
	popq	%r12
	popq	%r13
	popq	%r14
	popq	%r15
	popq	%rbp
	retq
.Ltmp398:
.Lfunc_end5:
	.size	Swarztrauber, .Lfunc_end5-Swarztrauber
	.cfi_endproc

	.globl	evolve
	.p2align	4, 0x90
	.type	evolve,@function
evolve:                                 # @evolve
.Lfunc_begin6:
	.loc	8 178 0                 # auxfnct.c:178:0
	.cfi_startproc
# BB#0:                                 # %entry
	pushq	%rbp
.Ltmp399:
	.cfi_def_cfa_offset 16
	pushq	%r15
.Ltmp400:
	.cfi_def_cfa_offset 24
	pushq	%r14
.Ltmp401:
	.cfi_def_cfa_offset 32
	pushq	%r13
.Ltmp402:
	.cfi_def_cfa_offset 40
	pushq	%r12
.Ltmp403:
	.cfi_def_cfa_offset 48
	pushq	%rbx
.Ltmp404:
	.cfi_def_cfa_offset 56
.Ltmp405:
	.cfi_offset %rbx, -56
.Ltmp406:
	.cfi_offset %r12, -48
.Ltmp407:
	.cfi_offset %r13, -40
.Ltmp408:
	.cfi_offset %r14, -32
.Ltmp409:
	.cfi_offset %r15, -24
.Ltmp410:
	.cfi_offset %rbp, -16
	#DEBUG_VALUE: evolve:nx <- %EDI
	#DEBUG_VALUE: evolve:ny <- %ESI
	#DEBUG_VALUE: evolve:nz <- %EDX
	#DEBUG_VALUE: evolve:x <- %RCX
	#DEBUG_VALUE: evolve:y <- %R8
	#DEBUG_VALUE: evolve:twiddle <- %R9
	movq	%r9, -104(%rsp)         # 8-byte Spill
.Ltmp411:
	#DEBUG_VALUE: evolve:twiddle <- [%RSP+-104]
	movq	%r8, -72(%rsp)          # 8-byte Spill
.Ltmp412:
	#DEBUG_VALUE: evolve:y <- [%RSP+-72]
	movq	%rcx, -80(%rsp)         # 8-byte Spill
.Ltmp413:
	#DEBUG_VALUE: evolve:x <- [%RSP+-80]
	movl	%edx, -108(%rsp)        # 4-byte Spill
.Ltmp414:
	.loc	8 176 34 prologue_end   # auxfnct.c:176:34
	leal	1(%rdi), %eax
.Ltmp415:
	#DEBUG_VALUE: evolve:i <- 0
	.loc	8 180 3 discriminator 1 # auxfnct.c:180:3
	testl	%edx, %edx
.Ltmp416:
	#DEBUG_VALUE: evolve:nz <- [%RSP+-108]
	jle	.LBB6_12
# BB#1:                                 # %for.cond3.preheader.lr.ph
	#DEBUG_VALUE: evolve:nz <- [%RSP+-108]
	#DEBUG_VALUE: evolve:x <- [%RSP+-80]
	#DEBUG_VALUE: evolve:y <- [%RSP+-72]
	#DEBUG_VALUE: evolve:twiddle <- [%RSP+-104]
	#DEBUG_VALUE: evolve:ny <- %ESI
	#DEBUG_VALUE: evolve:nx <- %EDI
	movl	%esi, %edx
.Ltmp417:
	.loc	8 181 5 discriminator 1 # auxfnct.c:181:5
	testl	%esi, %esi
	jle	.LBB6_12
# BB#2:                                 # %for.cond6.preheader.lr.ph.us.preheader
	#DEBUG_VALUE: evolve:nx <- %EDI
	#DEBUG_VALUE: evolve:ny <- %ESI
	#DEBUG_VALUE: evolve:twiddle <- [%RSP+-104]
	#DEBUG_VALUE: evolve:y <- [%RSP+-72]
	#DEBUG_VALUE: evolve:x <- [%RSP+-80]
	#DEBUG_VALUE: evolve:nz <- [%RSP+-108]
	movq	%rax, %rcx
.Ltmp418:
	.loc	8 183 9                 # auxfnct.c:183:9
	movq	%rcx, -32(%rsp)         # 8-byte Spill
	imulq	%rcx, %rdx
.Ltmp419:
	.loc	8 182 7 discriminator 1 # auxfnct.c:182:7
	movq	%rdx, -56(%rsp)         # 8-byte Spill
	movl	%edi, %ebp
	andl	$1, %ebp
.Ltmp420:
	.loc	8 183 9                 # auxfnct.c:183:9
	movq	%rdx, %rax
	shlq	$4, %rax
	movq	%rax, -40(%rsp)         # 8-byte Spill
	movq	%rcx, %r9
	shlq	$4, %r9
	movq	-104(%rsp), %rax        # 8-byte Reload
	leaq	8(%rax), %rax
	movq	%rax, -64(%rsp)         # 8-byte Spill
	leaq	(,%rdx,8), %rax
	movq	%rax, -48(%rsp)         # 8-byte Spill
	leaq	(,%rcx,8), %rax
	xorl	%ecx, %ecx
	movq	%rcx, -88(%rsp)         # 8-byte Spill
	xorl	%ecx, %ecx
	movq	%rcx, -96(%rsp)         # 8-byte Spill
	.p2align	4, 0x90
.LBB6_3:                                # %for.cond6.preheader.lr.ph.us
                                        # =>This Loop Header: Depth=1
                                        #     Child Loop BB6_5 Depth 2
                                        #       Child Loop BB6_9 Depth 3
	testl	%edi, %edi
	jle	.LBB6_11
# BB#4:                                 #   in Loop: Header=BB6_3 Depth=1
	movq	-56(%rsp), %rdx         # 8-byte Reload
	imulq	-96(%rsp), %rdx         # 8-byte Folded Reload
	.loc	8 183 22 is_stmt 0      # auxfnct.c:183:22
	movq	-104(%rsp), %rcx        # 8-byte Reload
	leaq	(%rcx,%rdx,8), %rcx
	.loc	8 183 9                 # auxfnct.c:183:9
	movq	%rcx, -16(%rsp)         # 8-byte Spill
	shlq	$4, %rdx
	movq	-72(%rsp), %rcx         # 8-byte Reload
	leaq	(%rcx,%rdx), %rcx
	.loc	8 184 9 is_stmt 1       # auxfnct.c:184:9
	movq	%rcx, -24(%rsp)         # 8-byte Spill
	addq	-80(%rsp), %rdx         # 8-byte Folded Reload
	movq	%rdx, -8(%rsp)          # 8-byte Spill
	movq	-64(%rsp), %r15         # 8-byte Reload
	movq	-88(%rsp), %rcx         # 8-byte Reload
	xorl	%r13d, %r13d
	.p2align	4, 0x90
.LBB6_5:                                # %for.body8.lr.ph.us.us
                                        #   Parent Loop BB6_3 Depth=1
                                        # =>  This Loop Header: Depth=2
                                        #       Child Loop BB6_9 Depth 3
	testl	%ebp, %ebp
	movl	$0, %r10d
	je	.LBB6_7
# BB#6:                                 # %for.body8.us.us.prol
                                        #   in Loop: Header=BB6_5 Depth=2
	.loc	8 183 9                 # auxfnct.c:183:9
	movq	%r13, %rdx
	imulq	-32(%rsp), %rdx         # 8-byte Folded Reload
	.loc	8 183 22 is_stmt 0      # auxfnct.c:183:22
	movq	-16(%rsp), %rbx         # 8-byte Reload
	movsd	(%rbx,%rdx,8), %xmm0    # xmm0 = mem[0],zero
	.loc	8 183 9                 # auxfnct.c:183:9
	shlq	$4, %rdx
	movl	%ebp, %ebx
	movq	-24(%rsp), %rbp         # 8-byte Reload
	leaq	(%rbp,%rdx), %rbp
	.loc	8 184 9 is_stmt 1       # auxfnct.c:184:9
	addq	-8(%rsp), %rdx          # 8-byte Folded Reload
	.loc	8 183 22                # auxfnct.c:183:22
	movupd	(%rbp), %xmm1
	movlhps	%xmm0, %xmm0            # xmm0 = xmm0[0,0]
	mulpd	%xmm1, %xmm0
	movupd	%xmm0, (%rbp)
	.loc	8 184 22                # auxfnct.c:184:22
	movups	(%rbp), %xmm0
	movl	%ebx, %ebp
	movups	%xmm0, (%rdx)
	movl	$1, %r10d
.Ltmp421:
.LBB6_7:                                # %for.body8.lr.ph.us.us.split
                                        #   in Loop: Header=BB6_5 Depth=2
	cmpl	$1, %edi
	je	.LBB6_10
# BB#8:                                 # %for.body8.lr.ph.us.us.split.split
                                        #   in Loop: Header=BB6_5 Depth=2
	.loc	8 182 7 discriminator 1 # auxfnct.c:182:7
	movl	%edi, %r11d
	subl	%r10d, %r11d
	leaq	(%r15,%r10,8), %r12
	shlq	$4, %r10
	movq	-72(%rsp), %rdx         # 8-byte Reload
	leaq	(%rdx,%r10), %r8
	addq	-80(%rsp), %r10         # 8-byte Folded Reload
	movq	%rcx, %r14
	.p2align	4, 0x90
.LBB6_9:                                # %for.body8.us.us
                                        #   Parent Loop BB6_3 Depth=1
                                        #     Parent Loop BB6_5 Depth=2
                                        # =>    This Inner Loop Header: Depth=3
.Ltmp422:
	.loc	8 183 22                # auxfnct.c:183:22
	movupd	(%r8,%r14), %xmm0
	movsd	-8(%r12), %xmm1         # xmm1 = mem[0],zero
	movlhps	%xmm1, %xmm1            # xmm1 = xmm1[0,0]
	mulpd	%xmm0, %xmm1
	movupd	%xmm1, (%r8,%r14)
	.loc	8 184 22                # auxfnct.c:184:22
	movups	(%r8,%r14), %xmm0
	movups	%xmm0, (%r10,%r14)
	.loc	8 183 22                # auxfnct.c:183:22
	movupd	16(%r8,%r14), %xmm0
	movsd	(%r12), %xmm1           # xmm1 = mem[0],zero
	movlhps	%xmm1, %xmm1            # xmm1 = xmm1[0,0]
	mulpd	%xmm0, %xmm1
	movupd	%xmm1, 16(%r8,%r14)
	.loc	8 184 22                # auxfnct.c:184:22
	movups	16(%r8,%r14), %xmm0
	movups	%xmm0, 16(%r10,%r14)
.Ltmp423:
	.loc	8 182 7 discriminator 1 # auxfnct.c:182:7
	addq	$32, %r14
	addq	$16, %r12
	addl	$-2, %r11d
	jne	.LBB6_9
.Ltmp424:
.LBB6_10:                               # %for.cond6.for.inc52_crit_edge.us.us
                                        #   in Loop: Header=BB6_5 Depth=2
	.loc	8 181 5 discriminator 1 # auxfnct.c:181:5
	incq	%r13
	addq	%r9, %rcx
	addq	%rax, %r15
	cmpl	%esi, %r13d
	jne	.LBB6_5
.Ltmp425:
.LBB6_11:                               # %for.cond3.for.inc55_crit_edge.us
                                        #   in Loop: Header=BB6_3 Depth=1
	movq	-96(%rsp), %rdx         # 8-byte Reload
	.loc	8 180 3 discriminator 1 # auxfnct.c:180:3
	incq	%rdx
	movq	%rdx, -96(%rsp)         # 8-byte Spill
	movq	-88(%rsp), %rcx         # 8-byte Reload
	addq	-40(%rsp), %rcx         # 8-byte Folded Reload
	movq	%rcx, -88(%rsp)         # 8-byte Spill
	movq	-48(%rsp), %rcx         # 8-byte Reload
	addq	%rcx, -64(%rsp)         # 8-byte Folded Spill
	cmpl	-108(%rsp), %edx        # 4-byte Folded Reload
	jne	.LBB6_3
.Ltmp426:
.LBB6_12:                               # %for.end57
	.loc	8 188 1                 # auxfnct.c:188:1
	popq	%rbx
	popq	%r12
	popq	%r13
	popq	%r14
	popq	%r15
	popq	%rbp
	retq
.Ltmp427:
.Lfunc_end6:
	.size	evolve, .Lfunc_end6-evolve
	.cfi_endproc

	.globl	CalculateChecksum
	.p2align	4, 0x90
	.type	CalculateChecksum,@function
CalculateChecksum:                      # @CalculateChecksum
.Lfunc_begin7:
	.loc	8 119 0                 # auxfnct.c:119:0
	.cfi_startproc
# BB#0:                                 # %entry
	pushq	%rbp
.Ltmp428:
	.cfi_def_cfa_offset 16
	pushq	%r15
.Ltmp429:
	.cfi_def_cfa_offset 24
	pushq	%r14
.Ltmp430:
	.cfi_def_cfa_offset 32
	pushq	%r13
.Ltmp431:
	.cfi_def_cfa_offset 40
	pushq	%r12
.Ltmp432:
	.cfi_def_cfa_offset 48
	pushq	%rbx
.Ltmp433:
	.cfi_def_cfa_offset 56
	subq	$24, %rsp
.Ltmp434:
	.cfi_def_cfa_offset 80
.Ltmp435:
	.cfi_offset %rbx, -56
.Ltmp436:
	.cfi_offset %r12, -48
.Ltmp437:
	.cfi_offset %r13, -40
.Ltmp438:
	.cfi_offset %r14, -32
.Ltmp439:
	.cfi_offset %r15, -24
.Ltmp440:
	.cfi_offset %rbp, -16
	#DEBUG_VALUE: CalculateChecksum:csum <- %RDI
	#DEBUG_VALUE: CalculateChecksum:iterN <- %ESI
	#DEBUG_VALUE: CalculateChecksum:d1 <- %EDX
	#DEBUG_VALUE: CalculateChecksum:d2 <- %ECX
	#DEBUG_VALUE: CalculateChecksum:d3 <- %R8D
	#DEBUG_VALUE: CalculateChecksum:u <- %R9
	movl	%edx, %r10d
.Ltmp441:
	#DEBUG_VALUE: CalculateChecksum:d1 <- %R10D
	movq	%rdi, %r14
.Ltmp442:
	#DEBUG_VALUE: CalculateChecksum:csum <- %R14
	movl	%ecx, %r12d
.Ltmp443:
	.loc	8 118 45 prologue_end   # auxfnct.c:118:45
	leal	1(%r10), %r13d
.Ltmp444:
	#DEBUG_VALUE: CalculateChecksum:i <- 1
	#DEBUG_VALUE: CalculateChecksum:csum_temp [bit_piece offset=64 size=64] <- 0.000000e+00
	#DEBUG_VALUE: CalculateChecksum:csum_temp [bit_piece offset=0 size=64] <- 0.000000e+00
	.loc	8 127 17                # auxfnct.c:127:17
	imulq	%r13, %r12
	xorpd	%xmm1, %xmm1
	movl	$1, %edi
	movl	$3, %r11d
	movl	$5, %ebx
.Ltmp445:
	.p2align	4, 0x90
.LBB7_1:                                # %for.body
                                        # =>This Inner Loop Header: Depth=1
	.loc	8 124 13                # auxfnct.c:124:13
	movl	%edi, %eax
	cltd
	idivl	%r10d
	movl	%edx, %r15d
	.loc	8 125 17                # auxfnct.c:125:17
	movl	%r11d, %eax
	cltd
	idivl	%ecx
	movl	%edx, %ebp
	.loc	8 126 17                # auxfnct.c:126:17
	movl	%ebx, %eax
	cltd
	idivl	%r8d
	.loc	8 127 17                # auxfnct.c:127:17
	movslq	%r15d, %rax
	movslq	%ebp, %rbp
	movslq	%edx, %rdx
	imulq	%r12, %rdx
	shlq	$4, %rdx
	addq	%r9, %rdx
	imulq	%r13, %rbp
	shlq	$4, %rbp
	addq	%rdx, %rbp
	shlq	$4, %rax
	movupd	(%rax,%rbp), %xmm0
	addpd	%xmm0, %xmm1
.Ltmp446:
	.loc	8 122 27 discriminator 2 # auxfnct.c:122:27
	incl	%edi
.Ltmp447:
	#DEBUG_VALUE: CalculateChecksum:i1 <- %EDI
	#DEBUG_VALUE: CalculateChecksum:i <- %EDI
	.loc	8 122 3 is_stmt 0 discriminator 1 # auxfnct.c:122:3
	addl	$3, %r11d
	addl	$5, %ebx
	cmpl	$1025, %edi             # imm = 0x401
	jne	.LBB7_1
.Ltmp448:
# BB#2:                                 # %for.end
	#DEBUG_VALUE: CalculateChecksum:i <- %EDI
	#DEBUG_VALUE: CalculateChecksum:i1 <- %EDI
	.loc	8 129 15 is_stmt 1      # auxfnct.c:129:15
	imull	%r10d, %ecx
	imull	%r8d, %ecx
	xorps	%xmm0, %xmm0
	cvtsi2sdl	%ecx, %xmm0
	movlhps	%xmm0, %xmm0            # xmm0 = xmm0[0,0]
	divpd	%xmm0, %xmm1
	movapd	%xmm1, (%rsp)           # 16-byte Spill
	movapd	%xmm1, %xmm0
	.loc	8 130 3                 # auxfnct.c:130:3
	shufpd	$1, %xmm1, %xmm1        # xmm1 = xmm1[1,0]
	movl	$.L.str, %edi
.Ltmp449:
	movb	$2, %al
	callq	printf
	.loc	8 132 11                # auxfnct.c:132:11
	movaps	(%rsp), %xmm0           # 16-byte Reload
	movups	%xmm0, (%r14)
	.loc	8 133 1                 # auxfnct.c:133:1
	addq	$24, %rsp
	popq	%rbx
	popq	%r12
	popq	%r13
	popq	%r14
	popq	%r15
	popq	%rbp
	retq
.Ltmp450:
.Lfunc_end7:
	.size	CalculateChecksum, .Lfunc_end7-CalculateChecksum
	.cfi_endproc

	.section	.rodata.cst16,"aM",@progbits,16
	.p2align	4
.LCPI8_0:
	.quad	4647716223740731491     # double 512.16010453460001
	.quad	4647710234438055421     # double 511.7395998266
.LCPI8_1:
	.quad	4647715611847849306     # double 512.09054036780003
	.quad	4647712378429286815     # double 511.86147161820003
.LCPI8_2:
	.quad	4647715363644646846     # double 512.06232293059998
	.quad	4647713186768359672     # double 511.9074203747
.LCPI8_3:
	.quad	4647715201083779904     # double 512.04384189970006
	.quad	4647713664742752214     # double 511.9345900733
.LCPI8_4:
	.quad	4647715089463888328     # double 512.03115218719995
	.quad	4647714026129912094     # double 511.95513255499998
.LCPI8_5:
	.quad	4647715014316171396     # double 512.02260888089995
	.quad	4647714323181659480     # double 511.97201799189997
.LCPI8_6:
	.quad	4647714964361158012     # double 512.01692965339998
	.quad	4647714571568805837     # double 511.98613716649999
.LCPI8_7:
	.quad	4647714930873233849     # double 512.01312251720003
	.quad	4647714779143823957     # double 511.99793644020002
.LCPI8_8:
	.quad	4647714907600474636     # double 512.01047671080005
	.quad	4647714883769205737     # double 512.00776740920003
.LCPI8_9:
	.quad	4647714890325705284     # double 512.00851279690005
	.quad	4647714955694004279     # double 512.01594431210003
.LCPI8_10:
	.quad	4647714876336537919     # double 512.00692241269996
	.quad	4647715015516715828     # double 512.02274536699997
.LCPI8_11:
	.quad	4647714863963986020     # double 512.00551581640002
	.quad	4647715065339872260     # double 512.02840960410003
.LCPI8_12:
	.quad	4647714852231752749     # double 512.00418201590003
	.quad	4647715106925822707     # double 512.0331373793
.LCPI8_13:
	.quad	4647714840607929565     # double 512.0028605402
	.quad	4647715141727464474     # double 512.03709386790001
.LCPI8_14:
	.quad	4647714828836653955     # double 512.00152230109995
	.quad	4647715170930627008     # double 512.04041388309997
.LCPI8_15:
	.quad	4647714816827357828     # double 512.00015700220001
	.quad	4647715195498120097     # double 512.04320688370001
.LCPI8_16:
	.quad	4647714793720978473     # double 511.99876505549997
	.quad	4647715216210300567     # double 512.04556158599996
.LCPI8_17:
	.quad	4647714768871199408     # double 511.99735250909998
	.quad	4647715233700084256     # double 512.0475499442
.LCPI8_18:
	.quad	4647714743810041432     # double 511.99592794720002
	.quad	4647715248482083067     # double 512.04923046290003
.LCPI8_19:
	.quad	4647714718700865583     # double 511.99450065579998
	.quad	4647715260976293729     # double 512.05065089020002
.LCPI8_20:
	.quad	4647714693701231000     # double 511.99307959110001
	.quad	4647715271527101756     # double 512.05185037820002
.LCPI8_21:
	.quad	4647714668953513002     # double 511.9916728462
	.quad	4647715280418398411     # double 512.05286120159997
.LCPI8_22:
	.quad	4647714644580811152     # double 511.99028741849997
	.quad	4647715287885559228     # double 512.05371011950001
.LCPI8_23:
	.quad	4647714620686013351     # double 511.98892915649998
	.quad	4647715294124908604     # double 512.05441945140001
.LCPI8_24:
	.quad	4647714597352589244     # double 511.98760280490001
	.quad	4647715299301207037     # double 512.05500792839996
.LCPI8_26:
	.quad	4647716777032492091     # double 512.22300652520005
	.quad	4647712236497160604     # double 511.85340371090001
.LCPI8_27:
	.quad	4647715223563750771     # double 512.0463975765
	.quad	4647709645421436241     # double 511.70611810819997
.LCPI8_28:
	.quad	4647714579300738730     # double 511.98657667600003
	.quad	4647709707316937436     # double 511.7096364601
.LCPI8_29:
	.quad	4647713968909458695     # double 511.95187994880001
	.quad	4647710195498954917     # double 511.73738639499999
.LCPI8_30:
	.quad	4647713529612755568     # double 511.92690882229999
	.quad	4647710734670750249     # double 511.76803476319998
.LCPI8_31:
	.quad	4647713201217017344     # double 511.90824168580002
	.quad	4647711240495181225     # double 511.79678755319998
.LCPI8_32:
	.quad	4647712957385413303     # double 511.89438146380002
	.quad	4647711693329148919     # double 511.82252818410001
.LCPI8_33:
	.quad	4647712778948607367     # double 511.88423850570001
	.quad	4647712091523894302     # double 511.84516293479999
.LCPI8_34:
	.quad	4647712650614621723     # double 511.87694356319997
	.quad	4647712438952045103     # double 511.8649119387
.LCPI8_35:
	.quad	4647712560486010485     # double 511.87182034480003
	.quad	4647712740982535951     # double 511.88208038440001
.LCPI8_36:
	.quad	4647712499556552521     # double 511.86835690610002
	.quad	4647713003065939774     # double 511.89697810109999
.LCPI8_37:
	.quad	4647712461099210513     # double 511.86617085929998
	.quad	4647713230247602292     # double 511.90989188349999
.LCPI8_38:
	.quad	4647712440094768417     # double 511.86497689499998
	.quad	4647713427030683327     # double 511.92107770659999
.LCPI8_39:
	.quad	4647712432770571380     # double 511.86456056259999
	.quad	4647713597371278493     # double 511.93076044840001
.LCPI8_40:
	.quad	4647712436255569362     # double 511.86475866180001
	.quad	4647713744720239338     # double 511.93913626710003
.LCPI8_41:
	.quad	4647712448332524157     # double 511.86544515719999
	.quad	4647713872078113742     # double 511.94637572409999
.LCPI8_42:
	.quad	4647712467263262694     # double 511.86652124509999
	.quad	4647713982050381865     # double 511.95262692379998
.LCPI8_43:
	.quad	4647712491666034867     # double 511.86790838209998
	.quad	4647714076898424225     # double 511.95801841079998
.LCPI8_44:
	.quad	4647712520428982853     # double 511.86954336640002
	.quad	4647714158584978149     # double 511.96266175379998
.LCPI8_45:
	.quad	4647712552648367905     # double 511.87137482639997
	.quad	4647714228814040370     # double 511.96665381380001
.LCPI8_46:
	.quad	4647712587583699731     # double 511.8733606701
	.quad	4647714289065660850     # double 511.97007872189999
.LCPI8_47:
	.quad	4647712624624527714     # double 511.87546619739999
	.quad	4647714340626130976     # double 511.97300959530003
.LCPI8_48:
	.quad	4647712663265349185     # double 511.87766267379999
	.quad	4647714384614139616     # double 511.9755100241
.LCPI8_49:
	.quad	4647712703086275607     # double 511.87992623140002
	.quad	4647714422003375566     # double 511.9776353561
.LCPI8_50:
	.quad	4647712743737866350     # double 511.88223700679998
	.quad	4647714453642040798     # double 511.97943380599997
.LCPI8_52:
	.quad	4647780855375829763     # double 519.50787074569996
	.quad	4647740341443749267     # double 514.90196992380004
.LCPI8_53:
	.quad	4647745973117586196     # double 515.54221711340006
	.quad	4647721481303322541     # double 512.75782019969995
.LCPI8_54:
	.quad	4647736522464258755     # double 514.46780222220002
	.quad	4647716796192372369     # double 512.22518475139998
.LCPI8_55:
	.quad	4647732540096568058     # double 514.01505943279994
	.quad	4647715774474714214     # double 512.1090289018
.LCPI8_56:
	.quad	4647730252965031893     # double 513.75504268099996
	.quad	4647715821443041480     # double 512.11436858239995
.LCPI8_57:
	.quad	4647728722998927762     # double 513.58110567280005
	.quad	4647716132014389119     # double 512.14967645679997
.LCPI8_58:
	.quad	4647727630776127053     # double 513.4569343165
	.quad	4647716461126652683     # double 512.18709218929996
.LCPI8_59:
	.quad	4647726823851136980     # double 513.36519756610005
	.quad	4647716744649737202     # double 512.2193250322
.LCPI8_60:
	.quad	4647726210954455214     # double 513.2955192805
	.quad	4647716974654790769     # double 512.24547357940003
.LCPI8_61:
	.quad	4647725731812737565     # double 513.24104717379998
	.quad	4647717158417320528     # double 512.26636496030005
.LCPI8_62:
	.quad	4647725345373930924     # double 513.19711416790005
	.quad	4647717305514581170     # double 512.28308798269995
.LCPI8_63:
	.quad	4647725023493253852     # double 513.16052057160005
	.quad	4647717424252945000     # double 512.29658697180002
.LCPI8_64:
	.quad	4647724746881177817     # double 513.12907341940002
	.quad	4647717521060745450     # double 512.30759274449997
.LCPI8_65:
	.quad	4647724502337582822     # double 513.10127203139996
	.quad	4647717600717379248     # double 512.31664865530001
.LCPI8_66:
	.quad	4647724280841300538     # double 513.0760908195
	.quad	4647717666736571534     # double 512.32415416849994
.LCPI8_67:
	.quad	4647724076233382276     # double 513.05282959229999
	.quad	4647717721708558840     # double 512.33040375990004
.LCPI8_68:
	.quad	4647723884313055902     # double 513.03101077730003
	.quad	4647717767562923377     # double 512.33561679759998
.LCPI8_69:
	.quad	4647723702218414034     # double 513.0103090133
	.quad	4647717805759284425     # double 512.3399592211
.LCPI8_70:
	.quad	4647723528002291949     # double 512.99050293330004
	.quad	4647717837422381685     # double 512.34355889849996
.LCPI8_71:
	.quad	4647723360341525039     # double 512.97144211090006
	.quad	4647717863436847030     # double 512.34651640080006
.LCPI8_73:
	.quad	4647765519268125991     # double 517.76435715790001
	.quad	4647640582505672624     # double 507.78034585969999
.LCPI8_74:
	.quad	4647745180695271480     # double 515.45212912629995
	.quad	4647658959255719237     # double 508.82494315989999
.LCPI8_75:
	.quad	4647738045249536008     # double 514.64092286489995
	.quad	4647672961722881690     # double 509.62089126590001
.LCPI8_76:
	.quad	4647734500008488958     # double 514.23787562129996
	.quad	4647681431436801940     # double 510.1023387619
.LCPI8_77:
	.quad	4647732079245864934     # double 513.96266677369999
	.quad	4647686626801643086     # double 510.39766106169998
.LCPI8_78:
	.quad	4647730141283916872     # double 513.7423460082
	.quad	4647690094941358305     # double 510.59480198019997
.LCPI8_79:
	.quad	4647728490782203917     # double 513.55470568780004
	.quad	4647692656620458864     # double 510.74041657830003
.LCPI8_80:
	.quad	4647727051625794266     # double 513.39109254660002
	.quad	4647694719142209835     # double 510.8576573661
.LCPI8_81:
	.quad	4647725784794818171     # double 513.24707053899999
	.quad	4647696479600820621     # double 510.95772785230002
.LCPI8_82:
	.quad	4647724665073809555     # double 513.11977299839998
	.quad	4647698033036517657     # double 511.04603044829997
.LCPI8_83:
	.quad	4647723673392869532     # double 513.00703192829997
	.quad	4647699426565149247     # double 511.12524337999997
.LCPI8_84:
	.quad	4647722793975101357     # double 512.90705370319995
	.quad	4647700685539243949     # double 511.19680777180002
.LCPI8_85:
	.quad	4647722013186799220     # double 512.81828835019996
	.quad	4647701825786187200     # double 511.2616233064
.LCPI8_86:
	.quad	4647721319043013699     # double 512.73937333829997
	.quad	4647702859102794068     # double 511.32036055510002
.LCPI8_87:
	.quad	4647720700966746400     # double 512.66910620199997
	.quad	4647703795574513518     # double 511.37359280930002
.LCPI8_88:
	.quad	4647720149639936225     # double 512.60642760040002
	.quad	4647704644454585601     # double 511.42184605480003
.LCPI8_89:
	.quad	4647719656883302980     # double 512.55040765700005
	.quad	4647705414427998128     # double 511.46561397599999
.LCPI8_90:
	.quad	4647719215543865578     # double 512.50023317199998
	.quad	4647706113640350174     # double 511.50535959659999
.LCPI8_91:
	.quad	4647718819385538875     # double 512.45519518460003
	.quad	4647706749658464928     # double 511.54151304070001
.LCPI8_92:
	.quad	4647718462983843551     # double 512.41467700290002
	.quad	4647707329429721838     # double 511.5744692211
.LCPI8_94:
	.quad	4647585926309710736     # double 504.67350081929999
	.quad	4647704344410989670     # double 511.40479055100002
.LCPI8_95:
	.quad	4647608228472027966     # double 505.94123197340002
	.quad	4647677537017306482     # double 509.88096664329998
.LCPI8_96:
	.quad	4647625758340485386     # double 506.93768962870001
	.quad	4647676366038795091     # double 509.81440422129998
.LCPI8_97:
	.quad	4647640739797191663     # double 507.78928684739998
	.quad	4647681981620352239     # double 510.13361307589997
.LCPI8_98:
	.quad	4647653652860944873     # double 508.52330953910001
	.quad	4647688277027114740     # double 510.49146551939998
.LCPI8_99:
	.quad	4647664655022133161     # double 509.14870999589999
	.quad	4647693560290629122     # double 510.79178428030002
.LCPI8_101:
	.quad	4648201777868773741     # double 567.36121789440006
	.quad	4647867204986466646     # double 529.32468491750001
.LCPI8_102:
	.quad	4648164680088135076     # double 563.14368852710004
	.quad	4647857444082945719     # double 528.21499866290003
.LCPI8_103:
	.quad	4648131771445366233     # double 559.40240899699995
	.quad	4647847633423404540     # double 527.09965580369999
.LCPI8_104:
	.quad	4648102457547981204     # double 556.06980470200006
	.quad	4647837985294094392     # double 526.00279049250003
.LCPI8_105:
	.quad	4648076246021328515     # double 553.08989912499999
	.quad	4647828637633885897     # double 524.94008456330005
.LCPI8_106:
	.quad	4648052725922390170     # double 550.41597345380001
	.quad	4647819675647827362     # double 523.92122470859999
.LCPI8_108:
	.quad	4648089605539473607     # double 554.60870049640005
	.quad	4647231669510505718     # double 484.53633319779999
.LCPI8_109:
	.quad	4648089868018605739     # double 554.63854091890005
	.quad	4647266749978803780     # double 486.53042695110003
.LCPI8_110:
	.quad	4648089659548546451     # double 554.61484061709996
	.quad	4647299482796776185     # double 488.39107223360003
.LCPI8_111:
	.quad	4648089022008818436     # double 554.54236074150003
	.quad	4647330027136047042     # double 490.12731690459998
.LCPI8_112:
	.quad	4648087994125719196     # double 554.42550396239994
	.quad	4647358531207884585     # double 491.7475857993
.LCPI8_113:
	.quad	4648086611707355297     # double 554.26834119019998
	.quad	4647385133033128467     # double 493.2597244941
	.section	.rodata.cst8,"aM",@progbits,8
	.p2align	3
.LCPI8_25:
	.quad	4647710234438055421     # double 511.7395998266
.LCPI8_51:
	.quad	4647712236497160604     # double 511.85340371090001
.LCPI8_72:
	.quad	4647740341443749267     # double 514.90196992380004
.LCPI8_93:
	.quad	4647640582505672624     # double 507.78034585969999
.LCPI8_100:
	.quad	4647704344410989670     # double 511.40479055100002
.LCPI8_107:
	.quad	4647867204986466646     # double 529.32468491750001
.LCPI8_114:
	.quad	4647231669510505718     # double 484.53633319779999
.LCPI8_115:
	.quad	4427486594234968593     # double 9.9999999999999998E-13
	.text
	.globl	verify
	.p2align	4, 0x90
	.type	verify,@function
verify:                                 # @verify
.Lfunc_begin8:
	.file	9 "/home/norouzi/Desktop/software/benchmarks/NAS/NPB3.3-SER-C/FT/verify.c"
	.loc	9 43 0                  # verify.c:43:0
	.cfi_startproc
# BB#0:                                 # %entry
	pushq	%r15
.Ltmp451:
	.cfi_def_cfa_offset 16
	pushq	%r14
.Ltmp452:
	.cfi_def_cfa_offset 24
	pushq	%r13
.Ltmp453:
	.cfi_def_cfa_offset 32
	pushq	%r12
.Ltmp454:
	.cfi_def_cfa_offset 40
	pushq	%rbx
.Ltmp455:
	.cfi_def_cfa_offset 48
	subq	$416, %rsp              # imm = 0x1A0
.Ltmp456:
	.cfi_def_cfa_offset 464
.Ltmp457:
	.cfi_offset %rbx, -48
.Ltmp458:
	.cfi_offset %r12, -40
.Ltmp459:
	.cfi_offset %r13, -32
.Ltmp460:
	.cfi_offset %r14, -24
.Ltmp461:
	.cfi_offset %r15, -16
	#DEBUG_VALUE: verify:n1 <- %EDI
	#DEBUG_VALUE: verify:n2 <- %ESI
	#DEBUG_VALUE: verify:n3 <- %EDX
	#DEBUG_VALUE: verify:nt <- %ECX
	#DEBUG_VALUE: verify:cksum <- %R8
	#DEBUG_VALUE: verify:verified <- %R9
	movq	%r9, %r14
.Ltmp462:
	#DEBUG_VALUE: verify:verified <- %R14
	movq	%r8, %r15
.Ltmp463:
	#DEBUG_VALUE: verify:epsilon <- 1.000000e-12
	#DEBUG_VALUE: verify:cksum <- %R15
	.loc	9 52 13 prologue_end    # verify.c:52:13
	movl	$1, (%r14)
.Ltmp464:
	.loc	9 54 18                 # verify.c:54:18
	cmpl	$64, %edi
	jne	.LBB8_5
.Ltmp465:
# BB#1:                                 # %entry
	#DEBUG_VALUE: verify:cksum <- %R15
	#DEBUG_VALUE: verify:verified <- %R14
	#DEBUG_VALUE: verify:nt <- %ECX
	#DEBUG_VALUE: verify:n3 <- %EDX
	#DEBUG_VALUE: verify:n2 <- %ESI
	#DEBUG_VALUE: verify:n1 <- %EDI
	cmpl	$64, %esi
	jne	.LBB8_5
.Ltmp466:
# BB#2:                                 # %entry
	#DEBUG_VALUE: verify:n1 <- %EDI
	#DEBUG_VALUE: verify:n2 <- %ESI
	#DEBUG_VALUE: verify:n3 <- %EDX
	#DEBUG_VALUE: verify:nt <- %ECX
	#DEBUG_VALUE: verify:verified <- %R14
	#DEBUG_VALUE: verify:cksum <- %R15
	cmpl	$64, %edx
	jne	.LBB8_5
.Ltmp467:
# BB#3:                                 # %entry
	#DEBUG_VALUE: verify:cksum <- %R15
	#DEBUG_VALUE: verify:verified <- %R14
	#DEBUG_VALUE: verify:nt <- %ECX
	#DEBUG_VALUE: verify:n3 <- %EDX
	#DEBUG_VALUE: verify:n2 <- %ESI
	#DEBUG_VALUE: verify:n1 <- %EDI
	cmpl	$6, %ecx
	jne	.LBB8_5
.Ltmp468:
# BB#4:                                 # %if.then
	#DEBUG_VALUE: verify:n1 <- %EDI
	#DEBUG_VALUE: verify:n2 <- %ESI
	#DEBUG_VALUE: verify:n3 <- %EDX
	#DEBUG_VALUE: verify:nt <- %ECX
	#DEBUG_VALUE: verify:verified <- %R14
	#DEBUG_VALUE: verify:cksum <- %R15
	.loc	9 56 16                 # verify.c:56:16
	movaps	.LCPI8_108(%rip), %xmm0 # xmm0 = [5.546087e+02,4.845363e+02]
	movaps	%xmm0, 16(%rsp)
	.loc	9 57 16                 # verify.c:57:16
	movaps	.LCPI8_109(%rip), %xmm0 # xmm0 = [5.546385e+02,4.865304e+02]
	movaps	%xmm0, 32(%rsp)
	.loc	9 58 16                 # verify.c:58:16
	movaps	.LCPI8_110(%rip), %xmm0 # xmm0 = [5.546148e+02,4.883911e+02]
	movaps	%xmm0, 48(%rsp)
	.loc	9 59 16                 # verify.c:59:16
	movaps	.LCPI8_111(%rip), %xmm0 # xmm0 = [5.545424e+02,4.901273e+02]
	movaps	%xmm0, 64(%rsp)
	.loc	9 60 16                 # verify.c:60:16
	movaps	.LCPI8_112(%rip), %xmm0 # xmm0 = [5.544255e+02,4.917476e+02]
	movaps	%xmm0, 80(%rsp)
	.loc	9 61 16                 # verify.c:61:16
	movapd	.LCPI8_113(%rip), %xmm0 # xmm0 = [5.542683e+02,4.932597e+02]
	movapd	%xmm0, 96(%rsp)
	movsd	.LCPI8_114(%rip), %xmm1 # xmm1 = mem[0],zero
	jmp	.LBB8_35
.Ltmp469:
.LBB8_5:                                # %if.else
	#DEBUG_VALUE: verify:cksum <- %R15
	#DEBUG_VALUE: verify:verified <- %R14
	#DEBUG_VALUE: verify:nt <- %ECX
	#DEBUG_VALUE: verify:n3 <- %EDX
	#DEBUG_VALUE: verify:n2 <- %ESI
	#DEBUG_VALUE: verify:n1 <- %EDI
	.loc	9 62 26 discriminator 1 # verify.c:62:26
	cmpl	$128, %edi
	jne	.LBB8_10
.Ltmp470:
# BB#6:                                 # %if.else
	#DEBUG_VALUE: verify:n1 <- %EDI
	#DEBUG_VALUE: verify:n2 <- %ESI
	#DEBUG_VALUE: verify:n3 <- %EDX
	#DEBUG_VALUE: verify:nt <- %ECX
	#DEBUG_VALUE: verify:verified <- %R14
	#DEBUG_VALUE: verify:cksum <- %R15
	cmpl	$128, %esi
	jne	.LBB8_10
.Ltmp471:
# BB#7:                                 # %if.else
	#DEBUG_VALUE: verify:cksum <- %R15
	#DEBUG_VALUE: verify:verified <- %R14
	#DEBUG_VALUE: verify:nt <- %ECX
	#DEBUG_VALUE: verify:n3 <- %EDX
	#DEBUG_VALUE: verify:n2 <- %ESI
	#DEBUG_VALUE: verify:n1 <- %EDI
	cmpl	$32, %edx
	jne	.LBB8_10
.Ltmp472:
# BB#8:                                 # %if.else
	#DEBUG_VALUE: verify:n1 <- %EDI
	#DEBUG_VALUE: verify:n2 <- %ESI
	#DEBUG_VALUE: verify:n3 <- %EDX
	#DEBUG_VALUE: verify:nt <- %ECX
	#DEBUG_VALUE: verify:verified <- %R14
	#DEBUG_VALUE: verify:cksum <- %R15
	cmpl	$6, %ecx
	jne	.LBB8_10
.Ltmp473:
# BB#9:                                 # %if.then33
	#DEBUG_VALUE: verify:cksum <- %R15
	#DEBUG_VALUE: verify:verified <- %R14
	#DEBUG_VALUE: verify:nt <- %ECX
	#DEBUG_VALUE: verify:n3 <- %EDX
	#DEBUG_VALUE: verify:n2 <- %ESI
	#DEBUG_VALUE: verify:n1 <- %EDI
	.loc	9 64 16                 # verify.c:64:16
	movaps	.LCPI8_101(%rip), %xmm0 # xmm0 = [5.673612e+02,5.293247e+02]
	movaps	%xmm0, 16(%rsp)
	.loc	9 65 16                 # verify.c:65:16
	movaps	.LCPI8_102(%rip), %xmm0 # xmm0 = [5.631437e+02,5.282150e+02]
	movaps	%xmm0, 32(%rsp)
	.loc	9 66 16                 # verify.c:66:16
	movaps	.LCPI8_103(%rip), %xmm0 # xmm0 = [5.594024e+02,5.270997e+02]
	movaps	%xmm0, 48(%rsp)
	.loc	9 67 16                 # verify.c:67:16
	movaps	.LCPI8_104(%rip), %xmm0 # xmm0 = [5.560698e+02,5.260028e+02]
	movaps	%xmm0, 64(%rsp)
	.loc	9 68 16                 # verify.c:68:16
	movaps	.LCPI8_105(%rip), %xmm0 # xmm0 = [5.530899e+02,5.249401e+02]
	movaps	%xmm0, 80(%rsp)
	.loc	9 69 16                 # verify.c:69:16
	movapd	.LCPI8_106(%rip), %xmm0 # xmm0 = [5.504160e+02,5.239212e+02]
	movapd	%xmm0, 96(%rsp)
	movsd	.LCPI8_107(%rip), %xmm1 # xmm1 = mem[0],zero
	jmp	.LBB8_35
.Ltmp474:
.LBB8_10:                               # %if.else58
	#DEBUG_VALUE: verify:n1 <- %EDI
	#DEBUG_VALUE: verify:n2 <- %ESI
	#DEBUG_VALUE: verify:n3 <- %EDX
	#DEBUG_VALUE: verify:nt <- %ECX
	#DEBUG_VALUE: verify:verified <- %R14
	#DEBUG_VALUE: verify:cksum <- %R15
	.loc	9 70 26 discriminator 1 # verify.c:70:26
	cmpl	$256, %edi              # imm = 0x100
	jne	.LBB8_15
.Ltmp475:
# BB#11:                                # %if.else58
	#DEBUG_VALUE: verify:cksum <- %R15
	#DEBUG_VALUE: verify:verified <- %R14
	#DEBUG_VALUE: verify:nt <- %ECX
	#DEBUG_VALUE: verify:n3 <- %EDX
	#DEBUG_VALUE: verify:n2 <- %ESI
	#DEBUG_VALUE: verify:n1 <- %EDI
	cmpl	$256, %esi              # imm = 0x100
	jne	.LBB8_15
.Ltmp476:
# BB#12:                                # %if.else58
	#DEBUG_VALUE: verify:n1 <- %EDI
	#DEBUG_VALUE: verify:n2 <- %ESI
	#DEBUG_VALUE: verify:n3 <- %EDX
	#DEBUG_VALUE: verify:nt <- %ECX
	#DEBUG_VALUE: verify:verified <- %R14
	#DEBUG_VALUE: verify:cksum <- %R15
	cmpl	$128, %edx
	jne	.LBB8_15
.Ltmp477:
# BB#13:                                # %if.else58
	#DEBUG_VALUE: verify:cksum <- %R15
	#DEBUG_VALUE: verify:verified <- %R14
	#DEBUG_VALUE: verify:nt <- %ECX
	#DEBUG_VALUE: verify:n3 <- %EDX
	#DEBUG_VALUE: verify:n2 <- %ESI
	#DEBUG_VALUE: verify:n1 <- %EDI
	cmpl	$6, %ecx
	jne	.LBB8_15
.Ltmp478:
# BB#14:                                # %if.then66
	#DEBUG_VALUE: verify:n1 <- %EDI
	#DEBUG_VALUE: verify:n2 <- %ESI
	#DEBUG_VALUE: verify:n3 <- %EDX
	#DEBUG_VALUE: verify:nt <- %ECX
	#DEBUG_VALUE: verify:verified <- %R14
	#DEBUG_VALUE: verify:cksum <- %R15
	.loc	9 72 16                 # verify.c:72:16
	movaps	.LCPI8_94(%rip), %xmm0  # xmm0 = [5.046735e+02,5.114048e+02]
	movaps	%xmm0, 16(%rsp)
	.loc	9 73 16                 # verify.c:73:16
	movaps	.LCPI8_95(%rip), %xmm0  # xmm0 = [5.059412e+02,5.098810e+02]
	movaps	%xmm0, 32(%rsp)
	.loc	9 74 16                 # verify.c:74:16
	movaps	.LCPI8_96(%rip), %xmm0  # xmm0 = [5.069377e+02,5.098144e+02]
	movaps	%xmm0, 48(%rsp)
	.loc	9 75 16                 # verify.c:75:16
	movaps	.LCPI8_97(%rip), %xmm0  # xmm0 = [5.077893e+02,5.101336e+02]
	movaps	%xmm0, 64(%rsp)
	.loc	9 76 16                 # verify.c:76:16
	movaps	.LCPI8_98(%rip), %xmm0  # xmm0 = [5.085233e+02,5.104915e+02]
	movaps	%xmm0, 80(%rsp)
	.loc	9 77 16                 # verify.c:77:16
	movapd	.LCPI8_99(%rip), %xmm0  # xmm0 = [5.091487e+02,5.107918e+02]
	movapd	%xmm0, 96(%rsp)
	movsd	.LCPI8_100(%rip), %xmm1 # xmm1 = mem[0],zero
	jmp	.LBB8_35
.Ltmp479:
.LBB8_15:                               # %if.else91
	#DEBUG_VALUE: verify:cksum <- %R15
	#DEBUG_VALUE: verify:verified <- %R14
	#DEBUG_VALUE: verify:nt <- %ECX
	#DEBUG_VALUE: verify:n3 <- %EDX
	#DEBUG_VALUE: verify:n2 <- %ESI
	#DEBUG_VALUE: verify:n1 <- %EDI
	.loc	9 78 26 discriminator 1 # verify.c:78:26
	cmpl	$512, %edi              # imm = 0x200
	jne	.LBB8_20
.Ltmp480:
# BB#16:                                # %if.else91
	#DEBUG_VALUE: verify:n1 <- %EDI
	#DEBUG_VALUE: verify:n2 <- %ESI
	#DEBUG_VALUE: verify:n3 <- %EDX
	#DEBUG_VALUE: verify:nt <- %ECX
	#DEBUG_VALUE: verify:verified <- %R14
	#DEBUG_VALUE: verify:cksum <- %R15
	cmpl	$256, %esi              # imm = 0x100
	jne	.LBB8_20
.Ltmp481:
# BB#17:                                # %if.else91
	#DEBUG_VALUE: verify:cksum <- %R15
	#DEBUG_VALUE: verify:verified <- %R14
	#DEBUG_VALUE: verify:nt <- %ECX
	#DEBUG_VALUE: verify:n3 <- %EDX
	#DEBUG_VALUE: verify:n2 <- %ESI
	#DEBUG_VALUE: verify:n1 <- %EDI
	cmpl	$256, %edx              # imm = 0x100
	jne	.LBB8_20
.Ltmp482:
# BB#18:                                # %if.else91
	#DEBUG_VALUE: verify:n1 <- %EDI
	#DEBUG_VALUE: verify:n2 <- %ESI
	#DEBUG_VALUE: verify:n3 <- %EDX
	#DEBUG_VALUE: verify:nt <- %ECX
	#DEBUG_VALUE: verify:verified <- %R14
	#DEBUG_VALUE: verify:cksum <- %R15
	cmpl	$20, %ecx
	jne	.LBB8_20
.Ltmp483:
# BB#19:                                # %if.then99
	#DEBUG_VALUE: verify:cksum <- %R15
	#DEBUG_VALUE: verify:verified <- %R14
	#DEBUG_VALUE: verify:nt <- %ECX
	#DEBUG_VALUE: verify:n3 <- %EDX
	#DEBUG_VALUE: verify:n2 <- %ESI
	#DEBUG_VALUE: verify:n1 <- %EDI
	.loc	9 80 17                 # verify.c:80:17
	movaps	.LCPI8_73(%rip), %xmm0  # xmm0 = [5.177644e+02,5.077803e+02]
	movaps	%xmm0, 16(%rsp)
	.loc	9 81 17                 # verify.c:81:17
	movaps	.LCPI8_74(%rip), %xmm0  # xmm0 = [5.154521e+02,5.088249e+02]
	movaps	%xmm0, 32(%rsp)
	.loc	9 82 17                 # verify.c:82:17
	movaps	.LCPI8_75(%rip), %xmm0  # xmm0 = [5.146409e+02,5.096209e+02]
	movaps	%xmm0, 48(%rsp)
	.loc	9 83 17                 # verify.c:83:17
	movaps	.LCPI8_76(%rip), %xmm0  # xmm0 = [5.142379e+02,5.101023e+02]
	movaps	%xmm0, 64(%rsp)
	.loc	9 84 17                 # verify.c:84:17
	movaps	.LCPI8_77(%rip), %xmm0  # xmm0 = [5.139627e+02,5.103977e+02]
	movaps	%xmm0, 80(%rsp)
	.loc	9 85 17                 # verify.c:85:17
	movaps	.LCPI8_78(%rip), %xmm0  # xmm0 = [5.137423e+02,5.105948e+02]
	movaps	%xmm0, 96(%rsp)
	.loc	9 86 17                 # verify.c:86:17
	movaps	.LCPI8_79(%rip), %xmm0  # xmm0 = [5.135547e+02,5.107404e+02]
	movaps	%xmm0, 112(%rsp)
	.loc	9 87 17                 # verify.c:87:17
	movaps	.LCPI8_80(%rip), %xmm0  # xmm0 = [5.133911e+02,5.108577e+02]
	movaps	%xmm0, 128(%rsp)
	.loc	9 88 17                 # verify.c:88:17
	movaps	.LCPI8_81(%rip), %xmm0  # xmm0 = [5.132471e+02,5.109577e+02]
	movaps	%xmm0, 144(%rsp)
	.loc	9 89 17                 # verify.c:89:17
	movaps	.LCPI8_82(%rip), %xmm0  # xmm0 = [5.131198e+02,5.110460e+02]
	movaps	%xmm0, 160(%rsp)
	.loc	9 90 17                 # verify.c:90:17
	movaps	.LCPI8_83(%rip), %xmm0  # xmm0 = [5.130070e+02,5.111252e+02]
	movaps	%xmm0, 176(%rsp)
	.loc	9 91 17                 # verify.c:91:17
	movaps	.LCPI8_84(%rip), %xmm0  # xmm0 = [5.129071e+02,5.111968e+02]
	movaps	%xmm0, 192(%rsp)
	.loc	9 92 17                 # verify.c:92:17
	movaps	.LCPI8_85(%rip), %xmm0  # xmm0 = [5.128183e+02,5.112616e+02]
	movaps	%xmm0, 208(%rsp)
	.loc	9 93 17                 # verify.c:93:17
	movaps	.LCPI8_86(%rip), %xmm0  # xmm0 = [5.127394e+02,5.113204e+02]
	movaps	%xmm0, 224(%rsp)
	.loc	9 94 17                 # verify.c:94:17
	movaps	.LCPI8_87(%rip), %xmm0  # xmm0 = [5.126691e+02,5.113736e+02]
	movaps	%xmm0, 240(%rsp)
	.loc	9 95 17                 # verify.c:95:17
	movaps	.LCPI8_88(%rip), %xmm0  # xmm0 = [5.126064e+02,5.114218e+02]
	movaps	%xmm0, 256(%rsp)
	.loc	9 96 17                 # verify.c:96:17
	movaps	.LCPI8_89(%rip), %xmm0  # xmm0 = [5.125504e+02,5.114656e+02]
	movaps	%xmm0, 272(%rsp)
	.loc	9 97 17                 # verify.c:97:17
	movaps	.LCPI8_90(%rip), %xmm0  # xmm0 = [5.125002e+02,5.115054e+02]
	movaps	%xmm0, 288(%rsp)
	.loc	9 98 17                 # verify.c:98:17
	movaps	.LCPI8_91(%rip), %xmm0  # xmm0 = [5.124552e+02,5.115415e+02]
	movaps	%xmm0, 304(%rsp)
	.loc	9 99 17                 # verify.c:99:17
	movapd	.LCPI8_92(%rip), %xmm0  # xmm0 = [5.124147e+02,5.115745e+02]
	movapd	%xmm0, 320(%rsp)
	movsd	.LCPI8_93(%rip), %xmm1  # xmm1 = mem[0],zero
	jmp	.LBB8_35
.Ltmp484:
.LBB8_20:                               # %if.else180
	#DEBUG_VALUE: verify:n1 <- %EDI
	#DEBUG_VALUE: verify:n2 <- %ESI
	#DEBUG_VALUE: verify:n3 <- %EDX
	#DEBUG_VALUE: verify:nt <- %ECX
	#DEBUG_VALUE: verify:verified <- %R14
	#DEBUG_VALUE: verify:cksum <- %R15
	.loc	9 101 26 discriminator 1 # verify.c:101:26
	cmpl	$512, %edi              # imm = 0x200
	jne	.LBB8_25
.Ltmp485:
# BB#21:                                # %if.else180
	#DEBUG_VALUE: verify:cksum <- %R15
	#DEBUG_VALUE: verify:verified <- %R14
	#DEBUG_VALUE: verify:nt <- %ECX
	#DEBUG_VALUE: verify:n3 <- %EDX
	#DEBUG_VALUE: verify:n2 <- %ESI
	#DEBUG_VALUE: verify:n1 <- %EDI
	cmpl	$512, %esi              # imm = 0x200
	jne	.LBB8_25
.Ltmp486:
# BB#22:                                # %if.else180
	#DEBUG_VALUE: verify:n1 <- %EDI
	#DEBUG_VALUE: verify:n2 <- %ESI
	#DEBUG_VALUE: verify:n3 <- %EDX
	#DEBUG_VALUE: verify:nt <- %ECX
	#DEBUG_VALUE: verify:verified <- %R14
	#DEBUG_VALUE: verify:cksum <- %R15
	cmpl	$512, %edx              # imm = 0x200
	jne	.LBB8_25
.Ltmp487:
# BB#23:                                # %if.else180
	#DEBUG_VALUE: verify:cksum <- %R15
	#DEBUG_VALUE: verify:verified <- %R14
	#DEBUG_VALUE: verify:nt <- %ECX
	#DEBUG_VALUE: verify:n3 <- %EDX
	#DEBUG_VALUE: verify:n2 <- %ESI
	#DEBUG_VALUE: verify:n1 <- %EDI
	cmpl	$20, %ecx
	jne	.LBB8_25
.Ltmp488:
# BB#24:                                # %if.then188
	#DEBUG_VALUE: verify:n1 <- %EDI
	#DEBUG_VALUE: verify:n2 <- %ESI
	#DEBUG_VALUE: verify:n3 <- %EDX
	#DEBUG_VALUE: verify:nt <- %ECX
	#DEBUG_VALUE: verify:verified <- %R14
	#DEBUG_VALUE: verify:cksum <- %R15
	.loc	9 103 17                # verify.c:103:17
	movaps	.LCPI8_52(%rip), %xmm0  # xmm0 = [5.195079e+02,5.149020e+02]
	movaps	%xmm0, 16(%rsp)
	.loc	9 104 17                # verify.c:104:17
	movaps	.LCPI8_53(%rip), %xmm0  # xmm0 = [5.155422e+02,5.127578e+02]
	movaps	%xmm0, 32(%rsp)
	.loc	9 105 17                # verify.c:105:17
	movaps	.LCPI8_54(%rip), %xmm0  # xmm0 = [5.144678e+02,5.122252e+02]
	movaps	%xmm0, 48(%rsp)
	.loc	9 106 17                # verify.c:106:17
	movaps	.LCPI8_55(%rip), %xmm0  # xmm0 = [5.140151e+02,5.121090e+02]
	movaps	%xmm0, 64(%rsp)
	.loc	9 107 17                # verify.c:107:17
	movaps	.LCPI8_56(%rip), %xmm0  # xmm0 = [5.137550e+02,5.121144e+02]
	movaps	%xmm0, 80(%rsp)
	.loc	9 108 17                # verify.c:108:17
	movaps	.LCPI8_57(%rip), %xmm0  # xmm0 = [5.135811e+02,5.121497e+02]
	movaps	%xmm0, 96(%rsp)
	.loc	9 109 17                # verify.c:109:17
	movaps	.LCPI8_58(%rip), %xmm0  # xmm0 = [5.134569e+02,5.121871e+02]
	movaps	%xmm0, 112(%rsp)
	.loc	9 110 17                # verify.c:110:17
	movaps	.LCPI8_59(%rip), %xmm0  # xmm0 = [5.133652e+02,5.122193e+02]
	movaps	%xmm0, 128(%rsp)
	.loc	9 111 17                # verify.c:111:17
	movaps	.LCPI8_60(%rip), %xmm0  # xmm0 = [5.132955e+02,5.122455e+02]
	movaps	%xmm0, 144(%rsp)
	.loc	9 112 17                # verify.c:112:17
	movaps	.LCPI8_61(%rip), %xmm0  # xmm0 = [5.132410e+02,5.122664e+02]
	movaps	%xmm0, 160(%rsp)
	.loc	9 113 17                # verify.c:113:17
	movaps	.LCPI8_62(%rip), %xmm0  # xmm0 = [5.131971e+02,5.122831e+02]
	movaps	%xmm0, 176(%rsp)
	.loc	9 114 17                # verify.c:114:17
	movaps	.LCPI8_63(%rip), %xmm0  # xmm0 = [5.131605e+02,5.122966e+02]
	movaps	%xmm0, 192(%rsp)
	.loc	9 115 17                # verify.c:115:17
	movaps	.LCPI8_64(%rip), %xmm0  # xmm0 = [5.131291e+02,5.123076e+02]
	movaps	%xmm0, 208(%rsp)
	.loc	9 116 17                # verify.c:116:17
	movaps	.LCPI8_65(%rip), %xmm0  # xmm0 = [5.131013e+02,5.123166e+02]
	movaps	%xmm0, 224(%rsp)
	.loc	9 117 17                # verify.c:117:17
	movaps	.LCPI8_66(%rip), %xmm0  # xmm0 = [5.130761e+02,5.123242e+02]
	movaps	%xmm0, 240(%rsp)
	.loc	9 118 17                # verify.c:118:17
	movaps	.LCPI8_67(%rip), %xmm0  # xmm0 = [5.130528e+02,5.123304e+02]
	movaps	%xmm0, 256(%rsp)
	.loc	9 119 17                # verify.c:119:17
	movaps	.LCPI8_68(%rip), %xmm0  # xmm0 = [5.130310e+02,5.123356e+02]
	movaps	%xmm0, 272(%rsp)
	.loc	9 120 17                # verify.c:120:17
	movaps	.LCPI8_69(%rip), %xmm0  # xmm0 = [5.130103e+02,5.123400e+02]
	movaps	%xmm0, 288(%rsp)
	.loc	9 121 17                # verify.c:121:17
	movaps	.LCPI8_70(%rip), %xmm0  # xmm0 = [5.129905e+02,5.123436e+02]
	movaps	%xmm0, 304(%rsp)
	.loc	9 122 17                # verify.c:122:17
	movapd	.LCPI8_71(%rip), %xmm0  # xmm0 = [5.129714e+02,5.123465e+02]
	movapd	%xmm0, 320(%rsp)
	movsd	.LCPI8_72(%rip), %xmm1  # xmm1 = mem[0],zero
	jmp	.LBB8_35
.Ltmp489:
.LBB8_25:                               # %if.else269
	#DEBUG_VALUE: verify:cksum <- %R15
	#DEBUG_VALUE: verify:verified <- %R14
	#DEBUG_VALUE: verify:nt <- %ECX
	#DEBUG_VALUE: verify:n3 <- %EDX
	#DEBUG_VALUE: verify:n2 <- %ESI
	#DEBUG_VALUE: verify:n1 <- %EDI
	.loc	9 123 27 discriminator 1 # verify.c:123:27
	cmpl	$2048, %edi             # imm = 0x800
	jne	.LBB8_30
.Ltmp490:
# BB#26:                                # %if.else269
	#DEBUG_VALUE: verify:n1 <- %EDI
	#DEBUG_VALUE: verify:n2 <- %ESI
	#DEBUG_VALUE: verify:n3 <- %EDX
	#DEBUG_VALUE: verify:nt <- %ECX
	#DEBUG_VALUE: verify:verified <- %R14
	#DEBUG_VALUE: verify:cksum <- %R15
	cmpl	$1024, %esi             # imm = 0x400
	jne	.LBB8_30
.Ltmp491:
# BB#27:                                # %if.else269
	#DEBUG_VALUE: verify:cksum <- %R15
	#DEBUG_VALUE: verify:verified <- %R14
	#DEBUG_VALUE: verify:nt <- %ECX
	#DEBUG_VALUE: verify:n3 <- %EDX
	#DEBUG_VALUE: verify:n2 <- %ESI
	#DEBUG_VALUE: verify:n1 <- %EDI
	cmpl	$1024, %edx             # imm = 0x400
	jne	.LBB8_30
.Ltmp492:
# BB#28:                                # %if.else269
	#DEBUG_VALUE: verify:n1 <- %EDI
	#DEBUG_VALUE: verify:n2 <- %ESI
	#DEBUG_VALUE: verify:n3 <- %EDX
	#DEBUG_VALUE: verify:nt <- %ECX
	#DEBUG_VALUE: verify:verified <- %R14
	#DEBUG_VALUE: verify:cksum <- %R15
	cmpl	$25, %ecx
	jne	.LBB8_30
.Ltmp493:
# BB#29:                                # %if.then277
	#DEBUG_VALUE: verify:cksum <- %R15
	#DEBUG_VALUE: verify:verified <- %R14
	#DEBUG_VALUE: verify:nt <- %ECX
	#DEBUG_VALUE: verify:n3 <- %EDX
	#DEBUG_VALUE: verify:n2 <- %ESI
	#DEBUG_VALUE: verify:n1 <- %EDI
	.loc	9 125 17                # verify.c:125:17
	movaps	.LCPI8_26(%rip), %xmm0  # xmm0 = [5.122230e+02,5.118534e+02]
	movaps	%xmm0, 16(%rsp)
	.loc	9 126 17                # verify.c:126:17
	movaps	.LCPI8_27(%rip), %xmm0  # xmm0 = [5.120464e+02,5.117061e+02]
	movaps	%xmm0, 32(%rsp)
	.loc	9 127 17                # verify.c:127:17
	movaps	.LCPI8_28(%rip), %xmm0  # xmm0 = [5.119866e+02,5.117096e+02]
	movaps	%xmm0, 48(%rsp)
	.loc	9 128 17                # verify.c:128:17
	movaps	.LCPI8_29(%rip), %xmm0  # xmm0 = [5.119519e+02,5.117374e+02]
	movaps	%xmm0, 64(%rsp)
	.loc	9 129 17                # verify.c:129:17
	movaps	.LCPI8_30(%rip), %xmm0  # xmm0 = [5.119269e+02,5.117680e+02]
	movaps	%xmm0, 80(%rsp)
	.loc	9 130 17                # verify.c:130:17
	movaps	.LCPI8_31(%rip), %xmm0  # xmm0 = [5.119082e+02,5.117968e+02]
	movaps	%xmm0, 96(%rsp)
	.loc	9 131 17                # verify.c:131:17
	movaps	.LCPI8_32(%rip), %xmm0  # xmm0 = [5.118944e+02,5.118225e+02]
	movaps	%xmm0, 112(%rsp)
	.loc	9 132 17                # verify.c:132:17
	movaps	.LCPI8_33(%rip), %xmm0  # xmm0 = [5.118842e+02,5.118452e+02]
	movaps	%xmm0, 128(%rsp)
	.loc	9 133 17                # verify.c:133:17
	movaps	.LCPI8_34(%rip), %xmm0  # xmm0 = [5.118769e+02,5.118649e+02]
	movaps	%xmm0, 144(%rsp)
	.loc	9 134 17                # verify.c:134:17
	movaps	.LCPI8_35(%rip), %xmm0  # xmm0 = [5.118718e+02,5.118821e+02]
	movaps	%xmm0, 160(%rsp)
	.loc	9 135 17                # verify.c:135:17
	movaps	.LCPI8_36(%rip), %xmm0  # xmm0 = [5.118684e+02,5.118970e+02]
	movaps	%xmm0, 176(%rsp)
	.loc	9 136 17                # verify.c:136:17
	movaps	.LCPI8_37(%rip), %xmm0  # xmm0 = [5.118662e+02,5.119099e+02]
	movaps	%xmm0, 192(%rsp)
	.loc	9 137 17                # verify.c:137:17
	movaps	.LCPI8_38(%rip), %xmm0  # xmm0 = [5.118650e+02,5.119211e+02]
	movaps	%xmm0, 208(%rsp)
	.loc	9 138 17                # verify.c:138:17
	movaps	.LCPI8_39(%rip), %xmm0  # xmm0 = [5.118646e+02,5.119308e+02]
	movaps	%xmm0, 224(%rsp)
	.loc	9 139 17                # verify.c:139:17
	movaps	.LCPI8_40(%rip), %xmm0  # xmm0 = [5.118648e+02,5.119391e+02]
	movaps	%xmm0, 240(%rsp)
	.loc	9 140 17                # verify.c:140:17
	movaps	.LCPI8_41(%rip), %xmm0  # xmm0 = [5.118654e+02,5.119464e+02]
	movaps	%xmm0, 256(%rsp)
	.loc	9 141 17                # verify.c:141:17
	movaps	.LCPI8_42(%rip), %xmm0  # xmm0 = [5.118665e+02,5.119526e+02]
	movaps	%xmm0, 272(%rsp)
	.loc	9 142 17                # verify.c:142:17
	movaps	.LCPI8_43(%rip), %xmm0  # xmm0 = [5.118679e+02,5.119580e+02]
	movaps	%xmm0, 288(%rsp)
	.loc	9 143 17                # verify.c:143:17
	movaps	.LCPI8_44(%rip), %xmm0  # xmm0 = [5.118695e+02,5.119627e+02]
	movaps	%xmm0, 304(%rsp)
	.loc	9 144 17                # verify.c:144:17
	movaps	.LCPI8_45(%rip), %xmm0  # xmm0 = [5.118714e+02,5.119667e+02]
	movaps	%xmm0, 320(%rsp)
	.loc	9 145 17                # verify.c:145:17
	movaps	.LCPI8_46(%rip), %xmm0  # xmm0 = [5.118734e+02,5.119701e+02]
	movaps	%xmm0, 336(%rsp)
	.loc	9 146 17                # verify.c:146:17
	movaps	.LCPI8_47(%rip), %xmm0  # xmm0 = [5.118755e+02,5.119730e+02]
	movaps	%xmm0, 352(%rsp)
	.loc	9 147 17                # verify.c:147:17
	movaps	.LCPI8_48(%rip), %xmm0  # xmm0 = [5.118777e+02,5.119755e+02]
	movaps	%xmm0, 368(%rsp)
	.loc	9 148 17                # verify.c:148:17
	movaps	.LCPI8_49(%rip), %xmm0  # xmm0 = [5.118799e+02,5.119776e+02]
	movaps	%xmm0, 384(%rsp)
	.loc	9 149 17                # verify.c:149:17
	movapd	.LCPI8_50(%rip), %xmm0  # xmm0 = [5.118822e+02,5.119794e+02]
	movapd	%xmm0, 400(%rsp)
	movsd	.LCPI8_51(%rip), %xmm1  # xmm1 = mem[0],zero
	jmp	.LBB8_35
.Ltmp494:
.LBB8_30:                               # %if.else378
	#DEBUG_VALUE: verify:n1 <- %EDI
	#DEBUG_VALUE: verify:n2 <- %ESI
	#DEBUG_VALUE: verify:n3 <- %EDX
	#DEBUG_VALUE: verify:nt <- %ECX
	#DEBUG_VALUE: verify:verified <- %R14
	#DEBUG_VALUE: verify:cksum <- %R15
	.loc	9 150 27 discriminator 1 # verify.c:150:27
	cmpl	$4096, %edi             # imm = 0x1000
	jne	.LBB8_49
.Ltmp495:
# BB#31:                                # %if.else378
	#DEBUG_VALUE: verify:cksum <- %R15
	#DEBUG_VALUE: verify:verified <- %R14
	#DEBUG_VALUE: verify:nt <- %ECX
	#DEBUG_VALUE: verify:n3 <- %EDX
	#DEBUG_VALUE: verify:n2 <- %ESI
	#DEBUG_VALUE: verify:n1 <- %EDI
	cmpl	$2048, %esi             # imm = 0x800
	jne	.LBB8_49
.Ltmp496:
# BB#32:                                # %if.else378
	#DEBUG_VALUE: verify:n1 <- %EDI
	#DEBUG_VALUE: verify:n2 <- %ESI
	#DEBUG_VALUE: verify:n3 <- %EDX
	#DEBUG_VALUE: verify:nt <- %ECX
	#DEBUG_VALUE: verify:verified <- %R14
	#DEBUG_VALUE: verify:cksum <- %R15
	cmpl	$2048, %edx             # imm = 0x800
	jne	.LBB8_49
.Ltmp497:
# BB#33:                                # %if.else378
	#DEBUG_VALUE: verify:cksum <- %R15
	#DEBUG_VALUE: verify:verified <- %R14
	#DEBUG_VALUE: verify:nt <- %ECX
	#DEBUG_VALUE: verify:n3 <- %EDX
	#DEBUG_VALUE: verify:n2 <- %ESI
	#DEBUG_VALUE: verify:n1 <- %EDI
	cmpl	$25, %ecx
	jne	.LBB8_49
.Ltmp498:
# BB#34:                                # %if.then386
	#DEBUG_VALUE: verify:n1 <- %EDI
	#DEBUG_VALUE: verify:n2 <- %ESI
	#DEBUG_VALUE: verify:n3 <- %EDX
	#DEBUG_VALUE: verify:nt <- %ECX
	#DEBUG_VALUE: verify:verified <- %R14
	#DEBUG_VALUE: verify:cksum <- %R15
	.loc	9 152 17                # verify.c:152:17
	movaps	.LCPI8_0(%rip), %xmm0   # xmm0 = [5.121601e+02,5.117396e+02]
	movaps	%xmm0, 16(%rsp)
	.loc	9 153 17                # verify.c:153:17
	movaps	.LCPI8_1(%rip), %xmm0   # xmm0 = [5.120905e+02,5.118615e+02]
	movaps	%xmm0, 32(%rsp)
	.loc	9 154 17                # verify.c:154:17
	movaps	.LCPI8_2(%rip), %xmm0   # xmm0 = [5.120623e+02,5.119074e+02]
	movaps	%xmm0, 48(%rsp)
	.loc	9 155 17                # verify.c:155:17
	movaps	.LCPI8_3(%rip), %xmm0   # xmm0 = [5.120438e+02,5.119346e+02]
	movaps	%xmm0, 64(%rsp)
	.loc	9 156 17                # verify.c:156:17
	movaps	.LCPI8_4(%rip), %xmm0   # xmm0 = [5.120312e+02,5.119551e+02]
	movaps	%xmm0, 80(%rsp)
	.loc	9 157 17                # verify.c:157:17
	movaps	.LCPI8_5(%rip), %xmm0   # xmm0 = [5.120226e+02,5.119720e+02]
	movaps	%xmm0, 96(%rsp)
	.loc	9 158 17                # verify.c:158:17
	movaps	.LCPI8_6(%rip), %xmm0   # xmm0 = [5.120169e+02,5.119861e+02]
	movaps	%xmm0, 112(%rsp)
	.loc	9 159 17                # verify.c:159:17
	movaps	.LCPI8_7(%rip), %xmm0   # xmm0 = [5.120131e+02,5.119979e+02]
	movaps	%xmm0, 128(%rsp)
	.loc	9 160 17                # verify.c:160:17
	movaps	.LCPI8_8(%rip), %xmm0   # xmm0 = [5.120105e+02,5.120078e+02]
	movaps	%xmm0, 144(%rsp)
	.loc	9 161 17                # verify.c:161:17
	movaps	.LCPI8_9(%rip), %xmm0   # xmm0 = [5.120085e+02,5.120159e+02]
	movaps	%xmm0, 160(%rsp)
	.loc	9 162 17                # verify.c:162:17
	movaps	.LCPI8_10(%rip), %xmm0  # xmm0 = [5.120069e+02,5.120227e+02]
	movaps	%xmm0, 176(%rsp)
	.loc	9 163 17                # verify.c:163:17
	movaps	.LCPI8_11(%rip), %xmm0  # xmm0 = [5.120055e+02,5.120284e+02]
	movaps	%xmm0, 192(%rsp)
	.loc	9 164 17                # verify.c:164:17
	movaps	.LCPI8_12(%rip), %xmm0  # xmm0 = [5.120042e+02,5.120331e+02]
	movaps	%xmm0, 208(%rsp)
	.loc	9 165 17                # verify.c:165:17
	movaps	.LCPI8_13(%rip), %xmm0  # xmm0 = [5.120029e+02,5.120371e+02]
	movaps	%xmm0, 224(%rsp)
	.loc	9 166 17                # verify.c:166:17
	movaps	.LCPI8_14(%rip), %xmm0  # xmm0 = [5.120015e+02,5.120404e+02]
	movaps	%xmm0, 240(%rsp)
	.loc	9 167 17                # verify.c:167:17
	movaps	.LCPI8_15(%rip), %xmm0  # xmm0 = [5.120002e+02,5.120432e+02]
	movaps	%xmm0, 256(%rsp)
	.loc	9 168 17                # verify.c:168:17
	movaps	.LCPI8_16(%rip), %xmm0  # xmm0 = [5.119988e+02,5.120456e+02]
	movaps	%xmm0, 272(%rsp)
	.loc	9 169 17                # verify.c:169:17
	movaps	.LCPI8_17(%rip), %xmm0  # xmm0 = [5.119974e+02,5.120475e+02]
	movaps	%xmm0, 288(%rsp)
	.loc	9 170 17                # verify.c:170:17
	movaps	.LCPI8_18(%rip), %xmm0  # xmm0 = [5.119959e+02,5.120492e+02]
	movaps	%xmm0, 304(%rsp)
	.loc	9 171 17                # verify.c:171:17
	movaps	.LCPI8_19(%rip), %xmm0  # xmm0 = [5.119945e+02,5.120507e+02]
	movaps	%xmm0, 320(%rsp)
	.loc	9 172 17                # verify.c:172:17
	movaps	.LCPI8_20(%rip), %xmm0  # xmm0 = [5.119931e+02,5.120519e+02]
	movaps	%xmm0, 336(%rsp)
	.loc	9 173 17                # verify.c:173:17
	movaps	.LCPI8_21(%rip), %xmm0  # xmm0 = [5.119917e+02,5.120529e+02]
	movaps	%xmm0, 352(%rsp)
	.loc	9 174 17                # verify.c:174:17
	movaps	.LCPI8_22(%rip), %xmm0  # xmm0 = [5.119903e+02,5.120537e+02]
	movaps	%xmm0, 368(%rsp)
	.loc	9 175 17                # verify.c:175:17
	movaps	.LCPI8_23(%rip), %xmm0  # xmm0 = [5.119889e+02,5.120544e+02]
	movaps	%xmm0, 384(%rsp)
	.loc	9 176 17                # verify.c:176:17
	movapd	.LCPI8_24(%rip), %xmm0  # xmm0 = [5.119876e+02,5.120550e+02]
	movapd	%xmm0, 400(%rsp)
	movsd	.LCPI8_25(%rip), %xmm1  # xmm1 = mem[0],zero
.Ltmp499:
.LBB8_35:                               # %if.end493
	#DEBUG_VALUE: verify:cksum <- %R15
	#DEBUG_VALUE: verify:verified <- %R14
	#DEBUG_VALUE: verify:nt <- %ECX
	#DEBUG_VALUE: verify:n3 <- %EDX
	#DEBUG_VALUE: verify:n2 <- %ESI
	#DEBUG_VALUE: verify:n1 <- %EDI
	.loc	9 183 7                 # verify.c:183:7
	cmpl	$0, (%r14)
	je	.LBB8_48
.Ltmp500:
# BB#36:                                # %for.cond.preheader
	#DEBUG_VALUE: verify:n1 <- %EDI
	#DEBUG_VALUE: verify:n2 <- %ESI
	#DEBUG_VALUE: verify:n3 <- %EDX
	#DEBUG_VALUE: verify:nt <- %ECX
	#DEBUG_VALUE: verify:verified <- %R14
	#DEBUG_VALUE: verify:cksum <- %R15
	.loc	9 184 21 discriminator 1 # verify.c:184:21
	testl	%ecx, %ecx
	jle	.LBB8_46
.Ltmp501:
# BB#37:                                # %for.body.preheader
	#DEBUG_VALUE: verify:cksum <- %R15
	#DEBUG_VALUE: verify:verified <- %R14
	#DEBUG_VALUE: verify:nt <- %ECX
	#DEBUG_VALUE: verify:n3 <- %EDX
	#DEBUG_VALUE: verify:n2 <- %ESI
	#DEBUG_VALUE: verify:n1 <- %EDI
	.loc	9 185 13                # verify.c:185:13
	movslq	%ecx, %r12
	addq	$24, %r15
.Ltmp502:
	leaq	16(%rsp), %r13
	xorl	%ebx, %ebx
.Ltmp503:
	.loc	9 187 17                # verify.c:187:17
	movsd	.LCPI8_115(%rip), %xmm6 # xmm6 = mem[0],zero
	jmp	.LBB8_40
.Ltmp504:
	.p2align	4, 0x90
.LBB8_39:                               # %for.cond.for.body_crit_edge
                                        #   in Loop: Header=BB8_40 Depth=1
	#DEBUG_VALUE: verify:err <- %XMM1
	#DEBUG_VALUE: dcmplx_div:divisor <- %XMM4
	#DEBUG_VALUE: dcmplx_div:divisor <- %XMM4
	#DEBUG_VALUE: dcmplx_div:divisor <- %XMM4
	#DEBUG_VALUE: dcmplx_div:divisor <- %XMM4
	.loc	9 184 21 discriminator 1 # verify.c:184:21
	addq	$16, %r15
.Ltmp505:
	.loc	9 185 13                # verify.c:185:13
	movsd	24(%r13), %xmm1         # xmm1 = mem[0],zero
.Ltmp506:
	.loc	9 184 21 discriminator 1 # verify.c:184:21
	addq	$16, %r13
.Ltmp507:
.LBB8_40:                               # %for.body
                                        # =>This Inner Loop Header: Depth=1
	.loc	9 185 13                # verify.c:185:13
	movsd	(%r13), %xmm2           # xmm2 = mem[0],zero
.Ltmp508:
	#DEBUG_VALUE: dcmplx_div:z2 [bit_piece offset=0 size=64] <- %XMM2
	#DEBUG_VALUE: dcmplx_div:c <- %XMM2
	#DEBUG_VALUE: dcmplx_div:z2 [bit_piece offset=0 size=64] <- %XMM2
	#DEBUG_VALUE: dcmplx_div:c <- %XMM2
	#DEBUG_VALUE: dcmplx_div:z2 [bit_piece offset=0 size=64] <- %XMM2
	#DEBUG_VALUE: dcmplx_div:c <- %XMM2
	#DEBUG_VALUE: dcmplx_div:z2 [bit_piece offset=0 size=64] <- %XMM2
	#DEBUG_VALUE: dcmplx_div:c <- %XMM2
	movsd	-8(%r15), %xmm3         # xmm3 = mem[0],zero
	movsd	(%r15), %xmm0           # xmm0 = mem[0],zero
	subsd	%xmm2, %xmm3
.Ltmp509:
	#DEBUG_VALUE: dcmplx_div:z1 [bit_piece offset=0 size=64] <- %XMM3
	#DEBUG_VALUE: dcmplx_div:a <- %XMM3
	#DEBUG_VALUE: dcmplx_div:z1 [bit_piece offset=0 size=64] <- %XMM3
	#DEBUG_VALUE: dcmplx_div:a <- %XMM3
	#DEBUG_VALUE: dcmplx_div:z1 [bit_piece offset=0 size=64] <- %XMM3
	#DEBUG_VALUE: dcmplx_div:a <- %XMM3
	#DEBUG_VALUE: dcmplx_div:z1 [bit_piece offset=0 size=64] <- %XMM3
	#DEBUG_VALUE: dcmplx_div:a <- %XMM3
	subsd	%xmm1, %xmm0
.Ltmp510:
	#DEBUG_VALUE: dcmplx_div:z1 [bit_piece offset=64 size=64] <- %XMM0
	#DEBUG_VALUE: dcmplx_div:b <- %XMM0
	#DEBUG_VALUE: dcmplx_div:z1 [bit_piece offset=64 size=64] <- %XMM0
	#DEBUG_VALUE: dcmplx_div:b <- %XMM0
	#DEBUG_VALUE: dcmplx_div:z1 [bit_piece offset=64 size=64] <- %XMM0
	#DEBUG_VALUE: dcmplx_div:b <- %XMM0
	#DEBUG_VALUE: dcmplx_div:z1 [bit_piece offset=64 size=64] <- %XMM0
	#DEBUG_VALUE: dcmplx_div:b <- %XMM0
	.file	10 "/home/norouzi/Desktop/software/benchmarks/NAS/NPB3.3-SER-C/FT/./global.h"
	.loc	10 74 27                # ./global.h:74:27
	movapd	%xmm1, %xmm4
	.loc	10 75 19                # ./global.h:75:19
	movapd	%xmm2, %xmm5
	mulsd	%xmm3, %xmm5
	.loc	10 76 25                # ./global.h:76:25
	mulsd	%xmm1, %xmm3
.Ltmp511:
	.loc	10 75 25                # ./global.h:75:25
	mulsd	%xmm0, %xmm1
	.loc	10 76 19                # ./global.h:76:19
	mulsd	%xmm2, %xmm0
.Ltmp512:
	.loc	10 74 21                # ./global.h:74:21
	mulsd	%xmm2, %xmm2
.Ltmp513:
	.loc	10 74 27 is_stmt 0      # ./global.h:74:27
	mulsd	%xmm4, %xmm4
	.loc	10 74 24                # ./global.h:74:24
	addsd	%xmm2, %xmm4
.Ltmp514:
	#DEBUG_VALUE: dcmplx_div:divisor <- %XMM4
	#DEBUG_VALUE: dcmplx_div:divisor <- %XMM4
	#DEBUG_VALUE: dcmplx_div:divisor <- %XMM4
	#DEBUG_VALUE: dcmplx_div:divisor <- %XMM4
	.loc	10 75 22 is_stmt 1      # ./global.h:75:22
	addsd	%xmm5, %xmm1
	.loc	10 75 29 is_stmt 0      # ./global.h:75:29
	divsd	%xmm4, %xmm1
.Ltmp515:
	#DEBUG_VALUE: dcmplx_div:real <- %XMM1
	#DEBUG_VALUE: dcmplx_div:result [bit_piece offset=0 size=64] <- %XMM1
	#DEBUG_VALUE: dcmplx_div:real <- %XMM1
	#DEBUG_VALUE: dcmplx_div:result [bit_piece offset=0 size=64] <- %XMM1
	#DEBUG_VALUE: dcmplx_div:real <- %XMM1
	#DEBUG_VALUE: dcmplx_div:result [bit_piece offset=0 size=64] <- %XMM1
	#DEBUG_VALUE: dcmplx_div:real <- %XMM1
	#DEBUG_VALUE: dcmplx_div:result [bit_piece offset=0 size=64] <- %XMM1
	.loc	10 76 22 is_stmt 1      # ./global.h:76:22
	subsd	%xmm3, %xmm0
	.loc	10 76 29 is_stmt 0      # ./global.h:76:29
	divsd	%xmm4, %xmm0
.Ltmp516:
	#DEBUG_VALUE: dcmplx_div:imag <- %XMM0
	#DEBUG_VALUE: dcmplx_div:result [bit_piece offset=64 size=64] <- %XMM0
	#DEBUG_VALUE: dcmplx_div:imag <- %XMM0
	#DEBUG_VALUE: dcmplx_div:result [bit_piece offset=64 size=64] <- %XMM0
	#DEBUG_VALUE: dcmplx_div:imag <- %XMM0
	#DEBUG_VALUE: dcmplx_div:result [bit_piece offset=64 size=64] <- %XMM0
	#DEBUG_VALUE: dcmplx_div:imag <- %XMM0
	#DEBUG_VALUE: dcmplx_div:result [bit_piece offset=64 size=64] <- %XMM0
	.loc	9 185 13 is_stmt 1      # verify.c:185:13
	mulsd	%xmm1, %xmm1
.Ltmp517:
	mulsd	%xmm0, %xmm0
.Ltmp518:
	addsd	%xmm1, %xmm0
	.loc	9 185 13 is_stmt 0 discriminator 4 # verify.c:185:13
	xorps	%xmm1, %xmm1
	sqrtsd	%xmm0, %xmm1
.Ltmp519:
	.loc	9 47 19 is_stmt 1       # verify.c:47:19
	ucomisd	%xmm1, %xmm1
.Ltmp520:
	#DEBUG_VALUE: dcmplx_div:z2 [bit_piece offset=64 size=64] <- %XMM1
	jnp	.LBB8_42
.Ltmp521:
# BB#41:                                # %call.sqrt
                                        #   in Loop: Header=BB8_40 Depth=1
	#DEBUG_VALUE: dcmplx_div:z2 [bit_piece offset=64 size=64] <- %XMM1
	#DEBUG_VALUE: dcmplx_div:divisor <- %XMM4
	#DEBUG_VALUE: dcmplx_div:divisor <- %XMM4
	#DEBUG_VALUE: dcmplx_div:divisor <- %XMM4
	#DEBUG_VALUE: dcmplx_div:divisor <- %XMM4
	callq	sqrt
.Ltmp522:
	.loc	9 187 17                # verify.c:187:17
	movsd	.LCPI8_115(%rip), %xmm6 # xmm6 = mem[0],zero
.Ltmp523:
	.loc	9 47 19                 # verify.c:47:19
	movapd	%xmm0, %xmm1
.Ltmp524:
.LBB8_42:                               # %for.body.split
                                        #   in Loop: Header=BB8_40 Depth=1
	#DEBUG_VALUE: dcmplx_div:divisor <- %XMM4
	#DEBUG_VALUE: dcmplx_div:divisor <- %XMM4
	#DEBUG_VALUE: dcmplx_div:divisor <- %XMM4
	#DEBUG_VALUE: dcmplx_div:divisor <- %XMM4
	#DEBUG_VALUE: verify:err <- %XMM1
	.loc	9 187 11                # verify.c:187:11
	ucomisd	%xmm1, %xmm6
	jb	.LBB8_43
.Ltmp525:
# BB#38:                                # %for.cond
                                        #   in Loop: Header=BB8_40 Depth=1
	#DEBUG_VALUE: dcmplx_div:divisor <- %XMM4
	#DEBUG_VALUE: dcmplx_div:divisor <- %XMM4
	#DEBUG_VALUE: dcmplx_div:divisor <- %XMM4
	#DEBUG_VALUE: dcmplx_div:divisor <- %XMM4
	#DEBUG_VALUE: verify:err <- %XMM1
	.loc	9 184 21 discriminator 1 # verify.c:184:21
	incq	%rbx
	.loc	9 184 5 is_stmt 0 discriminator 1 # verify.c:184:5
	cmpq	%r12, %rbx
	jl	.LBB8_39
.Ltmp526:
# BB#45:                                # %for.end
	#DEBUG_VALUE: verify:err <- %XMM1
	#DEBUG_VALUE: dcmplx_div:divisor <- %XMM4
	#DEBUG_VALUE: dcmplx_div:divisor <- %XMM4
	#DEBUG_VALUE: dcmplx_div:divisor <- %XMM4
	#DEBUG_VALUE: dcmplx_div:divisor <- %XMM4
	.loc	9 193 9 is_stmt 1       # verify.c:193:9
	cmpl	$0, (%r14)
	je	.LBB8_44
.Ltmp527:
.LBB8_46:                               # %if.then588
	.loc	9 194 7                 # verify.c:194:7
	movl	$.Lstr.4, %edi
	jmp	.LBB8_47
.Ltmp528:
.LBB8_43:                               # %for.end.thread
	#DEBUG_VALUE: dcmplx_div:divisor <- %XMM4
	#DEBUG_VALUE: dcmplx_div:divisor <- %XMM4
	#DEBUG_VALUE: dcmplx_div:divisor <- %XMM4
	#DEBUG_VALUE: dcmplx_div:divisor <- %XMM4
	#DEBUG_VALUE: verify:err <- %XMM1
	.loc	9 188 19                # verify.c:188:19
	movl	$0, (%r14)
.Ltmp529:
.LBB8_44:                               # %if.else590
	#DEBUG_VALUE: dcmplx_div:divisor <- %XMM4
	#DEBUG_VALUE: dcmplx_div:divisor <- %XMM4
	#DEBUG_VALUE: dcmplx_div:divisor <- %XMM4
	#DEBUG_VALUE: dcmplx_div:divisor <- %XMM4
	#DEBUG_VALUE: verify:err <- %XMM1
	.loc	9 196 7                 # verify.c:196:7
	movl	$.Lstr.3, %edi
.Ltmp530:
.LBB8_47:                               # %if.end593
	callq	puts
.Ltmp531:
.LBB8_48:                               # %if.end593
	.loc	9 199 1                 # verify.c:199:1
	addq	$416, %rsp              # imm = 0x1A0
	popq	%rbx
	popq	%r12
	popq	%r13
	popq	%r14
	popq	%r15
	retq
.LBB8_49:                               # %if.end493.thread
.Ltmp532:
	#DEBUG_VALUE: verify:cksum <- %R15
	#DEBUG_VALUE: verify:verified <- %R14
	#DEBUG_VALUE: verify:nt <- %ECX
	#DEBUG_VALUE: verify:n3 <- %EDX
	#DEBUG_VALUE: verify:n2 <- %ESI
	#DEBUG_VALUE: verify:n1 <- %EDI
	.loc	9 178 5                 # verify.c:178:5
	movl	$.Lstr.30, %edi
.Ltmp533:
	callq	puts
	.loc	9 179 15                # verify.c:179:15
	movl	$0, (%r14)
	jmp	.LBB8_48
.Ltmp534:
.Lfunc_end8:
	.size	verify, .Lfunc_end8-verify
	.cfi_endproc

	.section	.rodata.cst8,"aM",@progbits,8
	.p2align	3
.LCPI9_0:
	.quad	4664568617600556000     # double 7136.4437639778189
	.text
	.globl	main
	.p2align	4, 0x90
	.type	main,@function
main:                                   # @main
.Lfunc_begin9:
	.loc	4 51 0                  # mainft.c:51:0
	.cfi_startproc
# BB#0:                                 # %entry
	.loc	4 58 13 prologue_end    # mainft.c:58:13
	subq	$104, %rsp
.Ltmp535:
	.cfi_def_cfa_offset 112
	#DEBUG_VALUE: main:argc <- %EDI
	#DEBUG_VALUE: main:argv <- %RSI
	movl	$.L.str.16, %edi
.Ltmp536:
	movl	$.L.str.1.17, %esi
.Ltmp537:
	callq	fopen
.Ltmp538:
	#DEBUG_VALUE: main:fp <- %RAX
	.loc	4 58 39 is_stmt 0       # mainft.c:58:39
	testq	%rax, %rax
.Ltmp539:
	.loc	4 58 7                  # mainft.c:58:7
	je	.LBB9_2
.Ltmp540:
# BB#1:                                 # %if.then
	#DEBUG_VALUE: main:fp <- %RAX
	.loc	4 59 20 is_stmt 1       # mainft.c:59:20
	movl	$1, timers_enabled(%rip)
	.loc	4 60 5                  # mainft.c:60:5
	movq	%rax, %rdi
	callq	fclose
.Ltmp541:
	jmp	.LBB9_3
.Ltmp542:
.LBB9_2:                                # %if.else
	#DEBUG_VALUE: main:fp <- %RAX
	.loc	4 62 20                 # mainft.c:62:20
	movl	$0, timers_enabled(%rip)
.Ltmp543:
.LBB9_3:                                # %if.end
	#DEBUG_VALUE: main:niter <- 6
	.loc	4 67 3                  # mainft.c:67:3
	movl	$.Lstr.18, %edi
	callq	puts
	.loc	4 68 3                  # mainft.c:68:3
	movl	$.L.str.3.19, %edi
	movl	$256, %esi              # imm = 0x100
	movl	$256, %edx              # imm = 0x100
	movl	$128, %ecx
	xorl	%eax, %eax
	callq	printf
	.loc	4 69 3                  # mainft.c:69:3
	movl	$.L.str.4.20, %edi
	movl	$6, %esi
	xorl	%eax, %eax
	callq	printf
	.loc	4 70 3                  # mainft.c:70:3
	movl	$10, %edi
	callq	putchar
	leaq	96(%rsp), %rsi
.Ltmp544:
	#DEBUG_VALUE: main:total_time <- [%RSI+0]
	#DEBUG_VALUE: main:Class <- 65
	leaq	92(%rsp), %rdx
.Ltmp545:
	#DEBUG_VALUE: main:verified <- [%RDX+0]
	.loc	4 74 3                  # mainft.c:74:3
	movl	$6, %edi
	callq	appft
.Ltmp546:
	.loc	4 76 7                  # mainft.c:76:7
	movsd	96(%rsp), %xmm0         # xmm0 = mem[0],zero
.Ltmp547:
	#DEBUG_VALUE: main:total_time <- %XMM0
	xorpd	%xmm1, %xmm1
	ucomisd	%xmm1, %xmm0
	jne	.LBB9_4
	jnp	.LBB9_5
.Ltmp548:
.LBB9_4:                                # %select.true.sink
	#DEBUG_VALUE: main:total_time <- %XMM0
	#DEBUG_VALUE: main:verified <- [%RDX+0]
	.loc	4 80 13                 # mainft.c:80:13
	movsd	.LCPI9_0(%rip), %xmm1   # xmm1 = mem[0],zero
	divsd	%xmm0, %xmm1
.Ltmp549:
.LBB9_5:                                # %select.end
	#DEBUG_VALUE: main:total_time <- %XMM0
	#DEBUG_VALUE: main:verified <- [%RDX+0]
	.loc	4 86 65                 # mainft.c:86:65
	movl	92(%rsp), %eax
.Ltmp550:
	#DEBUG_VALUE: main:verified <- %EAX
	.loc	4 85 3                  # mainft.c:85:3
	movl	%eax, 8(%rsp)
	movq	$.L.str.12.27, 80(%rsp)
	movq	$.L.str.10.25, 72(%rsp)
	movq	$.L.str.10.25, 64(%rsp)
	movq	$.L.str.11.26, 56(%rsp)
	movq	$.L.str.10.25, 48(%rsp)
	movq	$.L.str.10.25, 40(%rsp)
	movq	$.L.str.10.25, 32(%rsp)
	movq	$.L.str.9.24, 24(%rsp)
	movq	$.L.str.8.23, 16(%rsp)
	movq	$.L.str.7.22, (%rsp)
	movl	$.L.str.6.21, %edi
	movl	$65, %esi
	movl	$256, %edx              # imm = 0x100
	movl	$256, %ecx              # imm = 0x100
	movl	$128, %r8d
	movl	$6, %r9d
	callq	print_results
	.loc	4 91 1                  # mainft.c:91:1
	xorl	%eax, %eax
.Ltmp551:
	addq	$104, %rsp
	retq
.Ltmp552:
.Lfunc_end9:
	.size	main, .Lfunc_end9-main
	.cfi_endproc

	.section	.rodata.cst8,"aM",@progbits,8
	.p2align	3
.LCPI10_0:
	.quad	4503599627370496000     # double 1.1920928955078125E-7
.LCPI10_1:
	.quad	4710765210229538816     # double 8388608
.LCPI10_2:
	.quad	4400016835940974592     # double 1.4210854715202004E-14
.LCPI10_3:
	.quad	-4409024035195715584    # double -70368744177664
	.text
	.globl	randlc
	.p2align	4, 0x90
	.type	randlc,@function
randlc:                                 # @randlc
.Lfunc_begin10:
	.file	11 "/home/norouzi/Desktop/software/benchmarks/NAS/NPB3.3-SER-C/common/randdp.c"
	.loc	11 5 0                  # randdp.c:5:0
	.cfi_startproc
# BB#0:                                 # %entry
	#DEBUG_VALUE: randlc:x <- %RDI
	#DEBUG_VALUE: randlc:a <- %XMM0
	#DEBUG_VALUE: randlc:r23 <- 1.192093e-07
	#DEBUG_VALUE: randlc:r46 <- 1.421085e-14
	#DEBUG_VALUE: randlc:t23 <- 8.388608e+06
	#DEBUG_VALUE: randlc:t46 <- 7.036874e+13
	.loc	11 47 12 prologue_end   # randdp.c:47:12
	movsd	.LCPI10_0(%rip), %xmm3  # xmm3 = mem[0],zero
	movapd	%xmm0, %xmm1
	mulsd	%xmm3, %xmm1
.Ltmp553:
	#DEBUG_VALUE: randlc:t1 <- %XMM1
	.loc	11 48 8                 # randdp.c:48:8
	cvttsd2si	%xmm1, %eax
	cvtsi2sdl	%eax, %xmm2
.Ltmp554:
	#DEBUG_VALUE: randlc:a1 <- %XMM2
	.loc	11 49 16                # randdp.c:49:16
	movsd	.LCPI10_1(%rip), %xmm4  # xmm4 = mem[0],zero
	movapd	%xmm2, %xmm1
.Ltmp555:
	mulsd	%xmm4, %xmm1
	.loc	11 49 10 is_stmt 0      # randdp.c:49:10
	subsd	%xmm1, %xmm0
.Ltmp556:
	#DEBUG_VALUE: randlc:a2 <- %XMM0
	.loc	11 56 15 is_stmt 1      # randdp.c:56:15
	movsd	(%rdi), %xmm1           # xmm1 = mem[0],zero
	.loc	11 56 12 is_stmt 0      # randdp.c:56:12
	movapd	%xmm1, %xmm5
	mulsd	%xmm3, %xmm5
.Ltmp557:
	#DEBUG_VALUE: randlc:t1 <- %XMM5
	.loc	11 57 8 is_stmt 1       # randdp.c:57:8
	cvttsd2si	%xmm5, %eax
	xorps	%xmm5, %xmm5
.Ltmp558:
	cvtsi2sdl	%eax, %xmm5
	.loc	11 59 21                # randdp.c:59:21
	movapd	%xmm0, %xmm6
	mulsd	%xmm5, %xmm6
.Ltmp559:
	#DEBUG_VALUE: randlc:x1 <- %XMM5
	.loc	11 58 17                # randdp.c:58:17
	mulsd	%xmm4, %xmm5
.Ltmp560:
	.loc	11 58 11 is_stmt 0      # randdp.c:58:11
	subsd	%xmm5, %xmm1
.Ltmp561:
	#DEBUG_VALUE: randlc:x2 <- %XMM1
	.loc	11 59 11 is_stmt 1      # randdp.c:59:11
	mulsd	%xmm1, %xmm2
.Ltmp562:
	.loc	11 59 16 is_stmt 0      # randdp.c:59:16
	addsd	%xmm6, %xmm2
.Ltmp563:
	#DEBUG_VALUE: randlc:t1 <- %XMM2
	.loc	11 60 19 is_stmt 1      # randdp.c:60:19
	mulsd	%xmm2, %xmm3
	.loc	11 60 8 is_stmt 0       # randdp.c:60:8
	cvttsd2si	%xmm3, %eax
	xorps	%xmm3, %xmm3
	cvtsi2sdl	%eax, %xmm3
.Ltmp564:
	#DEBUG_VALUE: randlc:t2 <- %XMM3
	.loc	11 61 16 is_stmt 1      # randdp.c:61:16
	mulsd	%xmm4, %xmm3
.Ltmp565:
	.loc	11 61 10 is_stmt 0      # randdp.c:61:10
	subsd	%xmm3, %xmm2
.Ltmp566:
	#DEBUG_VALUE: randlc:z <- %XMM2
	.loc	11 62 12 is_stmt 1      # randdp.c:62:12
	mulsd	%xmm4, %xmm2
.Ltmp567:
	.loc	11 62 21 is_stmt 0      # randdp.c:62:21
	mulsd	%xmm0, %xmm1
.Ltmp568:
	.loc	11 62 16                # randdp.c:62:16
	addsd	%xmm2, %xmm1
.Ltmp569:
	#DEBUG_VALUE: randlc:t3 <- %XMM1
	.loc	11 63 19 is_stmt 1      # randdp.c:63:19
	movsd	.LCPI10_2(%rip), %xmm2  # xmm2 = mem[0],zero
	movapd	%xmm1, %xmm0
.Ltmp570:
	mulsd	%xmm2, %xmm0
	.loc	11 63 8 is_stmt 0       # randdp.c:63:8
	cvttsd2si	%xmm0, %eax
	xorps	%xmm0, %xmm0
	cvtsi2sdl	%eax, %xmm0
.Ltmp571:
	#DEBUG_VALUE: randlc:t4 <- %XMM0
	.loc	11 64 17 is_stmt 1      # randdp.c:64:17
	mulsd	.LCPI10_3(%rip), %xmm0
.Ltmp572:
	.loc	11 64 11 is_stmt 0      # randdp.c:64:11
	addsd	%xmm1, %xmm0
	.loc	11 64 6                 # randdp.c:64:6
	movsd	%xmm0, (%rdi)
	.loc	11 65 11 is_stmt 1      # randdp.c:65:11
	mulsd	%xmm2, %xmm0
.Ltmp573:
	#DEBUG_VALUE: randlc:r <- %XMM0
	.loc	11 67 3                 # randdp.c:67:3
	retq
.Ltmp574:
.Lfunc_end10:
	.size	randlc, .Lfunc_end10-randlc
	.cfi_endproc

	.section	.rodata.cst8,"aM",@progbits,8
	.p2align	3
.LCPI11_0:
	.quad	4503599627370496000     # double 1.1920928955078125E-7
.LCPI11_1:
	.quad	-4512606826625236992    # double -8388608
.LCPI11_2:
	.quad	4710765210229538816     # double 8388608
.LCPI11_3:
	.quad	4400016835940974592     # double 1.4210854715202004E-14
.LCPI11_4:
	.quad	-4409024035195715584    # double -70368744177664
	.text
	.globl	vranlc
	.p2align	4, 0x90
	.type	vranlc,@function
vranlc:                                 # @vranlc
.Lfunc_begin11:
	.loc	11 72 0                 # randdp.c:72:0
	.cfi_startproc
# BB#0:                                 # %entry
	#DEBUG_VALUE: vranlc:n <- %EDI
	#DEBUG_VALUE: vranlc:x <- %RSI
	#DEBUG_VALUE: vranlc:a <- %XMM0
	#DEBUG_VALUE: vranlc:y <- %RDX
	#DEBUG_VALUE: vranlc:r23 <- 1.192093e-07
	#DEBUG_VALUE: vranlc:r46 <- 1.421085e-14
	#DEBUG_VALUE: vranlc:t23 <- 8.388608e+06
	#DEBUG_VALUE: vranlc:t46 <- 7.036874e+13
	#DEBUG_VALUE: vranlc:i <- 0
	.loc	11 122 3 prologue_end discriminator 1 # randdp.c:122:3
	testl	%edi, %edi
	jle	.LBB11_3
.Ltmp575:
# BB#1:
	#DEBUG_VALUE: vranlc:y <- %RDX
	#DEBUG_VALUE: vranlc:a <- %XMM0
	#DEBUG_VALUE: vranlc:x <- %RSI
	#DEBUG_VALUE: vranlc:n <- %EDI
	movsd	.LCPI11_0(%rip), %xmm1  # xmm1 = mem[0],zero
	.loc	11 115 12               # randdp.c:115:12
	mulsd	%xmm0, %xmm1
.Ltmp576:
	#DEBUG_VALUE: vranlc:t1 <- %XMM1
	.loc	11 116 8                # randdp.c:116:8
	cvttsd2si	%xmm1, %eax
	xorps	%xmm1, %xmm1
.Ltmp577:
	cvtsi2sdl	%eax, %xmm1
.Ltmp578:
	#DEBUG_VALUE: vranlc:a1 <- %XMM1
	movsd	.LCPI11_1(%rip), %xmm5  # xmm5 = mem[0],zero
	.loc	11 117 16               # randdp.c:117:16
	mulsd	%xmm1, %xmm5
	.loc	11 117 10 is_stmt 0     # randdp.c:117:10
	addsd	%xmm0, %xmm5
.Ltmp579:
	#DEBUG_VALUE: vranlc:a2 <- %XMM5
	.loc	11 128 14 is_stmt 1     # randdp.c:128:14
	movsd	.LCPI11_0(%rip), %xmm0  # xmm0 = mem[0],zero
.Ltmp580:
	.loc	11 130 19               # randdp.c:130:19
	movsd	.LCPI11_2(%rip), %xmm3  # xmm3 = mem[0],zero
	.loc	11 135 21               # randdp.c:135:21
	movsd	.LCPI11_3(%rip), %xmm4  # xmm4 = mem[0],zero
	movsd	.LCPI11_4(%rip), %xmm8  # xmm8 = mem[0],zero
.Ltmp581:
	.p2align	4, 0x90
.LBB11_2:                               # %for.body
                                        # =>This Inner Loop Header: Depth=1
	.loc	11 128 17               # randdp.c:128:17
	movsd	(%rsi), %xmm6           # xmm6 = mem[0],zero
	.loc	11 128 14 is_stmt 0     # randdp.c:128:14
	movapd	%xmm6, %xmm7
	mulsd	%xmm0, %xmm7
.Ltmp582:
	#DEBUG_VALUE: vranlc:t1 <- %XMM7
	.loc	11 129 10 is_stmt 1     # randdp.c:129:10
	cvttsd2si	%xmm7, %eax
	xorps	%xmm7, %xmm7
.Ltmp583:
	cvtsi2sdl	%eax, %xmm7
	.loc	11 131 23               # randdp.c:131:23
	movapd	%xmm5, %xmm2
	mulsd	%xmm7, %xmm2
.Ltmp584:
	#DEBUG_VALUE: vranlc:x1 <- %XMM7
	.loc	11 130 19               # randdp.c:130:19
	mulsd	%xmm3, %xmm7
.Ltmp585:
	.loc	11 130 13 is_stmt 0     # randdp.c:130:13
	subsd	%xmm7, %xmm6
.Ltmp586:
	#DEBUG_VALUE: vranlc:x2 <- %XMM6
	.loc	11 131 13 is_stmt 1     # randdp.c:131:13
	movapd	%xmm1, %xmm7
	mulsd	%xmm6, %xmm7
	.loc	11 131 18 is_stmt 0     # randdp.c:131:18
	addsd	%xmm2, %xmm7
.Ltmp587:
	#DEBUG_VALUE: vranlc:t1 <- %XMM7
	.loc	11 132 21 is_stmt 1     # randdp.c:132:21
	movapd	%xmm7, %xmm2
	mulsd	%xmm0, %xmm2
	.loc	11 132 10 is_stmt 0     # randdp.c:132:10
	cvttsd2si	%xmm2, %eax
	xorps	%xmm2, %xmm2
	cvtsi2sdl	%eax, %xmm2
.Ltmp588:
	#DEBUG_VALUE: vranlc:t2 <- %XMM2
	.loc	11 133 18 is_stmt 1     # randdp.c:133:18
	mulsd	%xmm3, %xmm2
.Ltmp589:
	.loc	11 133 12 is_stmt 0     # randdp.c:133:12
	subsd	%xmm2, %xmm7
.Ltmp590:
	#DEBUG_VALUE: vranlc:z <- %XMM7
	.loc	11 134 14 is_stmt 1     # randdp.c:134:14
	mulsd	%xmm3, %xmm7
.Ltmp591:
	.loc	11 134 23 is_stmt 0     # randdp.c:134:23
	mulsd	%xmm5, %xmm6
.Ltmp592:
	.loc	11 134 18               # randdp.c:134:18
	addsd	%xmm7, %xmm6
.Ltmp593:
	#DEBUG_VALUE: vranlc:t3 <- %XMM6
	.loc	11 135 21 is_stmt 1     # randdp.c:135:21
	movapd	%xmm6, %xmm2
	mulsd	%xmm4, %xmm2
	.loc	11 135 10 is_stmt 0     # randdp.c:135:10
	cvttsd2si	%xmm2, %eax
	xorps	%xmm2, %xmm2
	cvtsi2sdl	%eax, %xmm2
.Ltmp594:
	#DEBUG_VALUE: vranlc:t4 <- %XMM2
	.loc	11 136 19 is_stmt 1     # randdp.c:136:19
	mulsd	%xmm8, %xmm2
.Ltmp595:
	.loc	11 136 13 is_stmt 0     # randdp.c:136:13
	addsd	%xmm6, %xmm2
	.loc	11 136 8                # randdp.c:136:8
	movsd	%xmm2, (%rsi)
	.loc	11 137 16 is_stmt 1     # randdp.c:137:16
	mulsd	%xmm4, %xmm2
	.loc	11 137 10 is_stmt 0     # randdp.c:137:10
	movsd	%xmm2, (%rdx)
.Ltmp596:
	.loc	11 122 3 is_stmt 1 discriminator 1 # randdp.c:122:3
	addq	$8, %rdx
	decl	%edi
	jne	.LBB11_2
.Ltmp597:
.LBB11_3:                               # %for.end
	.loc	11 141 1                # randdp.c:141:1
	retq
.Ltmp598:
.Lfunc_end11:
	.size	vranlc, .Lfunc_end11-vranlc
	.cfi_endproc

	.section	.rodata.cst8,"aM",@progbits,8
	.p2align	3
.LCPI12_0:
	.quad	4607182418800017408     # double 1
	.text
	.globl	print_results
	.p2align	4, 0x90
	.type	print_results,@function
print_results:                          # @print_results
.Lfunc_begin12:
	.file	12 "/home/norouzi/Desktop/software/benchmarks/NAS/NPB3.3-SER-C/common/print_results.c"
	.loc	12 10 0                 # print_results.c:10:0
	.cfi_startproc
# BB#0:                                 # %entry
	pushq	%rbp
.Ltmp599:
	.cfi_def_cfa_offset 16
	pushq	%r15
.Ltmp600:
	.cfi_def_cfa_offset 24
	pushq	%r14
.Ltmp601:
	.cfi_def_cfa_offset 32
	pushq	%r13
.Ltmp602:
	.cfi_def_cfa_offset 40
	pushq	%r12
.Ltmp603:
	.cfi_def_cfa_offset 48
	pushq	%rbx
.Ltmp604:
	.cfi_def_cfa_offset 56
	subq	$40, %rsp
.Ltmp605:
	.cfi_def_cfa_offset 96
.Ltmp606:
	.cfi_offset %rbx, -56
.Ltmp607:
	.cfi_offset %r12, -48
.Ltmp608:
	.cfi_offset %r13, -40
.Ltmp609:
	.cfi_offset %r14, -32
.Ltmp610:
	.cfi_offset %r15, -24
.Ltmp611:
	.cfi_offset %rbp, -16
	#DEBUG_VALUE: print_results:name <- %RDI
	#DEBUG_VALUE: print_results:class <- %ESI
	#DEBUG_VALUE: print_results:n1 <- %EDX
	#DEBUG_VALUE: print_results:n2 <- %ECX
	#DEBUG_VALUE: print_results:n3 <- %R8D
	#DEBUG_VALUE: print_results:niter <- %R9D
	#DEBUG_VALUE: print_results:t <- %XMM0
	#DEBUG_VALUE: print_results:mops <- %XMM1
	movsd	%xmm1, 8(%rsp)          # 8-byte Spill
.Ltmp612:
	#DEBUG_VALUE: print_results:mops <- [%RSP+8]
	movsd	%xmm0, (%rsp)           # 8-byte Spill
.Ltmp613:
	#DEBUG_VALUE: print_results:t <- [%RSP+0]
	movl	%r9d, %r14d
.Ltmp614:
	#DEBUG_VALUE: print_results:niter <- %R14D
	movl	%r8d, %r12d
.Ltmp615:
	#DEBUG_VALUE: print_results:n3 <- %R12D
	movl	%ecx, %r13d
.Ltmp616:
	#DEBUG_VALUE: print_results:n2 <- %R13D
	movl	%edx, %r15d
.Ltmp617:
	#DEBUG_VALUE: print_results:n1 <- %R15D
	movl	%esi, %ebx
.Ltmp618:
	#DEBUG_VALUE: print_results:class <- %EBX
	movq	%rdi, %rbp
	#DEBUG_VALUE: print_results:optype <- undef
	#DEBUG_VALUE: print_results:verified <- undef
.Ltmp619:
	#DEBUG_VALUE: print_results:name <- %RBP
	.loc	12 14 3 prologue_end    # print_results.c:14:3
	movl	$.L.str.17, %edi
	xorl	%eax, %eax
	movq	%rbp, %rsi
	callq	printf
.Ltmp620:
	.loc	12 15 3                 # print_results.c:15:3
	movl	$.L.str.1.18, %edi
	xorl	%eax, %eax
	movl	%ebx, %esi
.Ltmp621:
	#DEBUG_VALUE: print_results:class <- %ESI
	callq	printf
.Ltmp622:
	.loc	12 22 20                # print_results.c:22:20
	movl	%r12d, %eax
	orl	%r13d, %eax
	je	.LBB12_1
.Ltmp623:
# BB#7:                                 # %if.else30
	#DEBUG_VALUE: print_results:class <- %ESI
	#DEBUG_VALUE: print_results:name <- %RBP
	#DEBUG_VALUE: print_results:n1 <- %R15D
	#DEBUG_VALUE: print_results:n2 <- %R13D
	#DEBUG_VALUE: print_results:n3 <- %R12D
	#DEBUG_VALUE: print_results:niter <- %R14D
	.loc	12 36 5                 # print_results.c:36:5
	movl	$.L.str.5.22, %edi
	xorl	%eax, %eax
	movl	%r15d, %esi
.Ltmp624:
	movl	%r13d, %edx
	movl	%r12d, %ecx
	callq	printf
	jmp	.LBB12_8
.Ltmp625:
.LBB12_1:                               # %if.then
	#DEBUG_VALUE: print_results:class <- %ESI
	#DEBUG_VALUE: print_results:name <- %RBP
	#DEBUG_VALUE: print_results:n1 <- %R15D
	#DEBUG_VALUE: print_results:n2 <- %R13D
	#DEBUG_VALUE: print_results:n3 <- %R12D
	#DEBUG_VALUE: print_results:niter <- %R14D
	.loc	12 23 29                # print_results.c:23:29
	movzbl	(%rbp), %eax
	cmpl	$69, %eax
	jne	.LBB12_6
.Ltmp626:
# BB#2:                                 # %land.lhs.true8
	#DEBUG_VALUE: print_results:niter <- %R14D
	#DEBUG_VALUE: print_results:n3 <- %R12D
	#DEBUG_VALUE: print_results:n2 <- %R13D
	#DEBUG_VALUE: print_results:n1 <- %R15D
	#DEBUG_VALUE: print_results:name <- %RBP
	#DEBUG_VALUE: print_results:class <- %ESI
	.loc	12 23 10 is_stmt 0 discriminator 1 # print_results.c:23:10
	movzbl	1(%rbp), %eax
	cmpl	$80, %eax
	jne	.LBB12_6
.Ltmp627:
# BB#3:                                 # %if.then13
	#DEBUG_VALUE: print_results:class <- %ESI
	#DEBUG_VALUE: print_results:name <- %RBP
	#DEBUG_VALUE: print_results:n1 <- %R15D
	#DEBUG_VALUE: print_results:n2 <- %R13D
	#DEBUG_VALUE: print_results:n3 <- %R12D
	#DEBUG_VALUE: print_results:niter <- %R14D
	.loc	12 24 33 is_stmt 1      # print_results.c:24:33
	movsd	.LCPI12_0(%rip), %xmm0  # xmm0 = mem[0],zero
	movl	%r15d, %edi
	callq	ldexp
	leaq	16(%rsp), %rdi
	.loc	12 24 7 is_stmt 0 discriminator 1 # print_results.c:24:7
	movl	$.L.str.2.19, %esi
.Ltmp628:
	movb	$1, %al
	callq	sprintf
	movl	$15, %eax
.Ltmp629:
	#DEBUG_VALUE: print_results:j <- 14
	.loc	12 26 12 is_stmt 1      # print_results.c:26:12
	movzbl	30(%rsp), %ecx
	cmpl	$46, %ecx
	jne	.LBB12_5
.Ltmp630:
# BB#4:                                 # %if.then21
	#DEBUG_VALUE: print_results:niter <- %R14D
	#DEBUG_VALUE: print_results:n3 <- %R12D
	#DEBUG_VALUE: print_results:n2 <- %R13D
	#DEBUG_VALUE: print_results:n1 <- %R15D
	#DEBUG_VALUE: print_results:name <- %RBP
	.loc	12 27 17                # print_results.c:27:17
	movb	$32, 30(%rsp)
	movl	$14, %eax
.Ltmp631:
	#DEBUG_VALUE: print_results:j <- 13
.LBB12_5:                               # %if.end
	#DEBUG_VALUE: print_results:niter <- %R14D
	#DEBUG_VALUE: print_results:n3 <- %R12D
	#DEBUG_VALUE: print_results:n2 <- %R13D
	#DEBUG_VALUE: print_results:n1 <- %R15D
	#DEBUG_VALUE: print_results:name <- %RBP
	.loc	12 30 17                # print_results.c:30:17
	movb	$0, 16(%rsp,%rax)
	leaq	16(%rsp), %rsi
	.loc	12 31 7                 # print_results.c:31:7
	movl	$.L.str.3.20, %edi
	xorl	%eax, %eax
	callq	printf
	jmp	.LBB12_8
.Ltmp632:
.LBB12_6:                               # %if.else
	#DEBUG_VALUE: print_results:niter <- %R14D
	#DEBUG_VALUE: print_results:n3 <- %R12D
	#DEBUG_VALUE: print_results:n2 <- %R13D
	#DEBUG_VALUE: print_results:n1 <- %R15D
	#DEBUG_VALUE: print_results:name <- %RBP
	#DEBUG_VALUE: print_results:class <- %ESI
	.loc	12 33 7                 # print_results.c:33:7
	movl	$.L.str.4.21, %edi
	xorl	%eax, %eax
	movl	%r15d, %esi
.Ltmp633:
	callq	printf
.Ltmp634:
.LBB12_8:                               # %if.end32
	#DEBUG_VALUE: print_results:niter <- %R14D
	#DEBUG_VALUE: print_results:n3 <- %R12D
	#DEBUG_VALUE: print_results:n2 <- %R13D
	#DEBUG_VALUE: print_results:n1 <- %R15D
	#DEBUG_VALUE: print_results:name <- %RBP
	#DEBUG_VALUE: print_results:cs7 <- undef
	movq	168(%rsp), %r12
.Ltmp635:
	#DEBUG_VALUE: print_results:cs6 <- %R12
	movq	160(%rsp), %r13
.Ltmp636:
	#DEBUG_VALUE: print_results:cs5 <- %R13
	movq	152(%rsp), %r15
.Ltmp637:
	#DEBUG_VALUE: print_results:cs4 <- %R15
	movq	144(%rsp), %rbp
.Ltmp638:
	#DEBUG_VALUE: print_results:cs3 <- %RBP
	movq	136(%rsp), %rbx
	#DEBUG_VALUE: print_results:npbversion <- undef
	#DEBUG_VALUE: print_results:compiletime <- undef
	#DEBUG_VALUE: print_results:cs1 <- undef
	#DEBUG_VALUE: print_results:cs2 <- %RBX
	.loc	12 39 3                 # print_results.c:39:3
	movl	$.L.str.6.23, %edi
	xorl	%eax, %eax
	movl	%r14d, %esi
	callq	printf
	.loc	12 40 3                 # print_results.c:40:3
	movl	$.L.str.7.24, %edi
	movb	$1, %al
	movsd	(%rsp), %xmm0           # 8-byte Reload
                                        # xmm0 = mem[0],zero
	callq	printf
	.loc	12 41 3                 # print_results.c:41:3
	movl	$.L.str.8.25, %edi
	movb	$1, %al
	movsd	8(%rsp), %xmm0          # 8-byte Reload
                                        # xmm0 = mem[0],zero
	callq	printf
	.loc	12 42 3                 # print_results.c:42:3
	movl	$.L.str.9.26, %edi
	xorl	%eax, %eax
	movq	96(%rsp), %rsi
	callq	printf
.Ltmp639:
	.loc	12 46 5                 # print_results.c:46:5
	movl	$.L.str.10.27, %edi
	.loc	12 43 8                 # print_results.c:43:8
	cmpl	$0, 104(%rsp)
.Ltmp640:
	.loc	12 43 8 is_stmt 0       # print_results.c:43:8
	je	.LBB12_10
.Ltmp641:
# BB#9:                                 # %if.then37
	#DEBUG_VALUE: print_results:niter <- %R14D
	#DEBUG_VALUE: print_results:cs2 <- %RBX
	#DEBUG_VALUE: print_results:cs3 <- %RBP
	#DEBUG_VALUE: print_results:cs4 <- %R15
	#DEBUG_VALUE: print_results:cs5 <- %R13
	#DEBUG_VALUE: print_results:cs6 <- %R12
	.loc	12 44 5 is_stmt 1       # print_results.c:44:5
	movl	$.L.str.11.28, %esi
	jmp	.LBB12_11
.Ltmp642:
.LBB12_10:                              # %if.else39
	#DEBUG_VALUE: print_results:niter <- %R14D
	#DEBUG_VALUE: print_results:cs2 <- %RBX
	#DEBUG_VALUE: print_results:cs3 <- %RBP
	#DEBUG_VALUE: print_results:cs4 <- %R15
	#DEBUG_VALUE: print_results:cs5 <- %R13
	#DEBUG_VALUE: print_results:cs6 <- %R12
	.loc	12 46 5                 # print_results.c:46:5
	movl	$.L.str.12.29, %esi
.Ltmp643:
.LBB12_11:                              # %if.end41
	#DEBUG_VALUE: print_results:cs6 <- %R12
	#DEBUG_VALUE: print_results:cs5 <- %R13
	#DEBUG_VALUE: print_results:cs4 <- %R15
	#DEBUG_VALUE: print_results:cs3 <- %RBP
	#DEBUG_VALUE: print_results:cs2 <- %RBX
	#DEBUG_VALUE: print_results:niter <- %R14D
	xorl	%eax, %eax
	callq	printf
	movq	176(%rsp), %r14
.Ltmp644:
	movq	112(%rsp), %rsi
.Ltmp645:
	.loc	12 47 3                 # print_results.c:47:3
	movl	$.L.str.13.30, %edi
	xorl	%eax, %eax
	callq	printf
	.loc	12 48 3                 # print_results.c:48:3
	movl	$.L.str.14.31, %edi
	xorl	%eax, %eax
	movq	120(%rsp), %rsi
	callq	printf
	.loc	12 50 3                 # print_results.c:50:3
	movl	$.L.str.15.32, %edi
	xorl	%eax, %eax
	movq	128(%rsp), %rsi
	callq	printf
	.loc	12 52 3                 # print_results.c:52:3
	movl	$.L.str.16.33, %edi
	xorl	%eax, %eax
	movq	%rbx, %rsi
	callq	printf
	.loc	12 53 3                 # print_results.c:53:3
	movl	$.L.str.17.34, %edi
	xorl	%eax, %eax
	movq	%rbp, %rsi
	callq	printf
	.loc	12 54 3                 # print_results.c:54:3
	movl	$.L.str.18, %edi
	xorl	%eax, %eax
	movq	%r15, %rsi
	callq	printf
	.loc	12 55 3                 # print_results.c:55:3
	movl	$.L.str.19, %edi
	xorl	%eax, %eax
	movq	%r13, %rsi
	callq	printf
	.loc	12 56 3                 # print_results.c:56:3
	movl	$.L.str.20, %edi
	xorl	%eax, %eax
	movq	%r12, %rsi
	callq	printf
	.loc	12 57 3                 # print_results.c:57:3
	movl	$.L.str.21, %edi
	xorl	%eax, %eax
	movq	%r14, %rsi
	callq	printf
	.loc	12 59 3                 # print_results.c:59:3
	movl	$.Lstr.35, %edi
	callq	puts
	.loc	12 65 1                 # print_results.c:65:1
	addq	$40, %rsp
	popq	%rbx
.Ltmp646:
	popq	%r12
.Ltmp647:
	popq	%r13
.Ltmp648:
	popq	%r14
	popq	%r15
.Ltmp649:
	popq	%rbp
.Ltmp650:
	retq
.Ltmp651:
.Lfunc_end12:
	.size	print_results, .Lfunc_end12-print_results
	.cfi_endproc

	.globl	timer_clear
	.p2align	4, 0x90
	.type	timer_clear,@function
timer_clear:                            # @timer_clear
.Lfunc_begin13:
	.loc	6 26 0                  # c_timers.c:26:0
	.cfi_startproc
# BB#0:                                 # %entry
	#DEBUG_VALUE: timer_clear:n <- %EDI
	.loc	6 27 5 prologue_end     # c_timers.c:27:5
	movslq	%edi, %rax
	.loc	6 27 16 is_stmt 0       # c_timers.c:27:16
	movq	$0, elapsed(,%rax,8)
	.loc	6 28 1 is_stmt 1        # c_timers.c:28:1
	retq
.Ltmp652:
.Lfunc_end13:
	.size	timer_clear, .Lfunc_end13-timer_clear
	.cfi_endproc

	.globl	timer_start
	.p2align	4, 0x90
	.type	timer_start,@function
timer_start:                            # @timer_start
.Lfunc_begin14:
	.loc	6 35 0                  # c_timers.c:35:0
	.cfi_startproc
# BB#0:                                 # %entry
	pushq	%rbx
.Ltmp653:
	.cfi_def_cfa_offset 16
	subq	$16, %rsp
.Ltmp654:
	.cfi_def_cfa_offset 32
.Ltmp655:
	.cfi_offset %rbx, -16
	#DEBUG_VALUE: timer_start:n <- %EDI
	movl	%edi, %ebx
.Ltmp656:
	#DEBUG_VALUE: timer_start:n <- %EBX
	leaq	8(%rsp), %rdi
.Ltmp657:
	#DEBUG_VALUE: elapsed_time:t <- [%RDI+0]
	.loc	6 15 5 prologue_end     # c_timers.c:15:5
	callq	wtime_
	.loc	6 16 13                 # c_timers.c:16:13
	movq	8(%rsp), %rax
.Ltmp658:
	.loc	6 36 5                  # c_timers.c:36:5
	movslq	%ebx, %rcx
	.loc	6 36 14 is_stmt 0       # c_timers.c:36:14
	movq	%rax, start(,%rcx,8)
	.loc	6 37 1 is_stmt 1        # c_timers.c:37:1
	addq	$16, %rsp
	popq	%rbx
.Ltmp659:
	retq
.Ltmp660:
.Lfunc_end14:
	.size	timer_start, .Lfunc_end14-timer_start
	.cfi_endproc

	.globl	timer_stop
	.p2align	4, 0x90
	.type	timer_stop,@function
timer_stop:                             # @timer_stop
.Lfunc_begin15:
	.loc	6 44 0                  # c_timers.c:44:0
	.cfi_startproc
# BB#0:                                 # %entry
	pushq	%rbx
.Ltmp661:
	.cfi_def_cfa_offset 16
	subq	$16, %rsp
.Ltmp662:
	.cfi_def_cfa_offset 32
.Ltmp663:
	.cfi_offset %rbx, -16
	#DEBUG_VALUE: timer_stop:n <- %EDI
	movl	%edi, %ebx
.Ltmp664:
	#DEBUG_VALUE: timer_stop:n <- %EBX
	leaq	8(%rsp), %rdi
.Ltmp665:
	#DEBUG_VALUE: elapsed_time:t <- [%RDI+0]
	.loc	6 15 5 prologue_end     # c_timers.c:15:5
	callq	wtime_
	.loc	6 16 13                 # c_timers.c:16:13
	movsd	8(%rsp), %xmm0          # xmm0 = mem[0],zero
.Ltmp666:
	#DEBUG_VALUE: elapsed_time:t <- %XMM0
	#DEBUG_VALUE: timer_stop:now <- %XMM0
	.loc	6 48 15                 # c_timers.c:48:15
	movslq	%ebx, %rax
	.loc	6 48 13 is_stmt 0       # c_timers.c:48:13
	subsd	start(,%rax,8), %xmm0
.Ltmp667:
	#DEBUG_VALUE: timer_stop:t <- %XMM0
	.loc	6 49 16 is_stmt 1       # c_timers.c:49:16
	addsd	elapsed(,%rax,8), %xmm0
.Ltmp668:
	movsd	%xmm0, elapsed(,%rax,8)
	.loc	6 51 1                  # c_timers.c:51:1
	addq	$16, %rsp
	popq	%rbx
.Ltmp669:
	retq
.Ltmp670:
.Lfunc_end15:
	.size	timer_stop, .Lfunc_end15-timer_stop
	.cfi_endproc

	.globl	timer_read
	.p2align	4, 0x90
	.type	timer_read,@function
timer_read:                             # @timer_read
.Lfunc_begin16:
	.loc	6 58 0                  # c_timers.c:58:0
	.cfi_startproc
# BB#0:                                 # %entry
	#DEBUG_VALUE: timer_read:n <- %EDI
	.loc	6 59 13 prologue_end    # c_timers.c:59:13
	movslq	%edi, %rax
	movsd	elapsed(,%rax,8), %xmm0 # xmm0 = mem[0],zero
	.loc	6 59 5 is_stmt 0        # c_timers.c:59:5
	retq
.Ltmp671:
.Lfunc_end16:
	.size	timer_read, .Lfunc_end16-timer_read
	.cfi_endproc

	.section	.rodata.cst8,"aM",@progbits,8
	.p2align	3
.LCPI17_0:
	.quad	4517329193108106637     # double 9.9999999999999995E-7
	.text
	.globl	wtime_
	.p2align	4, 0x90
	.type	wtime_,@function
wtime_:                                 # @wtime_
.Lfunc_begin17:
	.loc	7 8 0 is_stmt 1         # ../common/wtime.c:8:0
	.cfi_startproc
# BB#0:                                 # %entry
	pushq	%rbx
.Ltmp672:
	.cfi_def_cfa_offset 16
	subq	$16, %rsp
.Ltmp673:
	.cfi_def_cfa_offset 32
.Ltmp674:
	.cfi_offset %rbx, -16
	#DEBUG_VALUE: wtime_:t <- %RDI
	movq	%rdi, %rbx
.Ltmp675:
	#DEBUG_VALUE: wtime_:t <- %RBX
	leaq	(%rsp), %rdi
.Ltmp676:
	#DEBUG_VALUE: wtime_:tv <- [%RDI+0]
	.loc	7 11 3 prologue_end     # ../common/wtime.c:11:3
	xorl	%esi, %esi
	callq	gettimeofday
.Ltmp677:
	.loc	7 12 7                  # ../common/wtime.c:12:7
	movl	wtime_.sec(%rip), %ecx
	.loc	7 12 25 is_stmt 0 discriminator 1 # ../common/wtime.c:12:25
	movq	(%rsp), %rax
.Ltmp678:
	.loc	7 12 7                  # ../common/wtime.c:12:7
	testl	%ecx, %ecx
	jns	.LBB17_2
.Ltmp679:
# BB#1:                                 # %if.then
	#DEBUG_VALUE: wtime_:tv <- [%RDI+0]
	#DEBUG_VALUE: wtime_:t <- %RBX
	.loc	7 12 20 discriminator 1 # ../common/wtime.c:12:20
	movl	%eax, wtime_.sec(%rip)
.Ltmp680:
	.loc	7 13 21 is_stmt 1       # ../common/wtime.c:13:21
	movl	%eax, %ecx
.Ltmp681:
.LBB17_2:                               # %if.end
	#DEBUG_VALUE: wtime_:tv <- [%RDI+0]
	#DEBUG_VALUE: wtime_:t <- %RBX
	movslq	%ecx, %rcx
	.loc	7 13 19 is_stmt 0       # ../common/wtime.c:13:19
	subq	%rcx, %rax
	.loc	7 13 8                  # ../common/wtime.c:13:8
	cvtsi2sdq	%rax, %xmm0
	.loc	7 13 35                 # ../common/wtime.c:13:35
	cvtsi2sdq	8(%rsp), %xmm1
	.loc	7 13 34                 # ../common/wtime.c:13:34
	mulsd	.LCPI17_0(%rip), %xmm1
	.loc	7 13 26                 # ../common/wtime.c:13:26
	addsd	%xmm0, %xmm1
	.loc	7 13 6                  # ../common/wtime.c:13:6
	movsd	%xmm1, (%rbx)
	.loc	7 14 1 is_stmt 1        # ../common/wtime.c:14:1
	addq	$16, %rsp
	popq	%rbx
.Ltmp682:
	retq
.Ltmp683:
.Lfunc_end17:
	.size	wtime_, .Lfunc_end17-wtime_
	.cfi_endproc

	.type	timers_enabled,@object  # @timers_enabled
	.comm	timers_enabled,4,4
	.type	xnt,@object             # @xnt
	.local	xnt
	.comm	xnt,134742016,16
	.type	y,@object               # @y
	.local	y
	.comm	y,134742016,16
	.type	fftblock,@object        # @fftblock
	.local	fftblock
	.comm	fftblock,4,4
	.type	plane,@object           # @plane
	.local	plane
	.comm	plane,135168,16
	.type	scr,@object             # @scr
	.local	scr
	.comm	scr,135168,16
	.type	twiddle,@object         # @twiddle
	.local	twiddle
	.comm	twiddle,67371008,16
	.type	sums,@object            # @sums
	.local	sums
	.comm	sums,112,16
	.type	.L.str,@object          # @.str
	.section	.rodata.str1.1,"aMS",@progbits,1
.L.str:
	.asciz	" T =%5d     Checksum =%22.12E%22.12E\n"
	.size	.L.str, 38

	.type	.Lstr.30,@object        # @str.30
	.section	.rodata.str1.16,"aMS",@progbits,1
	.p2align	4
.Lstr.30:
	.asciz	"  Verification test for FT not performed"
	.size	.Lstr.30, 41

	.type	.Lstr.4,@object         # @str.4
	.p2align	4
.Lstr.4:
	.asciz	" Verification test for FT successful"
	.size	.Lstr.4, 37

	.type	.Lstr.3,@object         # @str.3
	.p2align	4
.Lstr.3:
	.asciz	" Verification test for FT failed"
	.size	.Lstr.3, 33

	.type	.Lstr,@object           # @str
	.p2align	4
.Lstr:
	.asciz	" FT subroutine timers "
	.size	.Lstr, 23

	.type	.L.str.1,@object        # @.str.1
	.section	.rodata.str1.1,"aMS",@progbits,1
.L.str.1:
	.asciz	" %26s =%9.4f\n"
	.size	.L.str.1, 14

	.type	.L.str.2,@object        # @.str.2
.L.str.2:
	.asciz	"FT total                  "
	.size	.L.str.2, 27

	.type	.L.str.3,@object        # @.str.3
.L.str.3:
	.asciz	"WarmUp time               "
	.size	.L.str.3, 27

	.type	.L.str.4,@object        # @.str.4
.L.str.4:
	.asciz	"fftXYZ body               "
	.size	.L.str.4, 27

	.type	.L.str.5,@object        # @.str.5
.L.str.5:
	.asciz	"Swarztrauber              "
	.size	.L.str.5, 27

	.type	.L.str.6,@object        # @.str.6
.L.str.6:
	.asciz	"X time                    "
	.size	.L.str.6, 27

	.type	.L.str.7,@object        # @.str.7
.L.str.7:
	.asciz	"Y time                    "
	.size	.L.str.7, 27

	.type	.L.str.8,@object        # @.str.8
.L.str.8:
	.asciz	"Z time                    "
	.size	.L.str.8, 27

	.type	.L.str.9,@object        # @.str.9
.L.str.9:
	.asciz	"CalculateChecksum         "
	.size	.L.str.9, 27

	.type	.L.str.10,@object       # @.str.10
.L.str.10:
	.asciz	"evolve                    "
	.size	.L.str.10, 27

	.type	.L.str.11,@object       # @.str.11
.L.str.11:
	.asciz	"compute_initial_conditions"
	.size	.L.str.11, 27

	.type	.L.str.12,@object       # @.str.12
.L.str.12:
	.asciz	"twiddle                   "
	.size	.L.str.12, 27

	.type	.L.str.13,@object       # @.str.13
.L.str.13:
	.asciz	"verify                    "
	.size	.L.str.13, 27

	.type	.L.str.14,@object       # @.str.14
.L.str.14:
	.asciz	"fftXYZ                    "
	.size	.L.str.14, 27

	.type	.L.str.15,@object       # @.str.15
.L.str.15:
	.asciz	"Benchmark time            "
	.size	.L.str.15, 27

	.type	.L.str.16,@object       # @.str.16
.L.str.16:
	.asciz	"timer.flag"
	.size	.L.str.16, 11

	.type	.L.str.1.17,@object     # @.str.1.17
.L.str.1.17:
	.asciz	"r"
	.size	.L.str.1.17, 2

	.type	.Lstr.18,@object        # @str.18
	.section	.rodata.str1.16,"aMS",@progbits,1
	.p2align	4
.Lstr.18:
	.asciz	"\n\n NAS Parallel Benchmarks (NPB3.3-SER-C) - FT Benchmark\n"
	.size	.Lstr.18, 58

	.type	.L.str.3.19,@object     # @.str.3.19
	.section	.rodata.str1.1,"aMS",@progbits,1
.L.str.3.19:
	.asciz	" Size                : %4dx%4dx%4d\n"
	.size	.L.str.3.19, 36

	.type	.L.str.4.20,@object     # @.str.4.20
.L.str.4.20:
	.asciz	" Iterations          :     %10d\n"
	.size	.L.str.4.20, 33

	.type	.L.str.6.21,@object     # @.str.6.21
.L.str.6.21:
	.asciz	"FT"
	.size	.L.str.6.21, 3

	.type	.L.str.7.22,@object     # @.str.7.22
.L.str.7.22:
	.asciz	"          floating point"
	.size	.L.str.7.22, 25

	.type	.L.str.8.23,@object     # @.str.8.23
.L.str.8.23:
	.asciz	"3.3.1"
	.size	.L.str.8.23, 6

	.type	.L.str.9.24,@object     # @.str.9.24
.L.str.9.24:
	.asciz	"03 Mar 2016"
	.size	.L.str.9.24, 12

	.type	.L.str.10.25,@object    # @.str.10.25
.L.str.10.25:
	.asciz	"(none)"
	.size	.L.str.10.25, 7

	.type	.L.str.11.26,@object    # @.str.11.26
.L.str.11.26:
	.asciz	"-I ../common "
	.size	.L.str.11.26, 14

	.type	.L.str.12.27,@object    # @.str.12.27
.L.str.12.27:
	.asciz	"randdp"
	.size	.L.str.12.27, 7

	.type	.L.str.17,@object       # @.str.17
.L.str.17:
	.asciz	"\n\n %s Benchmark Completed.\n"
	.size	.L.str.17, 28

	.type	.L.str.1.18,@object     # @.str.1.18
.L.str.1.18:
	.asciz	" Class           =             %12c\n"
	.size	.L.str.1.18, 37

	.type	.L.str.2.19,@object     # @.str.2.19
.L.str.2.19:
	.asciz	"%15.0lf"
	.size	.L.str.2.19, 8

	.type	.L.str.3.20,@object     # @.str.3.20
.L.str.3.20:
	.asciz	" Size            =          %15s\n"
	.size	.L.str.3.20, 34

	.type	.L.str.4.21,@object     # @.str.4.21
.L.str.4.21:
	.asciz	" Size            =             %12d\n"
	.size	.L.str.4.21, 37

	.type	.L.str.5.22,@object     # @.str.5.22
.L.str.5.22:
	.asciz	" Size            =           %4dx%4dx%4d\n"
	.size	.L.str.5.22, 42

	.type	.L.str.6.23,@object     # @.str.6.23
.L.str.6.23:
	.asciz	" Iterations      =             %12d\n"
	.size	.L.str.6.23, 37

	.type	.L.str.7.24,@object     # @.str.7.24
.L.str.7.24:
	.asciz	" Time in seconds =             %12.2lf\n"
	.size	.L.str.7.24, 40

	.type	.L.str.8.25,@object     # @.str.8.25
.L.str.8.25:
	.asciz	" Mop/s total     =          %15.2lf\n"
	.size	.L.str.8.25, 37

	.type	.L.str.9.26,@object     # @.str.9.26
.L.str.9.26:
	.asciz	" Operation type  = %24s\n"
	.size	.L.str.9.26, 25

	.type	.L.str.10.27,@object    # @.str.10.27
.L.str.10.27:
	.asciz	" Verification    =             %12s\n"
	.size	.L.str.10.27, 37

	.type	.L.str.11.28,@object    # @.str.11.28
.L.str.11.28:
	.asciz	"SUCCESSFUL"
	.size	.L.str.11.28, 11

	.type	.L.str.12.29,@object    # @.str.12.29
.L.str.12.29:
	.asciz	"UNSUCCESSFUL"
	.size	.L.str.12.29, 13

	.type	.L.str.13.30,@object    # @.str.13.30
.L.str.13.30:
	.asciz	" Version         =             %12s\n"
	.size	.L.str.13.30, 37

	.type	.L.str.14.31,@object    # @.str.14.31
.L.str.14.31:
	.asciz	" Compile date    =             %12s\n"
	.size	.L.str.14.31, 37

	.type	.L.str.15.32,@object    # @.str.15.32
.L.str.15.32:
	.asciz	"\n Compile options:\n    CC           = %s\n"
	.size	.L.str.15.32, 42

	.type	.L.str.16.33,@object    # @.str.16.33
.L.str.16.33:
	.asciz	"    CLINK        = %s\n"
	.size	.L.str.16.33, 23

	.type	.L.str.17.34,@object    # @.str.17.34
.L.str.17.34:
	.asciz	"    C_LIB        = %s\n"
	.size	.L.str.17.34, 23

	.type	.L.str.18,@object       # @.str.18
.L.str.18:
	.asciz	"    C_INC        = %s\n"
	.size	.L.str.18, 23

	.type	.L.str.19,@object       # @.str.19
.L.str.19:
	.asciz	"    CFLAGS       = %s\n"
	.size	.L.str.19, 23

	.type	.L.str.20,@object       # @.str.20
.L.str.20:
	.asciz	"    CLINKFLAGS   = %s\n"
	.size	.L.str.20, 23

	.type	.L.str.21,@object       # @.str.21
.L.str.21:
	.asciz	"    RAND         = %s\n"
	.size	.L.str.21, 23

	.type	.Lstr.35,@object        # @str.35
	.section	.rodata.str1.16,"aMS",@progbits,1
	.p2align	4
.Lstr.35:
	.asciz	"\n--------------------------------------\n Please send all errors/feedbacks to:\n Center for Manycore Programming\n cmp@aces.snu.ac.kr\n http://aces.snu.ac.kr\n--------------------------------------\n"
	.size	.Lstr.35, 194

	.type	elapsed,@object         # @elapsed
	.local	elapsed
	.comm	elapsed,512,16
	.type	start,@object           # @start
	.local	start
	.comm	start,512,16
	.type	wtime_.sec,@object      # @wtime_.sec
	.data
	.p2align	2
wtime_.sec:
	.long	4294967295              # 0xffffffff
	.size	wtime_.sec, 4

	.file	13 "/usr/include/libio.h"
	.file	14 "/usr/include/x86_64-linux-gnu/bits/types.h"
	.file	15 "/home/norouzi/Desktop/software/llvmTemp/build/bin/../lib/clang/3.9.0/include/stddef.h"
	.file	16 "/usr/include/stdio.h"
	.file	17 "/usr/include/x86_64-linux-gnu/bits/types.h"
	.file	18 "/usr/include/x86_64-linux-gnu/bits/time.h"
	.section	".note.GNU-stack","",@progbits