	.text
	.file	"lu/A/lu.A.bc"
	.file	1 "/home/norouzi/Desktop/software/benchmarks/NAS/NPB3.3-SER-C/LU/lu.c"
	.file	2 "/home/norouzi/Desktop/software/benchmarks/NAS/NPB3.3-SER-C/LU/../common/type.h"
	.file	3 "/home/norouzi/Desktop/software/benchmarks/NAS/NPB3.3-SER-C/common/../common/type.h"
	.file	4 "/home/norouzi/Desktop/software/benchmarks/NAS/NPB3.3-SER-C/common/c_timers.c"
	.file	5 "/home/norouzi/Desktop/software/benchmarks/NAS/NPB3.3-SER-C/common/../common/wtime.c"
	.section	.rodata.cst8,"aM",@progbits,8
	.p2align	3
.LCPI0_0:
	.quad	4656443926220195758     # double 1984.77
.LCPI0_1:
	.quad	4613937818241073152     # double 3
.LCPI0_2:
	.quad	-4556141274844469658    # double -10923.299999999999
.LCPI0_3:
	.quad	4673362820821784986     # double 27770.900000000001
.LCPI0_4:
	.quad	-4539183878094454784    # double -144010
.LCPI0_5:
	.quad	4696837146684686336     # double 1.0E+6
.LCPI0_6:
	.quad	4607182418800017408     # double 1
.LCPI0_7:
	.quad	4636737291354636288     # double 100
	.text
	.globl	main
	.p2align	4, 0x90
	.type	main,@function
main:                                   # @main
.Lfunc_begin0:
	.loc	1 130 0                 # lu.c:130:0
	.cfi_startproc
# BB#0:                                 # %entry
	.loc	1 143 13 prologue_end   # lu.c:143:13
	pushq	%rbx
.Ltmp0:
	.cfi_def_cfa_offset 16
	subq	$336, %rsp              # imm = 0x150
.Ltmp1:
	.cfi_def_cfa_offset 352
.Ltmp2:
	.cfi_offset %rbx, -16
	#DEBUG_VALUE: main:argc <- %EDI
	#DEBUG_VALUE: main:argv <- %RSI
	movl	$.L.str, %edi
.Ltmp3:
	movl	$.L.str.1, %esi
.Ltmp4:
	callq	fopen
.Ltmp5:
	#DEBUG_VALUE: main:fp <- %RAX
	.loc	1 143 39 is_stmt 0      # lu.c:143:39
	testq	%rax, %rax
.Ltmp6:
	.loc	1 143 7                 # lu.c:143:7
	je	.LBB0_2
.Ltmp7:
# BB#1:                                 # %if.then
	#DEBUG_VALUE: main:fp <- %RAX
	.loc	1 144 13 is_stmt 1      # lu.c:144:13
	movl	$1, timeron(%rip)
	.loc	1 145 22                # lu.c:145:22
	movl	$.L.str.3, %ecx
	movd	%rcx, %xmm0
	movl	$.L.str.2, %ecx
	movd	%rcx, %xmm1
	punpcklqdq	%xmm0, %xmm1    # xmm1 = xmm1[0],xmm0[0]
	movdqu	%xmm1, 248(%rsp)
	.loc	1 147 21                # lu.c:147:21
	movl	$.L.str.5, %ecx
	movd	%rcx, %xmm0
	movl	$.L.str.4, %ecx
	movd	%rcx, %xmm1
	punpcklqdq	%xmm0, %xmm1    # xmm1 = xmm1[0],xmm0[0]
	movdqu	%xmm1, 264(%rsp)
	.loc	1 149 20                # lu.c:149:20
	movl	$.L.str.7, %ecx
	movd	%rcx, %xmm0
	movl	$.L.str.6, %ecx
	movd	%rcx, %xmm1
	punpcklqdq	%xmm0, %xmm1    # xmm1 = xmm1[0],xmm0[0]
	movdqu	%xmm1, 280(%rsp)
	.loc	1 151 21                # lu.c:151:21
	movl	$.L.str.9, %ecx
	movd	%rcx, %xmm0
	movl	$.L.str.8, %ecx
	movd	%rcx, %xmm1
	punpcklqdq	%xmm0, %xmm1    # xmm1 = xmm1[0],xmm0[0]
	movdqu	%xmm1, 296(%rsp)
	.loc	1 153 21                # lu.c:153:21
	movl	$.L.str.11, %ecx
	movd	%rcx, %xmm0
	movl	$.L.str.10, %ecx
	movd	%rcx, %xmm1
	punpcklqdq	%xmm0, %xmm1    # xmm1 = xmm1[0],xmm0[0]
	movdqu	%xmm1, 312(%rsp)
	.loc	1 155 23                # lu.c:155:23
	movq	$.L.str.12, 328(%rsp)
	.loc	1 156 5                 # lu.c:156:5
	movq	%rax, %rdi
	callq	fclose
.Ltmp8:
	jmp	.LBB0_3
.Ltmp9:
.LBB0_2:                                # %if.else
	#DEBUG_VALUE: main:fp <- %RAX
	.loc	1 158 13                # lu.c:158:13
	movl	$0, timeron(%rip)
.Ltmp10:
.LBB0_3:                                # %if.end
	.loc	1 164 3                 # lu.c:164:3
	xorl	%eax, %eax
	callq	read_input
	.loc	1 169 3                 # lu.c:169:3
	xorl	%eax, %eax
	callq	domain
	.loc	1 174 3                 # lu.c:174:3
	xorl	%eax, %eax
	callq	setcoeff
	.loc	1 179 3                 # lu.c:179:3
	xorl	%eax, %eax
	callq	setbv
	.loc	1 184 3                 # lu.c:184:3
	xorl	%eax, %eax
	callq	setiv
	.loc	1 189 3                 # lu.c:189:3
	xorl	%eax, %eax
	callq	erhs
	.loc	1 194 3                 # lu.c:194:3
	movl	$1, %edi
	callq	ssor
	.loc	1 199 3                 # lu.c:199:3
	xorl	%eax, %eax
	callq	setbv
	.loc	1 200 3                 # lu.c:200:3
	xorl	%eax, %eax
	callq	setiv
	.loc	1 205 8                 # lu.c:205:8
	movl	itmax(%rip), %edi
	.loc	1 205 3 is_stmt 0       # lu.c:205:3
	callq	ssor
	.loc	1 210 3 is_stmt 1       # lu.c:210:3
	xorl	%eax, %eax
	callq	error
	.loc	1 215 3                 # lu.c:215:3
	xorl	%eax, %eax
	callq	pintgr
	.loc	1 220 26                # lu.c:220:26
	movsd	frc(%rip), %xmm0        # xmm0 = mem[0],zero
	leaq	95(%rsp), %rdx
.Ltmp11:
	#DEBUG_VALUE: main:Class <- [%RDX+0]
	leaq	132(%rsp), %rcx
.Ltmp12:
	#DEBUG_VALUE: main:verified <- [%RCX+0]
	.loc	1 220 3 is_stmt 0       # lu.c:220:3
	movl	$rsdnm, %edi
	movl	$errnm, %esi
	callq	verify
	.loc	1 221 20 is_stmt 1      # lu.c:221:20
	movl	itmax(%rip), %r9d
	.loc	1 221 12 is_stmt 0      # lu.c:221:12
	xorps	%xmm0, %xmm0
	cvtsi2sdl	%r9d, %xmm0
	.loc	1 221 47                # lu.c:221:47
	movl	nx0(%rip), %edx
.Ltmp13:
	.loc	1 221 39                # lu.c:221:39
	cvtsi2sdl	%edx, %xmm1
	.loc	1 221 37                # lu.c:221:37
	mulsd	.LCPI0_0(%rip), %xmm1
	.loc	1 222 17 is_stmt 1      # lu.c:222:17
	movl	ny0(%rip), %ecx
.Ltmp14:
	.loc	1 222 9 is_stmt 0       # lu.c:222:9
	cvtsi2sdl	%ecx, %xmm2
	.loc	1 222 7                 # lu.c:222:7
	mulsd	%xmm1, %xmm2
	.loc	1 223 17 is_stmt 1      # lu.c:223:17
	movl	nz0(%rip), %r8d
	.loc	1 223 9 is_stmt 0       # lu.c:223:9
	cvtsi2sdl	%r8d, %xmm3
	.loc	1 223 7                 # lu.c:223:7
	mulsd	%xmm2, %xmm3
	.loc	1 224 36 is_stmt 1      # lu.c:224:36
	leal	(%rcx,%rdx), %eax
	.loc	1 224 40 is_stmt 0      # lu.c:224:40
	addl	%r8d, %eax
	.loc	1 224 24                # lu.c:224:24
	xorps	%xmm1, %xmm1
	cvtsi2sdl	%eax, %xmm1
	.loc	1 224 45                # lu.c:224:45
	movsd	.LCPI0_1(%rip), %xmm2   # xmm2 = mem[0],zero
	movapd	%xmm1, %xmm4
	divsd	%xmm2, %xmm4
	.loc	1 224 19                # lu.c:224:19
	mulsd	%xmm4, %xmm4
	.loc	1 224 17                # lu.c:224:17
	mulsd	.LCPI0_2(%rip), %xmm4
	.loc	1 224 7                 # lu.c:224:7
	addsd	%xmm3, %xmm4
	.loc	1 225 17 is_stmt 1      # lu.c:225:17
	mulsd	.LCPI0_3(%rip), %xmm1
	.loc	1 225 40 is_stmt 0      # lu.c:225:40
	divsd	%xmm2, %xmm1
	.loc	1 225 7                 # lu.c:225:7
	addsd	%xmm4, %xmm1
	.loc	1 226 7 is_stmt 1       # lu.c:226:7
	addsd	.LCPI0_4(%rip), %xmm1
	.loc	1 221 26                # lu.c:221:26
	mulsd	%xmm0, %xmm1
	.loc	1 227 8                 # lu.c:227:8
	movsd	maxtime(%rip), %xmm0    # xmm0 = mem[0],zero
	movsd	.LCPI0_5(%rip), %xmm2   # xmm2 = mem[0],zero
	.loc	1 227 15 is_stmt 0      # lu.c:227:15
	mulsd	%xmm0, %xmm2
	.loc	1 227 5                 # lu.c:227:5
	divsd	%xmm2, %xmm1
.Ltmp15:
	#DEBUG_VALUE: main:mflops <- %XMM1
	.loc	1 231 62 is_stmt 1      # lu.c:231:62
	movl	132(%rsp), %eax
.Ltmp16:
	#DEBUG_VALUE: main:verified <- %EAX
	.loc	1 229 3                 # lu.c:229:3
	movsbl	95(%rsp), %esi
	movl	%eax, 8(%rsp)
	movq	$.L.str.17, 80(%rsp)
	movq	$.L.str.17, 72(%rsp)
	movq	$.L.str.17, 64(%rsp)
	movq	$.L.str.18, 56(%rsp)
	movq	$.L.str.17, 48(%rsp)
	movq	$.L.str.17, 40(%rsp)
	movq	$.L.str.17, 32(%rsp)
	movq	$.L.str.16, 24(%rsp)
	movq	$.L.str.15, 16(%rsp)
	movq	$.L.str.14, (%rsp)
	movl	$.L.str.13, %edi
	callq	print_results
.Ltmp17:
	.loc	1 238 7                 # lu.c:238:7
	cmpl	$0, timeron(%rip)
	je	.LBB0_9
.Ltmp18:
# BB#4:                                 # %for.body.preheader
	#DEBUG_VALUE: main:verified <- %EAX
	#DEBUG_VALUE: main:mflops <- %XMM1
	.loc	1 240 18                # lu.c:240:18
	movl	$1, %edi
	callq	timer_read
	.loc	1 240 16 is_stmt 0      # lu.c:240:16
	movsd	%xmm0, 120(%rsp)        # 8-byte Spill
	movsd	%xmm0, 152(%rsp)
	.loc	1 240 18                # lu.c:240:18
	movl	$2, %edi
	callq	timer_read
	.loc	1 240 16                # lu.c:240:16
	movsd	%xmm0, 96(%rsp)         # 8-byte Spill
	movsd	%xmm0, 160(%rsp)
	.loc	1 240 18                # lu.c:240:18
	movl	$3, %edi
	callq	timer_read
	.loc	1 240 16                # lu.c:240:16
	movsd	%xmm0, 104(%rsp)        # 8-byte Spill
	movsd	%xmm0, 168(%rsp)
	.loc	1 240 18                # lu.c:240:18
	movl	$4, %edi
	callq	timer_read
	.loc	1 240 16                # lu.c:240:16
	movsd	%xmm0, 136(%rsp)        # 8-byte Spill
	movsd	%xmm0, 176(%rsp)
	.loc	1 240 18                # lu.c:240:18
	movl	$5, %edi
	callq	timer_read
	.loc	1 240 16                # lu.c:240:16
	movsd	%xmm0, 184(%rsp)
	.loc	1 240 18                # lu.c:240:18
	movl	$6, %edi
	callq	timer_read
	.loc	1 240 16                # lu.c:240:16
	movsd	%xmm0, 192(%rsp)
	.loc	1 240 18                # lu.c:240:18
	movl	$7, %edi
	callq	timer_read
	.loc	1 240 16                # lu.c:240:16
	movsd	%xmm0, 200(%rsp)
	.loc	1 240 18                # lu.c:240:18
	movl	$8, %edi
	callq	timer_read
	.loc	1 240 16                # lu.c:240:16
	movsd	%xmm0, 208(%rsp)
	.loc	1 240 18                # lu.c:240:18
	movl	$9, %edi
	callq	timer_read
	.loc	1 240 16                # lu.c:240:16
	movsd	%xmm0, 216(%rsp)
	.loc	1 240 18                # lu.c:240:18
	movl	$10, %edi
	callq	timer_read
	.loc	1 240 16                # lu.c:240:16
	movsd	%xmm0, 224(%rsp)
	.loc	1 240 18                # lu.c:240:18
	movl	$11, %edi
	callq	timer_read
	.loc	1 240 16                # lu.c:240:16
	movsd	%xmm0, 232(%rsp)
.Ltmp19:
	.loc	1 242 12 is_stmt 1      # lu.c:242:12
	movsd	maxtime(%rip), %xmm0    # xmm0 = mem[0],zero
.Ltmp20:
	#DEBUG_VALUE: main:tmax <- %XMM0
	.loc	1 243 14                # lu.c:243:14
	xorpd	%xmm1, %xmm1
.Ltmp21:
	#DEBUG_VALUE: main:tmax <- 1.000000e+00
	.loc	1 243 9 is_stmt 0       # lu.c:243:9
	movapd	%xmm0, %xmm2
	cmpeqsd	%xmm1, %xmm2
	movsd	.LCPI0_6(%rip), %xmm1   # xmm1 = mem[0],zero
	andpd	%xmm2, %xmm1
	andnpd	%xmm0, %xmm2
	orpd	%xmm1, %xmm2
	.loc	1 245 5 is_stmt 1       # lu.c:245:5
	movsd	%xmm2, 112(%rsp)        # 8-byte Spill
	movl	$.Lstr, %edi
	callq	puts
.Ltmp22:
	movsd	112(%rsp), %xmm2        # 8-byte Reload
                                        # xmm2 = mem[0],zero
	movsd	120(%rsp), %xmm0        # 8-byte Reload
                                        # xmm0 = mem[0],zero
.Ltmp23:
	#DEBUG_VALUE: main:i <- 1
	movsd	96(%rsp), %xmm1         # 8-byte Reload
                                        # xmm1 = mem[0],zero
.Ltmp24:
	.loc	1 250 27                # lu.c:250:27
	addsd	104(%rsp), %xmm1        # 8-byte Folded Reload
	.loc	1 250 43 is_stmt 0      # lu.c:250:43
	addsd	136(%rsp), %xmm1        # 8-byte Folded Reload
.Ltmp25:
	#DEBUG_VALUE: main:t <- %XMM1
	movsd	%xmm1, 96(%rsp)         # 8-byte Spill
	movsd	.LCPI0_7(%rip), %xmm3   # xmm3 = mem[0],zero
	.loc	1 251 66 is_stmt 1      # lu.c:251:66
	mulsd	%xmm1, %xmm3
.Ltmp26:
	#DEBUG_VALUE: main:t <- [%RSP+96]
	.loc	1 251 71 is_stmt 0      # lu.c:251:71
	divsd	%xmm2, %xmm3
	movsd	%xmm3, 104(%rsp)        # 8-byte Spill
	movl	$.L.str.2, %esi
	movl	$1, %ebx
	jmp	.LBB0_5
.Ltmp27:
	.p2align	4, 0x90
.LBB0_8:                                # %for.inc72.for.body44_crit_edge
                                        #   in Loop: Header=BB0_5 Depth=1
	.loc	1 248 11 is_stmt 1      # lu.c:248:11
	movq	240(%rsp,%rbx,8), %rsi
	.loc	1 248 23 is_stmt 0      # lu.c:248:23
	movsd	144(%rsp,%rbx,8), %xmm0 # xmm0 = mem[0],zero
	movsd	112(%rsp), %xmm2        # 8-byte Reload
                                        # xmm2 = mem[0],zero
.LBB0_5:                                # %for.body44
                                        # =>This Inner Loop Header: Depth=1
	movsd	.LCPI0_7(%rip), %xmm3   # xmm3 = mem[0],zero
	.loc	1 248 41                # lu.c:248:41
	movsd	%xmm0, 120(%rsp)        # 8-byte Spill
	movapd	%xmm0, %xmm1
	mulsd	%xmm3, %xmm1
	.loc	1 248 46                # lu.c:248:46
	divsd	%xmm2, %xmm1
	.loc	1 247 7 is_stmt 1       # lu.c:247:7
	movl	$.L.str.20, %edi
	movb	$2, %al
	callq	printf
	.loc	1 249 11                # lu.c:249:11
	cmpq	$5, %rbx
	jne	.LBB0_7
# BB#6:                                 # %for.inc72.thread
                                        #   in Loop: Header=BB0_5 Depth=1
.Ltmp28:
	.loc	1 251 9                 # lu.c:251:9
	movl	$.L.str.21, %edi
	movl	$.L.str.22, %esi
	movb	$2, %al
	movsd	96(%rsp), %xmm0         # 8-byte Reload
                                        # xmm0 = mem[0],zero
	movsd	104(%rsp), %xmm1        # 8-byte Reload
                                        # xmm1 = mem[0],zero
	callq	printf
	movsd	120(%rsp), %xmm0        # 8-byte Reload
                                        # xmm0 = mem[0],zero
	.loc	1 252 22                # lu.c:252:22
	subsd	96(%rsp), %xmm0         # 8-byte Folded Reload
.Ltmp29:
	#DEBUG_VALUE: main:t <- %XMM0
	.loc	1 253 67                # lu.c:253:67
	movapd	%xmm0, %xmm1
	mulsd	.LCPI0_7(%rip), %xmm1
	.loc	1 253 72 is_stmt 0      # lu.c:253:72
	divsd	112(%rsp), %xmm1        # 8-byte Folded Reload
	.loc	1 253 9                 # lu.c:253:9
	movl	$.L.str.21, %edi
	movl	$.L.str.23, %esi
	movb	$2, %al
	callq	printf
	movl	$6, %ebx
	jmp	.LBB0_8
.Ltmp30:
	.p2align	4, 0x90
.LBB0_7:                                # %for.inc72
                                        #   in Loop: Header=BB0_5 Depth=1
	.loc	1 246 5 is_stmt 1 discriminator 1 # lu.c:246:5
	incq	%rbx
	cmpq	$12, %rbx
	jne	.LBB0_8
.Ltmp31:
.LBB0_9:                                # %if.end75
	.loc	1 259 1                 # lu.c:259:1
	xorl	%eax, %eax
	addq	$336, %rsp              # imm = 0x150
	popq	%rbx
	retq
.Ltmp32:
.Lfunc_end0:
	.size	main, .Lfunc_end0-main
	.cfi_endproc

	.section	.rodata.cst16,"aM",@progbits,16
	.p2align	4
.LCPI1_0:
	.quad	4487126258331716666     # double 1.0E-8
	.quad	4487126258331716666     # double 1.0E-8
	.text
	.globl	read_input
	.p2align	4, 0x90
	.type	read_input,@function
read_input:                             # @read_input
.Lfunc_begin1:
	.file	6 "/home/norouzi/Desktop/software/benchmarks/NAS/NPB3.3-SER-C/LU/read_input.c"
	.loc	6 39 0                  # read_input.c:39:0
	.cfi_startproc
# BB#0:                                 # %entry
	.loc	6 54 3 prologue_end     # read_input.c:54:3
	pushq	%rbx
.Ltmp33:
	.cfi_def_cfa_offset 16
	subq	$16, %rsp
.Ltmp34:
	.cfi_def_cfa_offset 32
.Ltmp35:
	.cfi_offset %rbx, -16
	movl	$.Lstr.3, %edi
	callq	puts
.Ltmp36:
	.loc	6 56 13                 # read_input.c:56:13
	movl	$.L.str.1.4, %edi
	movl	$.L.str.2.5, %esi
	callq	fopen
	movq	%rax, %rbx
.Ltmp37:
	#DEBUG_VALUE: read_input:fp <- %RBX
	.loc	6 56 41 is_stmt 0       # read_input.c:56:41
	testq	%rbx, %rbx
.Ltmp38:
	.loc	6 56 7                  # read_input.c:56:7
	je	.LBB1_24
.Ltmp39:
# BB#1:                                 # %if.then
	#DEBUG_VALUE: read_input:fp <- %RBX
	.loc	6 57 5 is_stmt 1        # read_input.c:57:5
	movl	$.Lstr.16, %edi
	callq	puts
.Ltmp40:
	.p2align	4, 0x90
.LBB1_2:                                # %while.cond
                                        # =>This Inner Loop Header: Depth=1
	.loc	6 59 12 discriminator 1 # read_input.c:59:12
	movq	%rbx, %rdi
	callq	fgetc
	.loc	6 59 5 is_stmt 0 discriminator 1 # read_input.c:59:5
	cmpl	$10, %eax
	jne	.LBB1_2
	.p2align	4, 0x90
.LBB1_3:                                # %while.cond5
                                        # =>This Inner Loop Header: Depth=1
	.loc	6 60 12 is_stmt 1 discriminator 1 # read_input.c:60:12
	movq	%rbx, %rdi
	callq	fgetc
	.loc	6 60 5 is_stmt 0 discriminator 1 # read_input.c:60:5
	cmpl	$10, %eax
	jne	.LBB1_3
# BB#4:                                 # %while.end9
	.loc	6 61 14 is_stmt 1       # read_input.c:61:14
	movl	$.L.str.4.6, %esi
	movl	$ipr, %edx
	movl	$inorm, %ecx
	xorl	%eax, %eax
	movq	%rbx, %rdi
	callq	__isoc99_fscanf
.Ltmp41:
	#DEBUG_VALUE: read_input:result <- 0
	.p2align	4, 0x90
.LBB1_5:                                # %while.cond11
                                        # =>This Inner Loop Header: Depth=1
	.loc	6 62 12 discriminator 1 # read_input.c:62:12
	movq	%rbx, %rdi
	callq	fgetc
	.loc	6 62 5 is_stmt 0 discriminator 1 # read_input.c:62:5
	cmpl	$10, %eax
	jne	.LBB1_5
	.p2align	4, 0x90
.LBB1_6:                                # %while.cond16
                                        # =>This Inner Loop Header: Depth=1
	.loc	6 64 12 is_stmt 1 discriminator 1 # read_input.c:64:12
	movq	%rbx, %rdi
	callq	fgetc
	.loc	6 64 5 is_stmt 0 discriminator 1 # read_input.c:64:5
	cmpl	$10, %eax
	jne	.LBB1_6
	.p2align	4, 0x90
.LBB1_7:                                # %while.cond21
                                        # =>This Inner Loop Header: Depth=1
	.loc	6 65 12 is_stmt 1 discriminator 1 # read_input.c:65:12
	movq	%rbx, %rdi
	callq	fgetc
	.loc	6 65 5 is_stmt 0 discriminator 1 # read_input.c:65:5
	cmpl	$10, %eax
	jne	.LBB1_7
# BB#8:                                 # %while.end25
	.loc	6 66 14 is_stmt 1       # read_input.c:66:14
	movl	$.L.str.5.7, %esi
	movl	$itmax, %edx
	xorl	%eax, %eax
	movq	%rbx, %rdi
	callq	__isoc99_fscanf
	#DEBUG_VALUE: read_input:result <- 0
	.p2align	4, 0x90
.LBB1_9:                                # %while.cond27
                                        # =>This Inner Loop Header: Depth=1
	.loc	6 67 12 discriminator 1 # read_input.c:67:12
	movq	%rbx, %rdi
	callq	fgetc
	.loc	6 67 5 is_stmt 0 discriminator 1 # read_input.c:67:5
	cmpl	$10, %eax
	jne	.LBB1_9
	.p2align	4, 0x90
.LBB1_10:                               # %while.cond32
                                        # =>This Inner Loop Header: Depth=1
	.loc	6 69 12 is_stmt 1 discriminator 1 # read_input.c:69:12
	movq	%rbx, %rdi
	callq	fgetc
	.loc	6 69 5 is_stmt 0 discriminator 1 # read_input.c:69:5
	cmpl	$10, %eax
	jne	.LBB1_10
	.p2align	4, 0x90
.LBB1_11:                               # %while.cond37
                                        # =>This Inner Loop Header: Depth=1
	.loc	6 70 12 is_stmt 1 discriminator 1 # read_input.c:70:12
	movq	%rbx, %rdi
	callq	fgetc
	.loc	6 70 5 is_stmt 0 discriminator 1 # read_input.c:70:5
	cmpl	$10, %eax
	jne	.LBB1_11
# BB#12:                                # %while.end41
	.loc	6 71 14 is_stmt 1       # read_input.c:71:14
	movl	$.L.str.6.8, %esi
	movl	$dt, %edx
	xorl	%eax, %eax
	movq	%rbx, %rdi
	callq	__isoc99_fscanf
	#DEBUG_VALUE: read_input:result <- 0
	.p2align	4, 0x90
.LBB1_13:                               # %while.cond43
                                        # =>This Inner Loop Header: Depth=1
	.loc	6 72 12 discriminator 1 # read_input.c:72:12
	movq	%rbx, %rdi
	callq	fgetc
	.loc	6 72 5 is_stmt 0 discriminator 1 # read_input.c:72:5
	cmpl	$10, %eax
	jne	.LBB1_13
	.p2align	4, 0x90
.LBB1_14:                               # %while.cond48
                                        # =>This Inner Loop Header: Depth=1
	.loc	6 74 12 is_stmt 1 discriminator 1 # read_input.c:74:12
	movq	%rbx, %rdi
	callq	fgetc
	.loc	6 74 5 is_stmt 0 discriminator 1 # read_input.c:74:5
	cmpl	$10, %eax
	jne	.LBB1_14
	.p2align	4, 0x90
.LBB1_15:                               # %while.cond53
                                        # =>This Inner Loop Header: Depth=1
	.loc	6 75 12 is_stmt 1 discriminator 1 # read_input.c:75:12
	movq	%rbx, %rdi
	callq	fgetc
	.loc	6 75 5 is_stmt 0 discriminator 1 # read_input.c:75:5
	cmpl	$10, %eax
	jne	.LBB1_15
# BB#16:                                # %while.end57
	.loc	6 76 14 is_stmt 1       # read_input.c:76:14
	movl	$.L.str.6.8, %esi
	movl	$omega, %edx
	xorl	%eax, %eax
	movq	%rbx, %rdi
	callq	__isoc99_fscanf
	#DEBUG_VALUE: read_input:result <- 0
	.p2align	4, 0x90
.LBB1_17:                               # %while.cond59
                                        # =>This Inner Loop Header: Depth=1
	.loc	6 77 12 discriminator 1 # read_input.c:77:12
	movq	%rbx, %rdi
	callq	fgetc
	.loc	6 77 5 is_stmt 0 discriminator 1 # read_input.c:77:5
	cmpl	$10, %eax
	jne	.LBB1_17
	.p2align	4, 0x90
.LBB1_18:                               # %while.cond64
                                        # =>This Inner Loop Header: Depth=1
	.loc	6 79 12 is_stmt 1 discriminator 1 # read_input.c:79:12
	movq	%rbx, %rdi
	callq	fgetc
	.loc	6 79 5 is_stmt 0 discriminator 1 # read_input.c:79:5
	cmpl	$10, %eax
	jne	.LBB1_18
	.p2align	4, 0x90
.LBB1_19:                               # %while.cond69
                                        # =>This Inner Loop Header: Depth=1
	.loc	6 80 12 is_stmt 1 discriminator 1 # read_input.c:80:12
	movq	%rbx, %rdi
	callq	fgetc
	.loc	6 80 5 is_stmt 0 discriminator 1 # read_input.c:80:5
	cmpl	$10, %eax
	jne	.LBB1_19
# BB#20:                                # %while.end73
	.loc	6 81 14 is_stmt 1       # read_input.c:81:14
	movq	$tolrsd+32, (%rsp)
	movl	$.L.str.7.9, %esi
	movl	$tolrsd, %edx
	movl	$tolrsd+8, %ecx
	movl	$tolrsd+16, %r8d
	movl	$tolrsd+24, %r9d
	xorl	%eax, %eax
	movq	%rbx, %rdi
	callq	__isoc99_fscanf
	#DEBUG_VALUE: read_input:result <- 0
	.p2align	4, 0x90
.LBB1_21:                               # %while.cond75
                                        # =>This Inner Loop Header: Depth=1
	.loc	6 83 12 discriminator 1 # read_input.c:83:12
	movq	%rbx, %rdi
	callq	fgetc
	.loc	6 83 5 is_stmt 0 discriminator 1 # read_input.c:83:5
	cmpl	$10, %eax
	jne	.LBB1_21
	.p2align	4, 0x90
.LBB1_22:                               # %while.cond80
                                        # =>This Inner Loop Header: Depth=1
	.loc	6 84 12 is_stmt 1 discriminator 1 # read_input.c:84:12
	movq	%rbx, %rdi
	callq	fgetc
	.loc	6 84 5 is_stmt 0 discriminator 1 # read_input.c:84:5
	cmpl	$10, %eax
	jne	.LBB1_22
# BB#23:                                # %while.end84
	.loc	6 85 14 is_stmt 1       # read_input.c:85:14
	movl	$.L.str.8.10, %esi
	movl	$nx0, %edx
	movl	$ny0, %ecx
	movl	$nz0, %r8d
	xorl	%eax, %eax
	movq	%rbx, %rdi
	callq	__isoc99_fscanf
	#DEBUG_VALUE: read_input:result <- 0
	.loc	6 86 5                  # read_input.c:86:5
	movq	%rbx, %rdi
	callq	fclose
.Ltmp42:
	.loc	6 106 10                # read_input.c:106:10
	movl	nx0(%rip), %esi
	.loc	6 106 25 is_stmt 0 discriminator 1 # read_input.c:106:25
	movl	ny0(%rip), %edx
	.loc	6 106 40 discriminator 2 # read_input.c:106:40
	movl	nz0(%rip), %ecx
	jmp	.LBB1_25
.Ltmp43:
.LBB1_24:                               # %if.else
	#DEBUG_VALUE: read_input:fp <- %RBX
	.loc	6 88 9 is_stmt 1        # read_input.c:88:9
	movl	$1, ipr(%rip)
	.loc	6 89 11                 # read_input.c:89:11
	movl	$250, inorm(%rip)
	.loc	6 90 11                 # read_input.c:90:11
	movl	$250, itmax(%rip)
	.loc	6 91 8                  # read_input.c:91:8
	movabsq	$4611686018427387904, %rax # imm = 0x4000000000000000
	movq	%rax, dt(%rip)
	.loc	6 92 11                 # read_input.c:92:11
	movabsq	$4608083138725491507, %rax # imm = 0x3FF3333333333333
	movq	%rax, omega(%rip)
	.loc	6 93 15                 # read_input.c:93:15
	movaps	.LCPI1_0(%rip), %xmm0   # xmm0 = [1.000000e-08,1.000000e-08]
	movaps	%xmm0, tolrsd(%rip)
	.loc	6 95 15                 # read_input.c:95:15
	movaps	%xmm0, tolrsd+16(%rip)
	.loc	6 93 15                 # read_input.c:93:15
	movabsq	$4487126258331716666, %rax # imm = 0x3E45798EE2308C3A
	.loc	6 97 15                 # read_input.c:97:15
	movq	%rax, tolrsd+32(%rip)
	.loc	6 98 9                  # read_input.c:98:9
	movl	$64, nx0(%rip)
	.loc	6 99 9                  # read_input.c:99:9
	movl	$64, ny0(%rip)
	.loc	6 100 9                 # read_input.c:100:9
	movl	$64, nz0(%rip)
	movl	$64, %ecx
.Ltmp44:
	.loc	6 106 25 discriminator 1 # read_input.c:106:25
	movl	$64, %edx
	.loc	6 106 10 is_stmt 0      # read_input.c:106:10
	movl	$64, %esi
.Ltmp45:
.LBB1_25:                               # %if.end
	.loc	6 106 14                # read_input.c:106:14
	cmpl	$4, %esi
	jl	.LBB1_28
.Ltmp46:
# BB#26:                                # %if.end
	cmpl	$4, %edx
	jl	.LBB1_28
# BB#27:                                # %if.end
	cmpl	$3, %ecx
	jle	.LBB1_28
# BB#30:                                # %if.end93
.Ltmp47:
	.loc	6 112 14 is_stmt 1      # read_input.c:112:14
	cmpl	$64, %esi
	jg	.LBB1_33
.Ltmp48:
# BB#31:                                # %if.end93
	cmpl	$64, %edx
	jg	.LBB1_33
# BB#32:                                # %if.end93
	cmpl	$65, %ecx
	jge	.LBB1_33
# BB#34:                                # %if.end101
	.loc	6 119 3                 # read_input.c:119:3
	movl	$.L.str.11.11, %edi
	xorl	%eax, %eax
	callq	printf
	.loc	6 120 32                # read_input.c:120:32
	movl	itmax(%rip), %esi
	.loc	6 120 3 is_stmt 0       # read_input.c:120:3
	movl	$.L.str.12.12, %edi
	xorl	%eax, %eax
	callq	printf
	.loc	6 121 3 is_stmt 1       # read_input.c:121:3
	movl	$10, %edi
	addq	$16, %rsp
	popq	%rbx
	jmp	putchar                 # TAILCALL
.LBB1_28:                               # %if.then91
.Ltmp49:
	.loc	6 107 5                 # read_input.c:107:5
	movl	$.Lstr.15, %edi
	jmp	.LBB1_29
.Ltmp50:
.LBB1_33:                               # %if.then99
	.loc	6 113 5                 # read_input.c:113:5
	movl	$.Lstr.14, %edi
.Ltmp51:
.LBB1_29:                               # %if.then91
	.loc	6 107 5                 # read_input.c:107:5
	callq	puts
	.loc	6 109 5                 # read_input.c:109:5
	movl	$1, %edi
	callq	exit
.Ltmp52:
.Lfunc_end1:
	.size	read_input, .Lfunc_end1-read_input
	.cfi_endproc

	.globl	domain
	.p2align	4, 0x90
	.type	domain,@function
domain:                                 # @domain
.Lfunc_begin2:
	.file	7 "/home/norouzi/Desktop/software/benchmarks/NAS/NPB3.3-SER-C/LU/domain.c"
	.loc	7 39 0                  # domain.c:39:0
	.cfi_startproc
# BB#0:                                 # %entry
	.loc	7 77 9 prologue_end     # domain.c:77:9
	pushq	%rax
.Ltmp53:
	.cfi_def_cfa_offset 16
	movl	nx0(%rip), %esi
	.loc	7 43 6                  # domain.c:43:6
	movl	%esi, nx(%rip)
	.loc	7 79 9                  # domain.c:79:9
	movl	ny0(%rip), %edx
	.loc	7 44 6                  # domain.c:44:6
	movl	%edx, ny(%rip)
	.loc	7 81 9                  # domain.c:81:9
	movl	nz0(%rip), %ecx
	.loc	7 45 6                  # domain.c:45:6
	movl	%ecx, nz(%rip)
.Ltmp54:
	.loc	7 50 13                 # domain.c:50:13
	cmpl	$4, %esi
	jl	.LBB2_3
.Ltmp55:
# BB#1:                                 # %entry
	cmpl	$4, %edx
	jl	.LBB2_3
# BB#2:                                 # %entry
	cmpl	$3, %ecx
	jle	.LBB2_3
# BB#5:                                 # %if.end
.Ltmp56:
	.loc	7 58 13                 # domain.c:58:13
	cmpl	$64, %esi
	jg	.LBB2_8
.Ltmp57:
# BB#6:                                 # %if.end
	cmpl	$64, %edx
	jg	.LBB2_8
# BB#7:                                 # %if.end
	cmpl	$65, %ecx
	jge	.LBB2_8
# BB#9:                                 # %if.end11
	.loc	7 70 7                  # domain.c:70:7
	movl	$1, ist(%rip)
	.loc	7 71 13                 # domain.c:71:13
	decl	%esi
	.loc	7 71 8 is_stmt 0        # domain.c:71:8
	movl	%esi, iend(%rip)
	.loc	7 73 7 is_stmt 1        # domain.c:73:7
	movl	$1, jst(%rip)
	.loc	7 74 13                 # domain.c:74:13
	leal	-1(%rdx), %eax
	.loc	7 74 8 is_stmt 0        # domain.c:74:8
	movl	%eax, jend(%rip)
	.loc	7 76 7 is_stmt 1        # domain.c:76:7
	movl	$1, ii1(%rip)
	.loc	7 77 7                  # domain.c:77:7
	movl	%esi, ii2(%rip)
	.loc	7 78 7                  # domain.c:78:7
	movl	$1, ji1(%rip)
	.loc	7 79 13                 # domain.c:79:13
	addl	$-2, %edx
	.loc	7 79 7 is_stmt 0        # domain.c:79:7
	movl	%edx, ji2(%rip)
	.loc	7 80 7 is_stmt 1        # domain.c:80:7
	movl	$2, ki1(%rip)
	.loc	7 81 13                 # domain.c:81:13
	decl	%ecx
	.loc	7 81 7 is_stmt 0        # domain.c:81:7
	movl	%ecx, ki2(%rip)
	.loc	7 82 1 is_stmt 1        # domain.c:82:1
	popq	%rax
	retq
.LBB2_3:                                # %if.then
.Ltmp58:
	.loc	7 51 5                  # domain.c:51:5
	movl	$.L.str.19, %edi
	jmp	.LBB2_4
.Ltmp59:
.LBB2_8:                                # %if.then9
	.loc	7 59 5                  # domain.c:59:5
	movl	$.L.str.1.20, %edi
.Ltmp60:
.LBB2_4:                                # %if.then
	.loc	7 51 5                  # domain.c:51:5
	xorl	%eax, %eax
	callq	printf
	.loc	7 55 5                  # domain.c:55:5
	movl	$1, %edi
	callq	exit
.Ltmp61:
.Lfunc_end2:
	.size	domain, .Lfunc_end2-domain
	.cfi_endproc

	.section	.rodata.cst8,"aM",@progbits,8
	.p2align	3
.LCPI3_0:
	.quad	4607182418800017408     # double 1
	.section	.rodata.cst16,"aM",@progbits,16
	.p2align	4
.LCPI3_1:
	.quad	4616189618054758400     # double 4
	.quad	4617315517961601024     # double 5
.LCPI3_2:
	.quad	4613937818241073152     # double 3
	.quad	4602678819172646912     # double 0.5
.LCPI3_3:
	.quad	4581421828931458171     # double 0.02
	.quad	4576918229304087675     # double 0.01
.LCPI3_4:
	.quad	4584304132692975288     # double 0.029999999999999999
	.quad	4602678819172646912     # double 0.5
.LCPI3_5:
	.quad	4600877379321698714     # double 0.40000000000000002
	.quad	4599075939470750515     # double 0.29999999999999999
.LCPI3_6:
	.quad	4607182418800017408     # double 1
	.quad	4611686018427387904     # double 2
.LCPI3_7:
	.quad	4613937818241073152     # double 3
	.quad	4576918229304087675     # double 0.01
.LCPI3_8:
	.quad	4584304132692975288     # double 0.029999999999999999
	.quad	4581421828931458171     # double 0.02
.LCPI3_9:
	.quad	4602678819172646912     # double 0.5
	.quad	4611686018427387904     # double 2
.LCPI3_10:
	.quad	4611686018427387904     # double 2
	.quad	4613937818241073152     # double 3
.LCPI3_11:
	.quad	4585925428558828667     # double 0.040000000000000001
	.quad	4584304132692975288     # double 0.029999999999999999
.LCPI3_12:
	.quad	4587366580439587226     # double 0.050000000000000003
	.quad	4599075939470750515     # double 0.29999999999999999
.LCPI3_13:
	.quad	4602678819172646912     # double 0.5
	.quad	4600877379321698714     # double 0.40000000000000002
.LCPI3_14:
	.quad	4584304132692975288     # double 0.029999999999999999
	.quad	4587366580439587226     # double 0.050000000000000003
.LCPI3_15:
	.quad	4585925428558828667     # double 0.040000000000000001
	.quad	4596373779694328218     # double 0.20000000000000001
.LCPI3_16:
	.quad	4591870180066957722     # double 0.10000000000000001
	.quad	4599075939470750515     # double 0.29999999999999999
.LCPI3_17:
	.quad	4617315517961601024     # double 5
	.quad	4616189618054758400     # double 4
.LCPI3_18:
	.quad	4613937818241073152     # double 3
	.quad	4611686018427387904     # double 2
.LCPI3_19:
	.quad	4591870180066957722     # double 0.10000000000000001
	.quad	4600877379321698714     # double 0.40000000000000002
.LCPI3_20:
	.quad	4587366580439587226     # double 0.050000000000000003
	.quad	4585925428558828667     # double 0.040000000000000001
.LCPI3_21:
	.quad	4584304132692975288     # double 0.029999999999999999
	.quad	4591870180066957722     # double 0.10000000000000001
.LCPI3_22:
	.quad	4599075939470750515     # double 0.29999999999999999
	.quad	4596373779694328218     # double 0.20000000000000001
	.text
	.globl	setcoeff
	.p2align	4, 0x90
	.type	setcoeff,@function
setcoeff:                               # @setcoeff
.Lfunc_begin3:
	.file	8 "/home/norouzi/Desktop/software/benchmarks/NAS/NPB3.3-SER-C/LU/setcoeff.c"
	.loc	8 37 0                  # setcoeff.c:37:0
	.cfi_startproc
# BB#0:                                 # %entry
	.loc	8 45 17 prologue_end    # setcoeff.c:45:17
	movl	nx0(%rip), %eax
	.loc	8 45 21 is_stmt 0       # setcoeff.c:45:21
	decl	%eax
	.loc	8 45 15                 # setcoeff.c:45:15
	cvtsi2sdl	%eax, %xmm1
	.loc	8 45 13                 # setcoeff.c:45:13
	movsd	.LCPI3_0(%rip), %xmm0   # xmm0 = mem[0],zero
	movapd	%xmm0, %xmm3
	divsd	%xmm1, %xmm3
	.loc	8 45 7                  # setcoeff.c:45:7
	movsd	%xmm3, dxi(%rip)
	.loc	8 46 18 is_stmt 1       # setcoeff.c:46:18
	movl	ny0(%rip), %eax
	.loc	8 46 22 is_stmt 0       # setcoeff.c:46:22
	decl	%eax
	.loc	8 46 16                 # setcoeff.c:46:16
	xorps	%xmm1, %xmm1
	cvtsi2sdl	%eax, %xmm1
	.loc	8 46 14                 # setcoeff.c:46:14
	movapd	%xmm0, %xmm2
	divsd	%xmm1, %xmm2
	.loc	8 46 8                  # setcoeff.c:46:8
	movsd	%xmm2, deta(%rip)
	.loc	8 47 19 is_stmt 1       # setcoeff.c:47:19
	movl	nz0(%rip), %eax
	.loc	8 47 23 is_stmt 0       # setcoeff.c:47:23
	decl	%eax
	.loc	8 47 17                 # setcoeff.c:47:17
	cvtsi2sdl	%eax, %xmm4
	.loc	8 47 15                 # setcoeff.c:47:15
	movapd	%xmm0, %xmm1
	divsd	%xmm4, %xmm1
	.loc	8 47 9                  # setcoeff.c:47:9
	movsd	%xmm1, dzeta(%rip)
	.loc	8 49 21 is_stmt 1       # setcoeff.c:49:21
	movapd	%xmm3, %xmm4
	mulsd	%xmm4, %xmm4
	.loc	8 49 13 is_stmt 0       # setcoeff.c:49:13
	movapd	%xmm0, %xmm5
	divsd	%xmm4, %xmm5
	.loc	8 49 7                  # setcoeff.c:49:7
	movsd	%xmm5, tx1(%rip)
	.loc	8 51 13 is_stmt 1       # setcoeff.c:51:13
	movapd	%xmm0, %xmm4
	divsd	%xmm3, %xmm4
	.loc	8 50 21                 # setcoeff.c:50:21
	addsd	%xmm3, %xmm3
	.loc	8 50 13 is_stmt 0       # setcoeff.c:50:13
	movapd	%xmm0, %xmm5
	divsd	%xmm3, %xmm5
	.loc	8 50 7                  # setcoeff.c:50:7
	movsd	%xmm5, tx2(%rip)
	.loc	8 51 7 is_stmt 1        # setcoeff.c:51:7
	movsd	%xmm4, tx3(%rip)
	.loc	8 53 22                 # setcoeff.c:53:22
	movapd	%xmm2, %xmm3
	mulsd	%xmm3, %xmm3
	.loc	8 53 13 is_stmt 0       # setcoeff.c:53:13
	movapd	%xmm0, %xmm4
	divsd	%xmm3, %xmm4
	.loc	8 53 7                  # setcoeff.c:53:7
	movsd	%xmm4, ty1(%rip)
	.loc	8 55 13 is_stmt 1       # setcoeff.c:55:13
	movapd	%xmm0, %xmm3
	divsd	%xmm2, %xmm3
	.loc	8 54 21                 # setcoeff.c:54:21
	addsd	%xmm2, %xmm2
	.loc	8 54 13 is_stmt 0       # setcoeff.c:54:13
	movapd	%xmm0, %xmm4
	divsd	%xmm2, %xmm4
	.loc	8 54 7                  # setcoeff.c:54:7
	movsd	%xmm4, ty2(%rip)
	.loc	8 55 7 is_stmt 1        # setcoeff.c:55:7
	movsd	%xmm3, ty3(%rip)
	.loc	8 57 13                 # setcoeff.c:57:13
	movapd	%xmm0, %xmm2
	.loc	8 58 21                 # setcoeff.c:58:21
	movapd	%xmm1, %xmm3
	.loc	8 58 13 is_stmt 0       # setcoeff.c:58:13
	movapd	%xmm0, %xmm4
	.loc	8 59 13 is_stmt 1       # setcoeff.c:59:13
	divsd	%xmm1, %xmm0
	.loc	8 57 23                 # setcoeff.c:57:23
	mulsd	%xmm1, %xmm1
	.loc	8 57 13 is_stmt 0       # setcoeff.c:57:13
	divsd	%xmm1, %xmm2
	.loc	8 57 7                  # setcoeff.c:57:7
	movsd	%xmm2, tz1(%rip)
	.loc	8 58 21 is_stmt 1       # setcoeff.c:58:21
	addsd	%xmm3, %xmm3
	.loc	8 58 13 is_stmt 0       # setcoeff.c:58:13
	divsd	%xmm3, %xmm4
	.loc	8 58 7                  # setcoeff.c:58:7
	movsd	%xmm4, tz2(%rip)
	.loc	8 59 7 is_stmt 1        # setcoeff.c:59:7
	movsd	%xmm0, tz3(%rip)
	.loc	8 74 7                  # setcoeff.c:74:7
	movabsq	$4604930618986332160, %rax # imm = 0x3FE8000000000000
	.loc	8 64 7                  # setcoeff.c:64:7
	movq	%rax, dx1(%rip)
	.loc	8 65 7                  # setcoeff.c:65:7
	movq	%rax, dx2(%rip)
	.loc	8 66 7                  # setcoeff.c:66:7
	movq	%rax, dx3(%rip)
	.loc	8 67 7                  # setcoeff.c:67:7
	movq	%rax, dx4(%rip)
	.loc	8 68 7                  # setcoeff.c:68:7
	movq	%rax, dx5(%rip)
	.loc	8 70 7                  # setcoeff.c:70:7
	movq	%rax, dy1(%rip)
	.loc	8 71 7                  # setcoeff.c:71:7
	movq	%rax, dy2(%rip)
	.loc	8 72 7                  # setcoeff.c:72:7
	movq	%rax, dy3(%rip)
	.loc	8 73 7                  # setcoeff.c:73:7
	movq	%rax, dy4(%rip)
	.loc	8 74 7                  # setcoeff.c:74:7
	movq	%rax, dy5(%rip)
	.loc	8 80 7                  # setcoeff.c:80:7
	movabsq	$4607182418800017408, %rcx # imm = 0x3FF0000000000000
	.loc	8 76 7                  # setcoeff.c:76:7
	movq	%rcx, dz1(%rip)
	.loc	8 77 7                  # setcoeff.c:77:7
	movq	%rcx, dz2(%rip)
	.loc	8 78 7                  # setcoeff.c:78:7
	movq	%rcx, dz3(%rip)
	.loc	8 79 7                  # setcoeff.c:79:7
	movq	%rcx, dz4(%rip)
	.loc	8 80 7                  # setcoeff.c:80:7
	movq	%rcx, dz5(%rip)
	.loc	8 85 8 discriminator 9  # setcoeff.c:85:8
	movabsq	$4598175219545276416, %rax # imm = 0x3FD0000000000000
	movq	%rax, dssp(%rip)
	.loc	8 50 21                 # setcoeff.c:50:21
	movabsq	$4611686018427387904, %rax # imm = 0x4000000000000000
	.loc	8 90 12                 # setcoeff.c:90:12
	movq	%rax, ce(%rip)
	.loc	8 92 12                 # setcoeff.c:92:12
	xorpd	%xmm0, %xmm0
	movupd	%xmm0, ce+8(%rip)
	.loc	8 93 12                 # setcoeff.c:93:12
	movaps	.LCPI3_1(%rip), %xmm1   # xmm1 = [4.000000e+00,5.000000e+00]
	movups	%xmm1, ce+24(%rip)
	.loc	8 95 12                 # setcoeff.c:95:12
	movaps	.LCPI3_2(%rip), %xmm1   # xmm1 = [3.000000e+00,5.000000e-01]
	movups	%xmm1, ce+40(%rip)
	.loc	8 97 12                 # setcoeff.c:97:12
	movaps	.LCPI3_3(%rip), %xmm1   # xmm1 = [2.000000e-02,1.000000e-02]
	movups	%xmm1, ce+56(%rip)
	.loc	8 99 12                 # setcoeff.c:99:12
	movaps	.LCPI3_4(%rip), %xmm1   # xmm1 = [3.000000e-02,5.000000e-01]
	movups	%xmm1, ce+72(%rip)
	.loc	8 101 13                # setcoeff.c:101:13
	movaps	.LCPI3_5(%rip), %xmm1   # xmm1 = [4.000000e-01,3.000000e-01]
	movups	%xmm1, ce+88(%rip)
	.loc	8 107 12                # setcoeff.c:107:12
	movq	%rcx, ce+104(%rip)
	.loc	8 109 12                # setcoeff.c:109:12
	movapd	%xmm0, ce+112(%rip)
	movq	$0, ce+128(%rip)
	.loc	8 111 12                # setcoeff.c:111:12
	movaps	.LCPI3_6(%rip), %xmm2   # xmm2 = [1.000000e+00,2.000000e+00]
	movups	%xmm2, ce+136(%rip)
	.loc	8 113 12                # setcoeff.c:113:12
	movaps	.LCPI3_7(%rip), %xmm2   # xmm2 = [3.000000e+00,1.000000e-02]
	movups	%xmm2, ce+152(%rip)
	.loc	8 115 12                # setcoeff.c:115:12
	movaps	.LCPI3_8(%rip), %xmm2   # xmm2 = [3.000000e-02,2.000000e-02]
	movups	%xmm2, ce+168(%rip)
	.loc	8 117 13                # setcoeff.c:117:13
	movups	%xmm1, ce+184(%rip)
	.loc	8 119 13                # setcoeff.c:119:13
	movaps	.LCPI3_9(%rip), %xmm1   # xmm1 = [5.000000e-01,2.000000e+00]
	movups	%xmm1, ce+200(%rip)
	.loc	8 125 12                # setcoeff.c:125:12
	movq	%rax, ce+216(%rip)
	.loc	8 127 12                # setcoeff.c:127:12
	movapd	%xmm0, ce+224(%rip)
	movq	$0, ce+240(%rip)
	.loc	8 129 12                # setcoeff.c:129:12
	movaps	.LCPI3_10(%rip), %xmm1  # xmm1 = [2.000000e+00,3.000000e+00]
	movups	%xmm1, ce+248(%rip)
	.loc	8 131 12                # setcoeff.c:131:12
	movaps	.LCPI3_11(%rip), %xmm2  # xmm2 = [4.000000e-02,3.000000e-02]
	movups	%xmm2, ce+264(%rip)
	.loc	8 133 12                # setcoeff.c:133:12
	movaps	.LCPI3_12(%rip), %xmm2  # xmm2 = [5.000000e-02,3.000000e-01]
	movups	%xmm2, ce+280(%rip)
	.loc	8 135 13                # setcoeff.c:135:13
	movaps	.LCPI3_13(%rip), %xmm2  # xmm2 = [5.000000e-01,4.000000e-01]
	movups	%xmm2, ce+296(%rip)
	.loc	8 141 12                # setcoeff.c:141:12
	movq	%rax, ce+312(%rip)
	.loc	8 142 12                # setcoeff.c:142:12
	movq	%rax, ce+320(%rip)
	.loc	8 144 12                # setcoeff.c:144:12
	movupd	%xmm0, ce+328(%rip)
	movq	$0, ce+344(%rip)
	.loc	8 146 12                # setcoeff.c:146:12
	movaps	%xmm1, ce+352(%rip)
	.loc	8 148 12                # setcoeff.c:148:12
	movaps	.LCPI3_14(%rip), %xmm0  # xmm0 = [3.000000e-02,5.000000e-02]
	movaps	%xmm0, ce+368(%rip)
	.loc	8 150 12                # setcoeff.c:150:12
	movaps	.LCPI3_15(%rip), %xmm0  # xmm0 = [4.000000e-02,2.000000e-01]
	movaps	%xmm0, ce+384(%rip)
	.loc	8 152 13                # setcoeff.c:152:13
	movaps	.LCPI3_16(%rip), %xmm0  # xmm0 = [1.000000e-01,3.000000e-01]
	movaps	%xmm0, ce+400(%rip)
	.loc	8 158 12                # setcoeff.c:158:12
	movaps	.LCPI3_17(%rip), %xmm0  # xmm0 = [5.000000e+00,4.000000e+00]
	movaps	%xmm0, ce+416(%rip)
	.loc	8 160 12                # setcoeff.c:160:12
	movaps	.LCPI3_18(%rip), %xmm0  # xmm0 = [3.000000e+00,2.000000e+00]
	movaps	%xmm0, ce+432(%rip)
	.loc	8 162 12                # setcoeff.c:162:12
	movaps	.LCPI3_19(%rip), %xmm0  # xmm0 = [1.000000e-01,4.000000e-01]
	movaps	%xmm0, ce+448(%rip)
	.loc	8 101 13                # setcoeff.c:101:13
	movabsq	$4599075939470750515, %rax # imm = 0x3FD3333333333333
	.loc	8 164 12                # setcoeff.c:164:12
	movq	%rax, ce+464(%rip)
	.loc	8 165 12                # setcoeff.c:165:12
	movaps	.LCPI3_20(%rip), %xmm0  # xmm0 = [5.000000e-02,4.000000e-02]
	movups	%xmm0, ce+472(%rip)
	.loc	8 167 12                # setcoeff.c:167:12
	movaps	.LCPI3_21(%rip), %xmm0  # xmm0 = [3.000000e-02,1.000000e-01]
	movups	%xmm0, ce+488(%rip)
	.loc	8 169 13                # setcoeff.c:169:13
	movaps	.LCPI3_22(%rip), %xmm0  # xmm0 = [3.000000e-01,2.000000e-01]
	movups	%xmm0, ce+504(%rip)
	.loc	8 171 1                 # setcoeff.c:171:1
	retq
.Ltmp62:
.Lfunc_end3:
	.size	setcoeff, .Lfunc_end3-setcoeff
	.cfi_endproc

	.globl	setbv
	.p2align	4, 0x90
	.type	setbv,@function
setbv:                                  # @setbv
.Lfunc_begin4:
	.file	9 "/home/norouzi/Desktop/software/benchmarks/NAS/NPB3.3-SER-C/LU/setbv.c"
	.loc	9 40 0                  # setbv.c:40:0
	.cfi_startproc
# BB#0:                                 # %entry
	.loc	9 50 19 prologue_end discriminator 1 # setbv.c:50:19
	pushq	%rbp
.Ltmp63:
	.cfi_def_cfa_offset 16
	pushq	%r15
.Ltmp64:
	.cfi_def_cfa_offset 24
	pushq	%r14
.Ltmp65:
	.cfi_def_cfa_offset 32
	pushq	%r13
.Ltmp66:
	.cfi_def_cfa_offset 40
	pushq	%r12
.Ltmp67:
	.cfi_def_cfa_offset 48
	pushq	%rbx
.Ltmp68:
	.cfi_def_cfa_offset 56
	subq	$88, %rsp
.Ltmp69:
	.cfi_def_cfa_offset 144
.Ltmp70:
	.cfi_offset %rbx, -56
.Ltmp71:
	.cfi_offset %r12, -48
.Ltmp72:
	.cfi_offset %r13, -40
.Ltmp73:
	.cfi_offset %r14, -32
.Ltmp74:
	.cfi_offset %r15, -24
.Ltmp75:
	.cfi_offset %rbp, -16
.Ltmp76:
	#DEBUG_VALUE: setbv:j <- 0
	movl	ny(%rip), %eax
	.loc	9 50 3 is_stmt 0 discriminator 1 # setbv.c:50:3
	testl	%eax, %eax
	jle	.LBB4_7
# BB#1:                                 # %for.cond1.preheader.lr.ph
.Ltmp77:
	.loc	9 51 21 is_stmt 1 discriminator 1 # setbv.c:51:21
	movl	nx(%rip), %ecx
	xorl	%r12d, %r12d
	movl	$u+16, %r13d
	leaq	48(%rsp), %r14
	leaq	(%rsp), %r15
	.p2align	4, 0x90
.LBB4_2:                                # %for.cond1.preheader
                                        # =>This Loop Header: Depth=1
                                        #     Child Loop BB4_4 Depth 2
	.loc	9 51 5 is_stmt 0 discriminator 1 # setbv.c:51:5
	testl	%ecx, %ecx
	jle	.LBB4_6
# BB#3:                                 # %for.body3.lr.ph
                                        #   in Loop: Header=BB4_2 Depth=1
	movq	%r13, %rbp
	xorl	%ebx, %ebx
	.p2align	4, 0x90
.LBB4_4:                                # %for.body3
                                        #   Parent Loop BB4_2 Depth=1
                                        # =>  This Inner Loop Header: Depth=2
.Ltmp78:
	.loc	9 52 7 is_stmt 1        # setbv.c:52:7
	xorl	%edx, %edx
	movl	%ebx, %edi
	movl	%r12d, %esi
	movq	%r14, %rcx
	callq	exact
	.loc	9 53 20                 # setbv.c:53:20
	movl	nz(%rip), %edx
	.loc	9 53 22 is_stmt 0       # setbv.c:53:22
	decl	%edx
	.loc	9 53 7                  # setbv.c:53:7
	movl	%ebx, %edi
	movl	%r12d, %esi
	movq	%r15, %rcx
	callq	exact
.Ltmp79:
	#DEBUG_VALUE: setbv:m <- 0
	.loc	9 56 9 is_stmt 1        # setbv.c:56:9
	movslq	nz(%rip), %rax
	.loc	9 56 13 is_stmt 0       # setbv.c:56:13
	imulq	$169000, %rax, %rax     # imm = 0x29428
	.loc	9 55 25 is_stmt 1       # setbv.c:55:25
	movq	48(%rsp), %rcx
	.loc	9 55 23 is_stmt 0       # setbv.c:55:23
	movq	%rcx, -16(%rbp)
	.loc	9 56 28 is_stmt 1       # setbv.c:56:28
	movq	(%rsp), %rcx
	.loc	9 56 26 is_stmt 0       # setbv.c:56:26
	movq	%rcx, -169016(%rax,%rbp)
	.loc	9 55 25 is_stmt 1       # setbv.c:55:25
	movq	56(%rsp), %rcx
	.loc	9 55 23 is_stmt 0       # setbv.c:55:23
	movq	%rcx, -8(%rbp)
	.loc	9 56 28 is_stmt 1       # setbv.c:56:28
	movq	8(%rsp), %rcx
	.loc	9 56 26 is_stmt 0       # setbv.c:56:26
	movq	%rcx, -169008(%rax,%rbp)
	.loc	9 55 25 is_stmt 1       # setbv.c:55:25
	movq	64(%rsp), %rcx
	.loc	9 55 23 is_stmt 0       # setbv.c:55:23
	movq	%rcx, (%rbp)
	.loc	9 56 28 is_stmt 1       # setbv.c:56:28
	movq	16(%rsp), %rcx
	.loc	9 56 26 is_stmt 0       # setbv.c:56:26
	movq	%rcx, -169000(%rax,%rbp)
	.loc	9 55 25 is_stmt 1       # setbv.c:55:25
	movq	72(%rsp), %rcx
	.loc	9 55 23 is_stmt 0       # setbv.c:55:23
	movq	%rcx, 8(%rbp)
	.loc	9 56 28 is_stmt 1       # setbv.c:56:28
	movq	24(%rsp), %rcx
	.loc	9 56 26 is_stmt 0       # setbv.c:56:26
	movq	%rcx, -168992(%rax,%rbp)
	.loc	9 55 25 is_stmt 1       # setbv.c:55:25
	movq	80(%rsp), %rcx
	.loc	9 55 23 is_stmt 0       # setbv.c:55:23
	movq	%rcx, 16(%rbp)
	.loc	9 56 28 is_stmt 1       # setbv.c:56:28
	movq	32(%rsp), %rcx
	.loc	9 56 26 is_stmt 0       # setbv.c:56:26
	movq	%rcx, -168984(%rax,%rbp)
.Ltmp80:
	.loc	9 51 5 is_stmt 1 discriminator 1 # setbv.c:51:5
	incq	%rbx
	.loc	9 51 19 is_stmt 0 discriminator 1 # setbv.c:51:19
	movslq	nx(%rip), %rcx
	addq	$40, %rbp
	cmpq	%rcx, %rbx
	.loc	9 51 5 discriminator 1  # setbv.c:51:5
	jl	.LBB4_4
.Ltmp81:
# BB#5:                                 # %for.inc28.loopexit
                                        #   in Loop: Header=BB4_2 Depth=1
	.loc	9 50 19 is_stmt 1 discriminator 1 # setbv.c:50:19
	movl	ny(%rip), %eax
.LBB4_6:                                # %for.inc28
                                        #   in Loop: Header=BB4_2 Depth=1
	.loc	9 50 3 is_stmt 0 discriminator 1 # setbv.c:50:3
	incq	%r12
	.loc	9 50 17 discriminator 1 # setbv.c:50:17
	movslq	%eax, %rdx
	.loc	9 50 3 discriminator 1  # setbv.c:50:3
	addq	$2600, %r13             # imm = 0xA28
	.loc	9 50 17 discriminator 1 # setbv.c:50:17
	cmpq	%rdx, %r12
	jl	.LBB4_2
.Ltmp82:
.LBB4_7:                                # %for.cond31.preheader
	.loc	9 64 19 is_stmt 1 discriminator 1 # setbv.c:64:19
	movl	nz(%rip), %ecx
	.loc	9 64 3 is_stmt 0 discriminator 1 # setbv.c:64:3
	testl	%ecx, %ecx
	jle	.LBB4_21
# BB#8:                                 # %for.cond34.preheader.lr.ph
.Ltmp83:
	.loc	9 65 21 is_stmt 1 discriminator 1 # setbv.c:65:21
	movl	nx(%rip), %edx
	xorl	%r12d, %r12d
	movl	$u+16, %r13d
	leaq	48(%rsp), %r14
	leaq	(%rsp), %r15
	.p2align	4, 0x90
.LBB4_9:                                # %for.cond34.preheader
                                        # =>This Loop Header: Depth=1
                                        #     Child Loop BB4_11 Depth 2
	.loc	9 65 5 is_stmt 0 discriminator 1 # setbv.c:65:5
	testl	%edx, %edx
	jle	.LBB4_13
# BB#10:                                # %for.body36.lr.ph
                                        #   in Loop: Header=BB4_9 Depth=1
	movq	%r13, %rbp
	xorl	%ebx, %ebx
	.p2align	4, 0x90
.LBB4_11:                               # %for.body36
                                        #   Parent Loop BB4_9 Depth=1
                                        # =>  This Inner Loop Header: Depth=2
.Ltmp84:
	.loc	9 66 7 is_stmt 1        # setbv.c:66:7
	xorl	%esi, %esi
	movl	%ebx, %edi
	movl	%r12d, %edx
	movq	%r14, %rcx
	callq	exact
	.loc	9 67 17                 # setbv.c:67:17
	movl	ny(%rip), %esi
	.loc	9 67 19 is_stmt 0       # setbv.c:67:19
	decl	%esi
	.loc	9 67 7                  # setbv.c:67:7
	movl	%ebx, %edi
	movl	%r12d, %edx
	movq	%r15, %rcx
	callq	exact
.Ltmp85:
	.loc	9 70 9 is_stmt 1        # setbv.c:70:9
	movslq	ny(%rip), %rax
	#DEBUG_VALUE: setbv:m <- 0
	.loc	9 70 16 is_stmt 0       # setbv.c:70:16
	imulq	$2600, %rax, %rcx       # imm = 0xA28
	.loc	9 69 25 is_stmt 1       # setbv.c:69:25
	movq	48(%rsp), %rdx
	.loc	9 69 23 is_stmt 0       # setbv.c:69:23
	movq	%rdx, -16(%rbp)
	.loc	9 70 28 is_stmt 1       # setbv.c:70:28
	movq	(%rsp), %rdx
	.loc	9 70 26 is_stmt 0       # setbv.c:70:26
	movq	%rdx, -2616(%rcx,%rbp)
	.loc	9 69 25 is_stmt 1       # setbv.c:69:25
	movq	56(%rsp), %rdx
	.loc	9 69 23 is_stmt 0       # setbv.c:69:23
	movq	%rdx, -8(%rbp)
	.loc	9 70 28 is_stmt 1       # setbv.c:70:28
	movq	8(%rsp), %rdx
	.loc	9 70 26 is_stmt 0       # setbv.c:70:26
	movq	%rdx, -2608(%rcx,%rbp)
	.loc	9 69 25 is_stmt 1       # setbv.c:69:25
	movq	64(%rsp), %rdx
	.loc	9 69 23 is_stmt 0       # setbv.c:69:23
	movq	%rdx, (%rbp)
	.loc	9 70 28 is_stmt 1       # setbv.c:70:28
	movq	16(%rsp), %rdx
	.loc	9 70 26 is_stmt 0       # setbv.c:70:26
	movq	%rdx, -2600(%rcx,%rbp)
	.loc	9 69 25 is_stmt 1       # setbv.c:69:25
	movq	72(%rsp), %rdx
	.loc	9 69 23 is_stmt 0       # setbv.c:69:23
	movq	%rdx, 8(%rbp)
	.loc	9 70 28 is_stmt 1       # setbv.c:70:28
	movq	24(%rsp), %rdx
	.loc	9 70 26 is_stmt 0       # setbv.c:70:26
	movq	%rdx, -2592(%rcx,%rbp)
	.loc	9 69 25 is_stmt 1       # setbv.c:69:25
	movq	80(%rsp), %rdx
	.loc	9 69 23 is_stmt 0       # setbv.c:69:23
	movq	%rdx, 16(%rbp)
	.loc	9 70 28 is_stmt 1       # setbv.c:70:28
	movq	32(%rsp), %rdx
	.loc	9 70 26 is_stmt 0       # setbv.c:70:26
	movq	%rdx, -2584(%rcx,%rbp)
.Ltmp86:
	.loc	9 65 5 is_stmt 1 discriminator 1 # setbv.c:65:5
	incq	%rbx
	.loc	9 65 19 is_stmt 0 discriminator 1 # setbv.c:65:19
	movslq	nx(%rip), %rdx
	addq	$40, %rbp
	cmpq	%rdx, %rbx
	.loc	9 65 5 discriminator 1  # setbv.c:65:5
	jl	.LBB4_11
.Ltmp87:
# BB#12:                                # %for.inc69.loopexit
                                        #   in Loop: Header=BB4_9 Depth=1
	.loc	9 64 19 is_stmt 1 discriminator 1 # setbv.c:64:19
	movl	nz(%rip), %ecx
.LBB4_13:                               # %for.inc69
                                        #   in Loop: Header=BB4_9 Depth=1
	.loc	9 64 3 is_stmt 0 discriminator 1 # setbv.c:64:3
	incq	%r12
	.loc	9 64 17 discriminator 1 # setbv.c:64:17
	movslq	%ecx, %rsi
	.loc	9 64 3 discriminator 1  # setbv.c:64:3
	addq	$169000, %r13           # imm = 0x29428
	.loc	9 64 17 discriminator 1 # setbv.c:64:17
	cmpq	%rsi, %r12
	jl	.LBB4_9
.Ltmp88:
# BB#14:                                # %for.cond72.preheader
	.loc	9 78 3 is_stmt 1 discriminator 1 # setbv.c:78:3
	testl	%ecx, %ecx
	jle	.LBB4_21
# BB#15:                                # %for.cond75.preheader.lr.ph
	xorl	%r12d, %r12d
	movl	$u+16, %r13d
	leaq	48(%rsp), %r14
	leaq	(%rsp), %r15
	.p2align	4, 0x90
.LBB4_16:                               # %for.cond75.preheader
                                        # =>This Loop Header: Depth=1
                                        #     Child Loop BB4_18 Depth 2
.Ltmp89:
	.loc	9 79 5 discriminator 1  # setbv.c:79:5
	testl	%eax, %eax
	jle	.LBB4_20
# BB#17:                                # %for.body77.lr.ph
                                        #   in Loop: Header=BB4_16 Depth=1
	movq	%r13, %rbp
	xorl	%ebx, %ebx
	.p2align	4, 0x90
.LBB4_18:                               # %for.body77
                                        #   Parent Loop BB4_16 Depth=1
                                        # =>  This Inner Loop Header: Depth=2
.Ltmp90:
	.loc	9 80 7                  # setbv.c:80:7
	xorl	%edi, %edi
	movl	%ebx, %esi
	movl	%r12d, %edx
	movq	%r14, %rcx
	callq	exact
	.loc	9 81 14                 # setbv.c:81:14
	movl	nx(%rip), %edi
	.loc	9 81 16 is_stmt 0       # setbv.c:81:16
	decl	%edi
	.loc	9 81 7                  # setbv.c:81:7
	movl	%ebx, %esi
	movl	%r12d, %edx
	movq	%r15, %rcx
	callq	exact
	#DEBUG_VALUE: setbv:m <- 0
.Ltmp91:
	.loc	9 84 9 is_stmt 1        # setbv.c:84:9
	movslq	nx(%rip), %rax
	.loc	9 84 19 is_stmt 0       # setbv.c:84:19
	leaq	(%rax,%rax,4), %rax
	.loc	9 83 25 is_stmt 1       # setbv.c:83:25
	movq	48(%rsp), %rcx
	.loc	9 83 23 is_stmt 0       # setbv.c:83:23
	movq	%rcx, -16(%rbp)
	.loc	9 84 28 is_stmt 1       # setbv.c:84:28
	movq	(%rsp), %rcx
	.loc	9 84 26 is_stmt 0       # setbv.c:84:26
	movq	%rcx, -56(%rbp,%rax,8)
	.loc	9 83 25 is_stmt 1       # setbv.c:83:25
	movq	56(%rsp), %rcx
	.loc	9 83 23 is_stmt 0       # setbv.c:83:23
	movq	%rcx, -8(%rbp)
	.loc	9 84 28 is_stmt 1       # setbv.c:84:28
	movq	8(%rsp), %rcx
	.loc	9 84 26 is_stmt 0       # setbv.c:84:26
	movq	%rcx, -48(%rbp,%rax,8)
	.loc	9 83 25 is_stmt 1       # setbv.c:83:25
	movq	64(%rsp), %rcx
	.loc	9 83 23 is_stmt 0       # setbv.c:83:23
	movq	%rcx, (%rbp)
	.loc	9 84 28 is_stmt 1       # setbv.c:84:28
	movq	16(%rsp), %rcx
	.loc	9 84 26 is_stmt 0       # setbv.c:84:26
	movq	%rcx, -40(%rbp,%rax,8)
	.loc	9 83 25 is_stmt 1       # setbv.c:83:25
	movq	72(%rsp), %rcx
	.loc	9 83 23 is_stmt 0       # setbv.c:83:23
	movq	%rcx, 8(%rbp)
	.loc	9 84 28 is_stmt 1       # setbv.c:84:28
	movq	24(%rsp), %rcx
	.loc	9 84 26 is_stmt 0       # setbv.c:84:26
	movq	%rcx, -32(%rbp,%rax,8)
	.loc	9 83 25 is_stmt 1       # setbv.c:83:25
	movq	80(%rsp), %rcx
	.loc	9 83 23 is_stmt 0       # setbv.c:83:23
	movq	%rcx, 16(%rbp)
	.loc	9 84 28 is_stmt 1       # setbv.c:84:28
	movq	32(%rsp), %rcx
	.loc	9 84 26 is_stmt 0       # setbv.c:84:26
	movq	%rcx, -24(%rbp,%rax,8)
.Ltmp92:
	.loc	9 79 5 is_stmt 1 discriminator 1 # setbv.c:79:5
	incq	%rbx
	.loc	9 79 19 is_stmt 0 discriminator 1 # setbv.c:79:19
	movslq	ny(%rip), %rax
	addq	$2600, %rbp             # imm = 0xA28
	cmpq	%rax, %rbx
	.loc	9 79 5 discriminator 1  # setbv.c:79:5
	jl	.LBB4_18
.Ltmp93:
# BB#19:                                # %for.inc110.loopexit
                                        #   in Loop: Header=BB4_16 Depth=1
	.loc	9 78 19 is_stmt 1 discriminator 1 # setbv.c:78:19
	movl	nz(%rip), %ecx
.LBB4_20:                               # %for.inc110
                                        #   in Loop: Header=BB4_16 Depth=1
	.loc	9 78 3 is_stmt 0 discriminator 1 # setbv.c:78:3
	incq	%r12
	.loc	9 78 17 discriminator 1 # setbv.c:78:17
	movslq	%ecx, %rdx
	.loc	9 78 3 discriminator 1  # setbv.c:78:3
	addq	$169000, %r13           # imm = 0x29428
	.loc	9 78 17 discriminator 1 # setbv.c:78:17
	cmpq	%rdx, %r12
	jl	.LBB4_16
.Ltmp94:
.LBB4_21:                               # %for.end112
	.loc	9 88 1 is_stmt 1        # setbv.c:88:1
	addq	$88, %rsp
	popq	%rbx
	popq	%r12
	popq	%r13
	popq	%r14
	popq	%r15
	popq	%rbp
	retq
.Ltmp95:
.Lfunc_end4:
	.size	setbv, .Lfunc_end4-setbv
	.cfi_endproc

	.globl	exact
	.p2align	4, 0x90
	.type	exact,@function
exact:                                  # @exact
.Lfunc_begin5:
	.file	10 "/home/norouzi/Desktop/software/benchmarks/NAS/NPB3.3-SER-C/LU/exact.c"
	.loc	10 42 0                 # exact.c:42:0
	.cfi_startproc
# BB#0:                                 # %entry
	#DEBUG_VALUE: exact:i <- %EDI
	#DEBUG_VALUE: exact:j <- %ESI
	#DEBUG_VALUE: exact:k <- %EDX
	#DEBUG_VALUE: exact:u000ijk <- %RCX
	.loc	10 49 12 prologue_end   # exact.c:49:12
	cvtsi2sdl	%edi, %xmm0
	.loc	10 49 28 is_stmt 0      # exact.c:49:28
	movl	nx0(%rip), %eax
	.loc	10 49 32                # exact.c:49:32
	decl	%eax
	.loc	10 49 26                # exact.c:49:26
	cvtsi2sdl	%eax, %xmm1
	.loc	10 49 24                # exact.c:49:24
	divsd	%xmm1, %xmm0
.Ltmp96:
	#DEBUG_VALUE: exact:xi <- %XMM0
	.loc	10 50 12 is_stmt 1      # exact.c:50:12
	xorps	%xmm1, %xmm1
	cvtsi2sdl	%esi, %xmm1
	.loc	10 50 28 is_stmt 0      # exact.c:50:28
	movl	ny0(%rip), %eax
	.loc	10 50 32                # exact.c:50:32
	decl	%eax
	.loc	10 50 26                # exact.c:50:26
	cvtsi2sdl	%eax, %xmm2
	.loc	10 50 24                # exact.c:50:24
	divsd	%xmm2, %xmm1
.Ltmp97:
	#DEBUG_VALUE: exact:eta <- %XMM1
	.loc	10 51 12 is_stmt 1      # exact.c:51:12
	xorps	%xmm2, %xmm2
	cvtsi2sdl	%edx, %xmm2
	.loc	10 51 28 is_stmt 0      # exact.c:51:28
	movl	nz(%rip), %eax
	.loc	10 51 31                # exact.c:51:31
	decl	%eax
	.loc	10 51 26                # exact.c:51:26
	cvtsi2sdl	%eax, %xmm3
	.loc	10 51 24                # exact.c:51:24
	divsd	%xmm3, %xmm2
.Ltmp98:
	#DEBUG_VALUE: exact:m <- 0
	#DEBUG_VALUE: exact:zeta <- %XMM2
	movq	$-520, %rax             # imm = 0xFFFFFFFFFFFFFDF8
.Ltmp99:
	.p2align	4, 0x90
.LBB5_1:                                # %for.body
                                        # =>This Inner Loop Header: Depth=1
	movsd	ce+600(%rax), %xmm3     # xmm3 = mem[0],zero
.Ltmp100:
	.loc	10 58 20 is_stmt 1      # exact.c:58:20
	mulsd	%xmm0, %xmm3
	.loc	10 58 7 is_stmt 0       # exact.c:58:7
	addsd	ce+576(%rax), %xmm3
	.loc	10 58 26                # exact.c:58:26
	mulsd	%xmm0, %xmm3
	.loc	10 57 7 is_stmt 1       # exact.c:57:7
	addsd	ce+552(%rax), %xmm3
	.loc	10 58 32                # exact.c:58:32
	mulsd	%xmm0, %xmm3
	.loc	10 56 7                 # exact.c:56:7
	addsd	ce+528(%rax), %xmm3
	.loc	10 58 38                # exact.c:58:38
	mulsd	%xmm0, %xmm3
	.loc	10 55 7                 # exact.c:55:7
	addsd	ce+520(%rax), %xmm3
	movsd	ce+608(%rax), %xmm4     # xmm4 = mem[0],zero
	.loc	10 62 20                # exact.c:62:20
	mulsd	%xmm1, %xmm4
	.loc	10 62 7 is_stmt 0       # exact.c:62:7
	addsd	ce+584(%rax), %xmm4
	.loc	10 62 27                # exact.c:62:27
	mulsd	%xmm1, %xmm4
	.loc	10 61 7 is_stmt 1       # exact.c:61:7
	addsd	ce+560(%rax), %xmm4
	.loc	10 62 34                # exact.c:62:34
	mulsd	%xmm1, %xmm4
	.loc	10 60 7                 # exact.c:60:7
	addsd	ce+536(%rax), %xmm4
	.loc	10 62 41                # exact.c:62:41
	mulsd	%xmm1, %xmm4
	.loc	10 59 7                 # exact.c:59:7
	addsd	%xmm3, %xmm4
	movsd	ce+616(%rax), %xmm3     # xmm3 = mem[0],zero
	.loc	10 66 20                # exact.c:66:20
	mulsd	%xmm2, %xmm3
	.loc	10 66 7 is_stmt 0       # exact.c:66:7
	addsd	ce+592(%rax), %xmm3
	.loc	10 66 28                # exact.c:66:28
	mulsd	%xmm2, %xmm3
	.loc	10 65 7 is_stmt 1       # exact.c:65:7
	addsd	ce+568(%rax), %xmm3
	.loc	10 66 36                # exact.c:66:36
	mulsd	%xmm2, %xmm3
	.loc	10 64 7                 # exact.c:64:7
	addsd	ce+544(%rax), %xmm3
	.loc	10 66 44                # exact.c:66:44
	mulsd	%xmm2, %xmm3
	.loc	10 63 7                 # exact.c:63:7
	addsd	%xmm4, %xmm3
	.loc	10 54 16                # exact.c:54:16
	movsd	%xmm3, (%rcx)
.Ltmp101:
	.loc	10 53 3 discriminator 1 # exact.c:53:3
	addq	$8, %rcx
	addq	$104, %rax
	jne	.LBB5_1
.Ltmp102:
# BB#2:                                 # %for.end
	.loc	10 68 1                 # exact.c:68:1
	retq
.Ltmp103:
.Lfunc_end5:
	.size	exact, .Lfunc_end5-exact
	.cfi_endproc

	.section	.rodata.cst8,"aM",@progbits,8
	.p2align	3
.LCPI6_0:
	.quad	4607182418800017408     # double 1
	.text
	.globl	setiv
	.p2align	4, 0x90
	.type	setiv,@function
setiv:                                  # @setiv
.Lfunc_begin6:
	.file	11 "/home/norouzi/Desktop/software/benchmarks/NAS/NPB3.3-SER-C/LU/setiv.c"
	.loc	11 43 0                 # setiv.c:43:0
	.cfi_startproc
# BB#0:                                 # %entry
	.loc	11 53 19 prologue_end discriminator 1 # setiv.c:53:19
	pushq	%rbp
.Ltmp104:
	.cfi_def_cfa_offset 16
	pushq	%r15
.Ltmp105:
	.cfi_def_cfa_offset 24
	pushq	%r14
.Ltmp106:
	.cfi_def_cfa_offset 32
	pushq	%r13
.Ltmp107:
	.cfi_def_cfa_offset 40
	pushq	%r12
.Ltmp108:
	.cfi_def_cfa_offset 48
	pushq	%rbx
.Ltmp109:
	.cfi_def_cfa_offset 56
	subq	$440, %rsp              # imm = 0x1B8
.Ltmp110:
	.cfi_def_cfa_offset 496
.Ltmp111:
	.cfi_offset %rbx, -56
.Ltmp112:
	.cfi_offset %r12, -48
.Ltmp113:
	.cfi_offset %r13, -40
.Ltmp114:
	.cfi_offset %r14, -32
.Ltmp115:
	.cfi_offset %r15, -24
.Ltmp116:
	.cfi_offset %rbp, -16
.Ltmp117:
	#DEBUG_VALUE: setiv:k <- 1
	movl	nz(%rip), %edi
	.loc	11 53 22 is_stmt 0 discriminator 1 # setiv.c:53:22
	leal	-1(%rdi), %r9d
	.loc	11 53 3 discriminator 1 # setiv.c:53:3
	cmpl	$2, %r9d
	jl	.LBB6_11
# BB#1:                                 # %for.body.lr.ph
.Ltmp118:
	.loc	11 55 21 is_stmt 1 discriminator 1 # setiv.c:55:21
	movl	ny(%rip), %eax
	movl	$1, %ebx
	movl	$u+171672, %edx
.Ltmp119:
	.loc	11 71 25                # setiv.c:71:25
	movsd	.LCPI6_0(%rip), %xmm8   # xmm8 = mem[0],zero
	leaq	400(%rsp), %rcx
	leaq	192(%rsp), %r14
	leaq	144(%rsp), %rbp
	leaq	96(%rsp), %r8
	leaq	48(%rsp), %r10
	leaq	352(%rsp), %r11
.Ltmp120:
	.p2align	4, 0x90
.LBB6_2:                                # %for.body
                                        # =>This Loop Header: Depth=1
                                        #     Child Loop BB6_4 Depth 2
                                        #       Child Loop BB6_6 Depth 3
	#DEBUG_VALUE: setiv:j <- 1
	.loc	11 55 24 discriminator 1 # setiv.c:55:24
	leal	-1(%rax), %esi
	.loc	11 55 5 is_stmt 0 discriminator 1 # setiv.c:55:5
	cmpl	$2, %esi
	jl	.LBB6_10
.Ltmp121:
# BB#3:                                 # %for.body7.lr.ph
                                        #   in Loop: Header=BB6_2 Depth=1
	movq	%rbp, %r12
	movq	%r14, %rbp
	.loc	11 54 14 is_stmt 1      # setiv.c:54:14
	cvtsi2sdl	%ebx, %xmm1
	.loc	11 54 28 is_stmt 0      # setiv.c:54:28
	cvtsi2sdl	%r9d, %xmm0
	.loc	11 54 26                # setiv.c:54:26
	divsd	%xmm0, %xmm1
.Ltmp122:
	#DEBUG_VALUE: setiv:zeta <- %XMM1
	.loc	11 71 25 is_stmt 1      # setiv.c:71:25
	movapd	%xmm1, 288(%rsp)        # 16-byte Spill
	movapd	%xmm8, %xmm0
	subsd	%xmm1, %xmm0
.Ltmp123:
	.loc	11 57 23 discriminator 1 # setiv.c:57:23
	movapd	%xmm0, 272(%rsp)        # 16-byte Spill
	movl	nx(%rip), %esi
.Ltmp124:
	.loc	11 71 34                # setiv.c:71:34
	movlhps	%xmm0, %xmm0            # xmm0 = xmm0[0,0]
	.loc	11 72 34                # setiv.c:72:34
	movaps	%xmm0, 256(%rsp)        # 16-byte Spill
	movapd	%xmm1, %xmm0
	movlhps	%xmm0, %xmm0            # xmm0 = xmm0[0,0]
	movaps	%xmm0, 240(%rsp)        # 16-byte Spill
	movq	%rdx, %r13
	movq	%rdx, (%rsp)            # 8-byte Spill
	movl	$1, %r15d
.Ltmp125:
	.p2align	4, 0x90
.LBB6_4:                                # %for.body7
                                        #   Parent Loop BB6_2 Depth=1
                                        # =>  This Loop Header: Depth=2
                                        #       Child Loop BB6_6 Depth 3
	#DEBUG_VALUE: setiv:i <- 1
	.loc	11 57 26 discriminator 1 # setiv.c:57:26
	leal	-1(%rsi), %edx
	.loc	11 57 7 is_stmt 0 discriminator 1 # setiv.c:57:7
	cmpl	$2, %edx
	jl	.LBB6_8
.Ltmp126:
# BB#5:                                 # %for.body16.lr.ph
                                        #   in Loop: Header=BB6_4 Depth=2
	.loc	11 56 15 is_stmt 1      # setiv.c:56:15
	cvtsi2sdl	%r15d, %xmm1
	.loc	11 56 30 is_stmt 0      # setiv.c:56:30
	movl	ny0(%rip), %eax
	.loc	11 56 33                # setiv.c:56:33
	decl	%eax
	.loc	11 56 29                # setiv.c:56:29
	xorps	%xmm0, %xmm0
	cvtsi2sdl	%eax, %xmm0
	.loc	11 56 27                # setiv.c:56:27
	divsd	%xmm0, %xmm1
.Ltmp127:
	#DEBUG_VALUE: setiv:eta <- %XMM1
	.loc	11 69 25 is_stmt 1      # setiv.c:69:25
	movapd	%xmm1, 16(%rsp)         # 16-byte Spill
	subsd	%xmm1, %xmm8
	.loc	11 69 33 is_stmt 0      # setiv.c:69:33
	movapd	%xmm8, 336(%rsp)        # 16-byte Spill
	movlhps	%xmm8, %xmm8            # xmm8 = xmm8[0,0]
	movaps	%xmm8, 320(%rsp)        # 16-byte Spill
.Ltmp128:
	#DEBUG_VALUE: setiv:eta <- [%RSP+16]
	.loc	11 70 33 is_stmt 1      # setiv.c:70:33
	movlhps	%xmm1, %xmm1            # xmm1 = xmm1[0,0]
	movaps	%xmm1, 304(%rsp)        # 16-byte Spill
	movq	%r13, 8(%rsp)           # 8-byte Spill
	movl	$1, %r12d
	movq	%r11, %r14
.Ltmp129:
	.p2align	4, 0x90
.LBB6_6:                                # %for.body16
                                        #   Parent Loop BB6_2 Depth=1
                                        #     Parent Loop BB6_4 Depth=2
                                        # =>    This Inner Loop Header: Depth=3
	.loc	11 58 16                # setiv.c:58:16
	xorps	%xmm1, %xmm1
	cvtsi2sdl	%r12d, %xmm1
	.loc	11 58 31 is_stmt 0      # setiv.c:58:31
	movl	nx0(%rip), %eax
	.loc	11 58 34                # setiv.c:58:34
	decl	%eax
	.loc	11 58 30                # setiv.c:58:30
	xorps	%xmm0, %xmm0
	cvtsi2sdl	%eax, %xmm0
	.loc	11 58 28                # setiv.c:58:28
	divsd	%xmm0, %xmm1
.Ltmp130:
	#DEBUG_VALUE: setiv:xi <- %XMM1
	movapd	%xmm1, 32(%rsp)         # 16-byte Spill
.Ltmp131:
	#DEBUG_VALUE: setiv:xi <- [%RSP+32]
	.loc	11 59 9 is_stmt 1       # setiv.c:59:9
	xorl	%edi, %edi
	movl	%r15d, %esi
	movl	%ebx, %edx
	movq	%rcx, %rbp
	callq	exact
.Ltmp132:
	.loc	11 60 15                # setiv.c:60:15
	movl	nx0(%rip), %edi
	.loc	11 60 18 is_stmt 0      # setiv.c:60:18
	decl	%edi
	.loc	11 60 9                 # setiv.c:60:9
	movl	%r15d, %esi
	movl	%ebx, %edx
	leaq	192(%rsp), %rcx
	callq	exact
	.loc	11 61 9 is_stmt 1       # setiv.c:61:9
	xorl	%esi, %esi
	movl	%r12d, %edi
	movl	%ebx, %edx
	leaq	144(%rsp), %rcx
	callq	exact
	.loc	11 62 18                # setiv.c:62:18
	movl	ny0(%rip), %esi
	.loc	11 62 21 is_stmt 0      # setiv.c:62:21
	decl	%esi
	.loc	11 62 9                 # setiv.c:62:9
	movl	%r12d, %edi
	movl	%ebx, %edx
	leaq	96(%rsp), %rcx
	callq	exact
	.loc	11 63 9 is_stmt 1       # setiv.c:63:9
	xorl	%edx, %edx
	movl	%r12d, %edi
	movl	%r15d, %esi
	leaq	48(%rsp), %rcx
	callq	exact
	.loc	11 64 21                # setiv.c:64:21
	movl	nz(%rip), %edx
	.loc	11 64 23 is_stmt 0      # setiv.c:64:23
	decl	%edx
	.loc	11 64 9                 # setiv.c:64:9
	movl	%r12d, %edi
	movl	%r15d, %esi
	movq	%r14, %rcx
	callq	exact
	movapd	240(%rsp), %xmm10       # 16-byte Reload
	movapd	256(%rsp), %xmm9        # 16-byte Reload
	movq	%rbp, %rcx
.Ltmp133:
	.loc	11 71 25 is_stmt 1      # setiv.c:71:25
	movsd	.LCPI6_0(%rip), %xmm8   # xmm8 = mem[0],zero
.Ltmp134:
	#DEBUG_VALUE: setiv:m <- 0
	.loc	11 67 25                # setiv.c:67:25
	movapd	%xmm8, %xmm11
	movapd	32(%rsp), %xmm0         # 16-byte Reload
.Ltmp135:
	#DEBUG_VALUE: setiv:xi <- %XMM0
	subsd	%xmm0, %xmm11
	.loc	11 67 32 is_stmt 0      # setiv.c:67:32
	movapd	%xmm11, %xmm2
	movlhps	%xmm2, %xmm2            # xmm2 = xmm2[0,0]
	movapd	400(%rsp), %xmm4
	mulpd	%xmm2, %xmm4
	.loc	11 68 32 is_stmt 1      # setiv.c:68:32
	movapd	%xmm0, %xmm1
	movapd	%xmm0, %xmm13
.Ltmp136:
	#DEBUG_VALUE: setiv:xi <- %XMM13
	movlhps	%xmm1, %xmm1            # xmm1 = xmm1[0,0]
	movapd	192(%rsp), %xmm3
	mulpd	%xmm1, %xmm3
	.loc	11 68 25 is_stmt 0      # setiv.c:68:25
	addpd	%xmm4, %xmm3
	movapd	144(%rsp), %xmm4
	movapd	320(%rsp), %xmm0        # 16-byte Reload
	.loc	11 69 33 is_stmt 1      # setiv.c:69:33
	mulpd	%xmm0, %xmm4
	movapd	96(%rsp), %xmm5
	movapd	304(%rsp), %xmm12       # 16-byte Reload
	.loc	11 70 33                # setiv.c:70:33
	mulpd	%xmm12, %xmm5
	.loc	11 70 25 is_stmt 0      # setiv.c:70:25
	addpd	%xmm4, %xmm5
	movapd	48(%rsp), %xmm4
	.loc	11 71 34 is_stmt 1      # setiv.c:71:34
	mulpd	%xmm9, %xmm4
	movapd	352(%rsp), %xmm6
	.loc	11 72 34                # setiv.c:72:34
	mulpd	%xmm10, %xmm6
	.loc	11 72 25 is_stmt 0      # setiv.c:72:25
	addpd	%xmm4, %xmm6
	.loc	11 74 31 is_stmt 1      # setiv.c:74:31
	movapd	%xmm3, %xmm4
	addpd	%xmm5, %xmm4
	.loc	11 74 38 is_stmt 0      # setiv.c:74:38
	addpd	%xmm6, %xmm4
	.loc	11 75 19 is_stmt 1      # setiv.c:75:19
	movapd	%xmm3, %xmm7
	mulpd	%xmm5, %xmm7
	.loc	11 75 13 is_stmt 0      # setiv.c:75:13
	subpd	%xmm7, %xmm4
	.loc	11 75 33                # setiv.c:75:33
	mulpd	%xmm6, %xmm5
	.loc	11 75 26                # setiv.c:75:26
	subpd	%xmm5, %xmm4
	.loc	11 75 49                # setiv.c:75:49
	mulpd	%xmm6, %xmm3
	.loc	11 75 41                # setiv.c:75:41
	subpd	%xmm3, %xmm4
	.loc	11 76 26 is_stmt 1      # setiv.c:76:26
	mulpd	%xmm6, %xmm7
	.loc	11 76 13 is_stmt 0      # setiv.c:76:13
	addpd	%xmm4, %xmm7
	.loc	11 74 25 is_stmt 1      # setiv.c:74:25
	movupd	%xmm7, -32(%r13)
	.loc	11 67 32                # setiv.c:67:32
	mulpd	416(%rsp), %xmm2
	.loc	11 68 32                # setiv.c:68:32
	mulpd	208(%rsp), %xmm1
	.loc	11 68 25 is_stmt 0      # setiv.c:68:25
	addpd	%xmm2, %xmm1
	movapd	160(%rsp), %xmm2
	.loc	11 69 33 is_stmt 1      # setiv.c:69:33
	mulpd	%xmm0, %xmm2
	movapd	112(%rsp), %xmm3
	.loc	11 70 33                # setiv.c:70:33
	mulpd	%xmm12, %xmm3
	.loc	11 70 25 is_stmt 0      # setiv.c:70:25
	addpd	%xmm2, %xmm3
	movapd	64(%rsp), %xmm2
	.loc	11 71 34 is_stmt 1      # setiv.c:71:34
	mulpd	%xmm9, %xmm2
	movapd	368(%rsp), %xmm4
	.loc	11 72 34                # setiv.c:72:34
	mulpd	%xmm10, %xmm4
	.loc	11 72 25 is_stmt 0      # setiv.c:72:25
	addpd	%xmm2, %xmm4
	.loc	11 74 31 is_stmt 1      # setiv.c:74:31
	movapd	%xmm1, %xmm2
	addpd	%xmm3, %xmm2
	.loc	11 74 38 is_stmt 0      # setiv.c:74:38
	addpd	%xmm4, %xmm2
	.loc	11 75 19 is_stmt 1      # setiv.c:75:19
	movapd	%xmm1, %xmm5
	mulpd	%xmm3, %xmm5
	.loc	11 75 13 is_stmt 0      # setiv.c:75:13
	subpd	%xmm5, %xmm2
	.loc	11 75 33                # setiv.c:75:33
	mulpd	%xmm4, %xmm3
	.loc	11 75 26                # setiv.c:75:26
	subpd	%xmm3, %xmm2
	.loc	11 75 49                # setiv.c:75:49
	mulpd	%xmm4, %xmm1
	.loc	11 75 41                # setiv.c:75:41
	subpd	%xmm1, %xmm2
	.loc	11 76 26 is_stmt 1      # setiv.c:76:26
	mulpd	%xmm4, %xmm5
	movapd	272(%rsp), %xmm4        # 16-byte Reload
	movapd	288(%rsp), %xmm3        # 16-byte Reload
	.loc	11 76 13 is_stmt 0      # setiv.c:76:13
	addpd	%xmm2, %xmm5
	.loc	11 74 25 is_stmt 1      # setiv.c:74:25
	movupd	%xmm5, -16(%r13)
	.loc	11 67 32                # setiv.c:67:32
	mulsd	432(%rsp), %xmm11
	movapd	%xmm13, %xmm0
.Ltmp137:
	#DEBUG_VALUE: setiv:xi <- %XMM0
	.loc	11 68 32                # setiv.c:68:32
	mulsd	224(%rsp), %xmm0
.Ltmp138:
	.loc	11 68 25 is_stmt 0      # setiv.c:68:25
	addsd	%xmm11, %xmm0
	movapd	%xmm0, %xmm5
	movsd	176(%rsp), %xmm0        # xmm0 = mem[0],zero
	.loc	11 69 33 is_stmt 1      # setiv.c:69:33
	mulsd	336(%rsp), %xmm0        # 16-byte Folded Reload
	movsd	128(%rsp), %xmm1        # xmm1 = mem[0],zero
	.loc	11 70 33                # setiv.c:70:33
	mulsd	16(%rsp), %xmm1         # 16-byte Folded Reload
	.loc	11 70 25 is_stmt 0      # setiv.c:70:25
	addsd	%xmm0, %xmm1
	movsd	80(%rsp), %xmm0         # xmm0 = mem[0],zero
	.loc	11 71 34 is_stmt 1      # setiv.c:71:34
	mulsd	%xmm4, %xmm0
	movsd	384(%rsp), %xmm2        # xmm2 = mem[0],zero
	.loc	11 72 34                # setiv.c:72:34
	mulsd	%xmm3, %xmm2
	.loc	11 72 25 is_stmt 0      # setiv.c:72:25
	addsd	%xmm0, %xmm2
	.loc	11 74 31 is_stmt 1      # setiv.c:74:31
	movapd	%xmm5, %xmm0
	addsd	%xmm1, %xmm0
	.loc	11 74 38 is_stmt 0      # setiv.c:74:38
	addsd	%xmm2, %xmm0
	.loc	11 75 19 is_stmt 1      # setiv.c:75:19
	movapd	%xmm5, %xmm3
	mulsd	%xmm1, %xmm3
	.loc	11 75 13 is_stmt 0      # setiv.c:75:13
	subsd	%xmm3, %xmm0
	.loc	11 75 33                # setiv.c:75:33
	mulsd	%xmm2, %xmm1
	.loc	11 75 26                # setiv.c:75:26
	subsd	%xmm1, %xmm0
	.loc	11 75 49                # setiv.c:75:49
	mulsd	%xmm2, %xmm5
	.loc	11 75 41                # setiv.c:75:41
	subsd	%xmm5, %xmm0
	.loc	11 76 26 is_stmt 1      # setiv.c:76:26
	mulsd	%xmm2, %xmm3
	.loc	11 76 13 is_stmt 0      # setiv.c:76:13
	addsd	%xmm0, %xmm3
	.loc	11 74 25 is_stmt 1      # setiv.c:74:25
	movsd	%xmm3, (%r13)
.Ltmp139:
	.loc	11 57 7 discriminator 1 # setiv.c:57:7
	incq	%r12
	.loc	11 57 21 is_stmt 0 discriminator 1 # setiv.c:57:21
	movslq	nx(%rip), %rsi
	.loc	11 57 26 discriminator 1 # setiv.c:57:26
	leaq	-1(%rsi), %rax
	.loc	11 57 21 discriminator 1 # setiv.c:57:21
	addq	$40, %r13
	cmpq	%rax, %r12
	.loc	11 57 7 discriminator 1 # setiv.c:57:7
	jl	.LBB6_6
.Ltmp140:
# BB#7:                                 # %for.inc75.loopexit
                                        #   in Loop: Header=BB6_4 Depth=2
	movq	%r14, %r11
	leaq	48(%rsp), %r10
	leaq	96(%rsp), %r8
	leaq	144(%rsp), %rbp
	movq	%rbp, %r12
	leaq	192(%rsp), %rbp
	.loc	11 55 21 is_stmt 1 discriminator 1 # setiv.c:55:21
	movl	ny(%rip), %eax
	movq	8(%rsp), %r13           # 8-byte Reload
.LBB6_8:                                # %for.inc75
                                        #   in Loop: Header=BB6_4 Depth=2
	.loc	11 55 5 is_stmt 0 discriminator 1 # setiv.c:55:5
	incq	%r15
	.loc	11 55 24 discriminator 1 # setiv.c:55:24
	leal	-1(%rax), %edx
	.loc	11 55 19 discriminator 1 # setiv.c:55:19
	movslq	%edx, %rdx
	.loc	11 55 5 discriminator 1 # setiv.c:55:5
	addq	$2600, %r13             # imm = 0xA28
	.loc	11 55 19 discriminator 1 # setiv.c:55:19
	cmpq	%rdx, %r15
	jl	.LBB6_4
.Ltmp141:
# BB#9:                                 # %for.inc78.loopexit
                                        #   in Loop: Header=BB6_2 Depth=1
	.loc	11 53 19 is_stmt 1 discriminator 1 # setiv.c:53:19
	movl	nz(%rip), %edi
	movq	(%rsp), %rdx            # 8-byte Reload
	movq	%rbp, %r14
	movq	%r12, %rbp
.LBB6_10:                               # %for.inc78
                                        #   in Loop: Header=BB6_2 Depth=1
	.loc	11 53 3 is_stmt 0 discriminator 1 # setiv.c:53:3
	incq	%rbx
	.loc	11 53 22 discriminator 1 # setiv.c:53:22
	leal	-1(%rdi), %r9d
	.loc	11 53 17 discriminator 1 # setiv.c:53:17
	movslq	%r9d, %rsi
	.loc	11 53 3 discriminator 1 # setiv.c:53:3
	addq	$169000, %rdx           # imm = 0x29428
	.loc	11 53 17 discriminator 1 # setiv.c:53:17
	cmpq	%rsi, %rbx
	jl	.LBB6_2
.Ltmp142:
.LBB6_11:                               # %for.end80
	.loc	11 81 1 is_stmt 1       # setiv.c:81:1
	addq	$440, %rsp              # imm = 0x1B8
	popq	%rbx
	popq	%r12
	popq	%r13
	popq	%r14
	popq	%r15
	popq	%rbp
	retq
.Ltmp143:
.Lfunc_end6:
	.size	setiv, .Lfunc_end6-setiv
	.cfi_endproc

	.section	.rodata.cst8,"aM",@progbits,8
	.p2align	3
.LCPI7_0:
	.quad	4591870180066957722     # double 0.10000000000000001
.LCPI7_1:
	.quad	4608683618675807573     # double 1.3333333333333333
.LCPI7_2:
	.quad	-4621053505652318538    # double -0.47999999999999987
.LCPI7_3:
	.quad	4595172819793696085     # double 0.16666666666666666
.LCPI7_4:
	.quad	4611505874442293083     # double 1.9599999999999997
.LCPI7_5:
	.quad	4602678819172646912     # double 0.5
.LCPI7_6:
	.quad	4600877379321698714     # double 0.40000000000000002
.LCPI7_7:
	.quad	4608983858650965606     # double 1.3999999999999999
.LCPI7_8:
	.quad	4607182418800017408     # double 1
.LCPI7_9:
	.quad	4617315517961601024     # double 5
.LCPI7_10:
	.quad	4616189618054758400     # double 4
.LCPI7_11:
	.quad	4618441417868443648     # double 6
	.section	.rodata.cst16,"aM",@progbits,16
	.p2align	4
.LCPI7_12:
	.quad	4616189618054758400     # double 4
	.quad	4616189618054758400     # double 4
.LCPI7_13:
	.quad	4618441417868443648     # double 6
	.quad	4618441417868443648     # double 6
	.text
	.globl	erhs
	.p2align	4, 0x90
	.type	erhs,@function
erhs:                                   # @erhs
.Lfunc_begin7:
	.file	12 "/home/norouzi/Desktop/software/benchmarks/NAS/NPB3.3-SER-C/LU/erhs.c"
	.loc	12 42 0                 # erhs.c:42:0
	.cfi_startproc
# BB#0:                                 # %entry
	.loc	12 68 3 prologue_end discriminator 1 # erhs.c:68:3
	pushq	%rbp
.Ltmp144:
	.cfi_def_cfa_offset 16
	pushq	%r15
.Ltmp145:
	.cfi_def_cfa_offset 24
	pushq	%r14
.Ltmp146:
	.cfi_def_cfa_offset 32
	pushq	%r13
.Ltmp147:
	.cfi_def_cfa_offset 40
	pushq	%r12
.Ltmp148:
	.cfi_def_cfa_offset 48
	pushq	%rbx
.Ltmp149:
	.cfi_def_cfa_offset 56
	subq	$488, %rsp              # imm = 0x1E8
.Ltmp150:
	.cfi_def_cfa_offset 544
.Ltmp151:
	.cfi_offset %rbx, -56
.Ltmp152:
	.cfi_offset %r12, -48
.Ltmp153:
	.cfi_offset %r13, -40
.Ltmp154:
	.cfi_offset %r14, -32
.Ltmp155:
	.cfi_offset %r15, -24
.Ltmp156:
	.cfi_offset %rbp, -16
.Ltmp157:
	#DEBUG_VALUE: erhs:k <- 0
	movslq	nz(%rip), %r15
.Ltmp158:
	.loc	12 96 19 discriminator 1 # erhs.c:96:19
	testq	%r15, %r15
	jle	.LBB7_11
.Ltmp159:
# BB#1:                                 # %for.cond25.preheader.lr.ph
	.loc	12 59 21 discriminator 1 # erhs.c:59:21
	movl	ny(%rip), %ecx
	.loc	12 59 5 is_stmt 0 discriminator 1 # erhs.c:59:5
	testl	%ecx, %ecx
	jle	.LBB7_65
# BB#2:                                 # %for.cond28.preheader.lr.ph.us.preheader
	movq	%r15, 96(%rsp)          # 8-byte Spill
.Ltmp160:
	.loc	12 60 23 is_stmt 1 discriminator 1 # erhs.c:60:23
	movl	nx(%rip), %eax
.Ltmp161:
	.loc	12 62 11                # erhs.c:62:11
	movq	%rax, 144(%rsp)         # 8-byte Spill
	leal	-1(%rax), %eax
	leaq	(%rax,%rax,4), %rax
	leaq	40(,%rax,8), %r15
	leal	-1(%rcx), %eax
	movl	%eax, 128(%rsp)         # 4-byte Spill
.Ltmp162:
	.loc	12 60 7 discriminator 1 # erhs.c:60:7
	movq	%rcx, 112(%rsp)         # 8-byte Spill
	movl	%ecx, %r12d
	andl	$7, %r12d
	movl	$frct, %eax
	movq	%rax, 64(%rsp)          # 8-byte Spill
	xorl	%ecx, %ecx
	movl	$frct+18200, %eax
	movq	%rax, 8(%rsp)           # 8-byte Spill
	.p2align	4, 0x90
.LBB7_3:                                # %for.cond28.preheader.lr.ph.us
                                        # =>This Loop Header: Depth=1
                                        #     Child Loop BB7_5 Depth 2
                                        #     Child Loop BB7_8 Depth 2
	movq	%rcx, 32(%rsp)          # 8-byte Spill
	movq	144(%rsp), %rax         # 8-byte Reload
	testl	%eax, %eax
	jle	.LBB7_9
# BB#4:                                 # %for.cond31.preheader.lr.ph.us.us.preheader
                                        #   in Loop: Header=BB7_3 Depth=1
	testl	%r12d, %r12d
	movq	64(%rsp), %rbx          # 8-byte Reload
	movl	$0, %ebp
	je	.LBB7_6
	.p2align	4, 0x90
.LBB7_5:                                # %for.cond31.preheader.lr.ph.us.us.prol
                                        #   Parent Loop BB7_3 Depth=1
                                        # =>  This Inner Loop Header: Depth=2
.Ltmp163:
	.loc	12 62 28                # erhs.c:62:28
	xorl	%esi, %esi
	movq	%rbx, %rdi
	movq	%r15, %rdx
	callq	memset
.Ltmp164:
	.loc	12 59 5 discriminator 1 # erhs.c:59:5
	incq	%rbp
	addq	$2600, %rbx             # imm = 0xA28
	cmpl	%ebp, %r12d
	jne	.LBB7_5
.LBB7_6:                                # %for.cond31.preheader.lr.ph.us.us.preheader.split
                                        #   in Loop: Header=BB7_3 Depth=1
	cmpl	$7, 128(%rsp)           # 4-byte Folded Reload
	jb	.LBB7_9
# BB#7:                                 # %for.cond31.preheader.lr.ph.us.us.preheader.split.split
                                        #   in Loop: Header=BB7_3 Depth=1
.Ltmp165:
	.loc	12 60 7 discriminator 1 # erhs.c:60:7
	movq	112(%rsp), %rax         # 8-byte Reload
	movl	%eax, %ebx
	subl	%ebp, %ebx
	imulq	$2600, %rbp, %r13       # imm = 0xA28
	movq	8(%rsp), %rbp           # 8-byte Reload
	.p2align	4, 0x90
.LBB7_8:                                # %for.cond31.preheader.lr.ph.us.us
                                        #   Parent Loop BB7_3 Depth=1
                                        # =>  This Inner Loop Header: Depth=2
.Ltmp166:
	.loc	12 62 28                # erhs.c:62:28
	leaq	(%rbp,%r13), %r14
	leaq	-18200(%rbp,%r13), %rdi
	xorl	%esi, %esi
	movq	%r15, %rdx
	callq	memset
	leaq	-15600(%rbp,%r13), %rdi
	xorl	%esi, %esi
	movq	%r15, %rdx
	callq	memset
	leaq	-13000(%rbp,%r13), %rdi
	xorl	%esi, %esi
	movq	%r15, %rdx
	callq	memset
	leaq	-10400(%rbp,%r13), %rdi
	xorl	%esi, %esi
	movq	%r15, %rdx
	callq	memset
	leaq	-7800(%rbp,%r13), %rdi
	xorl	%esi, %esi
	movq	%r15, %rdx
	callq	memset
	leaq	-5200(%rbp,%r13), %rdi
	xorl	%esi, %esi
	movq	%r15, %rdx
	callq	memset
	leaq	-2600(%rbp,%r13), %rdi
	xorl	%esi, %esi
	movq	%r15, %rdx
	callq	memset
	xorl	%esi, %esi
	movq	%r14, %rdi
	movq	%r15, %rdx
	callq	memset
.Ltmp167:
	.loc	12 59 5 discriminator 1 # erhs.c:59:5
	addq	$20800, %rbp            # imm = 0x5140
	addl	$-8, %ebx
	jne	.LBB7_8
.Ltmp168:
.LBB7_9:                                # %for.cond25.for.inc46_crit_edge.us
                                        #   in Loop: Header=BB7_3 Depth=1
	movq	32(%rsp), %rcx          # 8-byte Reload
	.loc	12 58 24 discriminator 2 # erhs.c:58:24
	incl	%ecx
.Ltmp169:
	#DEBUG_VALUE: erhs:k <- %ECX
	.loc	12 58 3 is_stmt 0 discriminator 1 # erhs.c:58:3
	addq	$169000, 64(%rsp)       # 8-byte Folded Spill
                                        # imm = 0x29428
	addq	$169000, 8(%rsp)        # 8-byte Folded Spill
                                        # imm = 0x29428
	.loc	12 58 17 discriminator 1 # erhs.c:58:17
	movq	96(%rsp), %rax          # 8-byte Reload
	cmpl	%eax, %ecx
	jl	.LBB7_3
.Ltmp170:
# BB#10:                                # %for.cond49.preheader
	#DEBUG_VALUE: erhs:k <- %ECX
	movq	96(%rsp), %r15          # 8-byte Reload
	testl	%r15d, %r15d
	jle	.LBB7_11
.Ltmp171:
.LBB7_65:                               # %for.body51.lr.ph
	.loc	12 68 3 is_stmt 1 discriminator 1 # erhs.c:68:3
	movslq	ny(%rip), %r14
.Ltmp172:
	.loc	12 70 21 discriminator 1 # erhs.c:70:21
	testq	%r14, %r14
	setle	%al
.Ltmp173:
	.loc	12 71 31                # erhs.c:71:31
	movl	ny0(%rip), %ecx
	.loc	12 71 35 is_stmt 0      # erhs.c:71:35
	decl	%ecx
	.loc	12 71 29                # erhs.c:71:29
	cvtsi2sdl	%ecx, %xmm0
.Ltmp174:
	.loc	12 72 23 is_stmt 1 discriminator 1 # erhs.c:72:23
	movl	nx(%rip), %ecx
.Ltmp175:
	.loc	12 73 32                # erhs.c:73:32
	movl	nx0(%rip), %edx
	.loc	12 73 36 is_stmt 0      # erhs.c:73:36
	decl	%edx
	.loc	12 73 30                # erhs.c:73:30
	cvtsi2sdl	%edx, %xmm1
.Ltmp176:
	.loc	12 69 33 is_stmt 1      # erhs.c:69:33
	leal	-1(%r15), %r8d
	.loc	12 69 28 is_stmt 0      # erhs.c:69:28
	cvtsi2sdl	%r8d, %xmm2
.Ltmp177:
	.loc	12 70 5 is_stmt 1 discriminator 1 # erhs.c:70:5
	testl	%ecx, %ecx
	setle	%r9b
	orb	%al, %r9b
	movl	$rsd, %r10d
	xorl	%r11d, %r11d
	.p2align	4, 0x90
.LBB7_66:                               # %for.body51
                                        # =>This Loop Header: Depth=1
                                        #     Child Loop BB7_68 Depth 2
                                        #       Child Loop BB7_69 Depth 3
                                        #         Child Loop BB7_70 Depth 4
.Ltmp178:
	#DEBUG_VALUE: erhs:j <- 0
	testb	%r9b, %r9b
	jne	.LBB7_73
.Ltmp179:
# BB#67:                                #   in Loop: Header=BB7_66 Depth=1
	.loc	12 69 14                # erhs.c:69:14
	cvtsi2sdl	%r11d, %xmm3
	.loc	12 69 26 is_stmt 0      # erhs.c:69:26
	divsd	%xmm2, %xmm3
.Ltmp180:
	#DEBUG_VALUE: erhs:zeta <- %XMM3
	movq	%r10, %rbx
	xorl	%esi, %esi
.Ltmp181:
	.p2align	4, 0x90
.LBB7_68:                               # %for.body56.us
                                        #   Parent Loop BB7_66 Depth=1
                                        # =>  This Loop Header: Depth=2
                                        #       Child Loop BB7_69 Depth 3
                                        #         Child Loop BB7_70 Depth 4
	.loc	12 71 15 is_stmt 1      # erhs.c:71:15
	cvtsi2sdl	%esi, %xmm4
	.loc	12 71 27 is_stmt 0      # erhs.c:71:27
	divsd	%xmm0, %xmm4
.Ltmp182:
	#DEBUG_VALUE: erhs:i <- 0
	#DEBUG_VALUE: erhs:eta <- %XMM4
	movq	%rbx, %rax
	xorl	%edi, %edi
.Ltmp183:
	.p2align	4, 0x90
.LBB7_69:                               # %for.body64.us
                                        #   Parent Loop BB7_66 Depth=1
                                        #     Parent Loop BB7_68 Depth=2
                                        # =>    This Loop Header: Depth=3
                                        #         Child Loop BB7_70 Depth 4
	.loc	12 73 16 is_stmt 1      # erhs.c:73:16
	cvtsi2sdl	%edi, %xmm5
	.loc	12 73 28 is_stmt 0      # erhs.c:73:28
	divsd	%xmm1, %xmm5
.Ltmp184:
	#DEBUG_VALUE: erhs:m <- 0
	#DEBUG_VALUE: erhs:xi <- %XMM5
	movq	$-520, %rbp             # imm = 0xFFFFFFFFFFFFFDF8
	movq	%rax, %rdx
.Ltmp185:
	.p2align	4, 0x90
.LBB7_70:                               # %for.body72.us
                                        #   Parent Loop BB7_66 Depth=1
                                        #     Parent Loop BB7_68 Depth=2
                                        #       Parent Loop BB7_69 Depth=3
                                        # =>      This Inner Loop Header: Depth=4
	movsd	ce+600(%rbp), %xmm6     # xmm6 = mem[0],zero
.Ltmp186:
	.loc	12 79 26 is_stmt 1      # erhs.c:79:26
	mulsd	%xmm5, %xmm6
	.loc	12 79 13 is_stmt 0      # erhs.c:79:13
	addsd	ce+576(%rbp), %xmm6
	.loc	12 79 32                # erhs.c:79:32
	mulsd	%xmm5, %xmm6
	.loc	12 78 13 is_stmt 1      # erhs.c:78:13
	addsd	ce+552(%rbp), %xmm6
	.loc	12 79 38                # erhs.c:79:38
	mulsd	%xmm5, %xmm6
	.loc	12 77 13                # erhs.c:77:13
	addsd	ce+528(%rbp), %xmm6
	.loc	12 79 44                # erhs.c:79:44
	mulsd	%xmm5, %xmm6
	.loc	12 76 13                # erhs.c:76:13
	addsd	ce+520(%rbp), %xmm6
	movsd	ce+608(%rbp), %xmm7     # xmm7 = mem[0],zero
	.loc	12 83 26                # erhs.c:83:26
	mulsd	%xmm4, %xmm7
	.loc	12 83 13 is_stmt 0      # erhs.c:83:13
	addsd	ce+584(%rbp), %xmm7
	.loc	12 83 33                # erhs.c:83:33
	mulsd	%xmm4, %xmm7
	.loc	12 82 13 is_stmt 1      # erhs.c:82:13
	addsd	ce+560(%rbp), %xmm7
	.loc	12 83 40                # erhs.c:83:40
	mulsd	%xmm4, %xmm7
	.loc	12 81 13                # erhs.c:81:13
	addsd	ce+536(%rbp), %xmm7
	.loc	12 83 47                # erhs.c:83:47
	mulsd	%xmm4, %xmm7
	.loc	12 80 13                # erhs.c:80:13
	addsd	%xmm6, %xmm7
	movsd	ce+616(%rbp), %xmm6     # xmm6 = mem[0],zero
	.loc	12 87 26                # erhs.c:87:26
	mulsd	%xmm3, %xmm6
	.loc	12 87 13 is_stmt 0      # erhs.c:87:13
	addsd	ce+592(%rbp), %xmm6
	.loc	12 87 34                # erhs.c:87:34
	mulsd	%xmm3, %xmm6
	.loc	12 86 13 is_stmt 1      # erhs.c:86:13
	addsd	ce+568(%rbp), %xmm6
	.loc	12 87 42                # erhs.c:87:42
	mulsd	%xmm3, %xmm6
	.loc	12 85 13                # erhs.c:85:13
	addsd	ce+544(%rbp), %xmm6
	.loc	12 87 50                # erhs.c:87:50
	mulsd	%xmm3, %xmm6
	.loc	12 84 13                # erhs.c:84:13
	addsd	%xmm7, %xmm6
	.loc	12 75 27                # erhs.c:75:27
	movsd	%xmm6, (%rdx)
.Ltmp187:
	.loc	12 74 9 discriminator 1 # erhs.c:74:9
	addq	$8, %rdx
	addq	$104, %rbp
	jne	.LBB7_70
.Ltmp188:
# BB#71:                                # %for.inc145.us
                                        #   in Loop: Header=BB7_69 Depth=3
	.loc	12 72 7 discriminator 1 # erhs.c:72:7
	incq	%rdi
	addq	$40, %rax
	cmpl	%ecx, %edi
	jne	.LBB7_69
.Ltmp189:
# BB#72:                                # %for.cond61.for.inc148_crit_edge.us
                                        #   in Loop: Header=BB7_68 Depth=2
	.loc	12 70 5 discriminator 1 # erhs.c:70:5
	incq	%rsi
	addq	$2600, %rbx             # imm = 0xA28
	.loc	12 70 19 is_stmt 0 discriminator 1 # erhs.c:70:19
	cmpq	%r14, %rsi
	jl	.LBB7_68
.Ltmp190:
.LBB7_73:                               # %for.inc151
                                        #   in Loop: Header=BB7_66 Depth=1
	.loc	12 68 3 is_stmt 1 discriminator 1 # erhs.c:68:3
	incq	%r11
	addq	$169000, %r10           # imm = 0x29428
	.loc	12 68 17 is_stmt 0 discriminator 1 # erhs.c:68:17
	cmpq	%r15, %r11
	jl	.LBB7_66
	jmp	.LBB7_12
.Ltmp191:
.LBB7_11:                               # %for.cond49.preheader.for.cond154.preheader_crit_edge
	.loc	12 96 22 is_stmt 1 discriminator 1 # erhs.c:96:22
	leal	-1(%r15), %r8d
.LBB7_12:                               # %for.cond154.preheader
	.loc	12 96 3 is_stmt 0 discriminator 1 # erhs.c:96:3
	cmpl	$2, %r8d
	jl	.LBB7_31
# BB#13:                                # %for.body158.lr.ph
.Ltmp192:
	.loc	12 201 29 is_stmt 1     # erhs.c:201:29
	movslq	nx(%rip), %r13
.Ltmp193:
	.loc	12 96 3 discriminator 1 # erhs.c:96:3
	movslq	ist(%rip), %r10
.Ltmp194:
	.loc	12 175 13               # erhs.c:175:13
	movq	%r10, 24(%rsp)          # 8-byte Spill
	movsd	dssp(%rip), %xmm5       # xmm5 = mem[0],zero
.Ltmp195:
	.loc	12 185 26 discriminator 1 # erhs.c:185:26
	movapd	%xmm5, 32(%rsp)         # 16-byte Spill
	leaq	-3(%r13), %r12
.Ltmp196:
	.loc	12 198 41               # erhs.c:198:41
	leaq	-5(%r13), %rcx
	.loc	12 201 41               # erhs.c:201:41
	movq	%rcx, 256(%rsp)         # 8-byte Spill
	leaq	-2(%r13), %rdx
.Ltmp197:
	.loc	12 145 19               # erhs.c:145:19
	movsd	tx1(%rip), %xmm1        # xmm1 = mem[0],zero
	.loc	12 149 13               # erhs.c:149:13
	movsd	tx3(%rip), %xmm2        # xmm2 = mem[0],zero
	movapd	%xmm2, 400(%rsp)        # 16-byte Spill
	movsd	.LCPI7_0(%rip), %xmm3   # xmm3 = mem[0],zero
	.loc	12 149 17 is_stmt 0     # erhs.c:149:17
	mulsd	%xmm2, %xmm3
	.loc	12 145 17 is_stmt 1     # erhs.c:145:17
	movapd	%xmm3, 384(%rsp)        # 16-byte Spill
	movsd	dx1(%rip), %xmm4        # xmm4 = mem[0],zero
	movhpd	dx2(%rip), %xmm4        # xmm4 = xmm4[0],mem[0]
	movapd	%xmm1, %xmm0
	movlhps	%xmm0, %xmm0            # xmm0 = xmm0[0,0]
	mulpd	%xmm0, %xmm4
	movapd	%xmm4, 368(%rsp)        # 16-byte Spill
	.loc	12 155 17               # erhs.c:155:17
	movsd	dx3(%rip), %xmm4        # xmm4 = mem[0],zero
	movhpd	dx4(%rip), %xmm4        # xmm4 = xmm4[0],mem[0]
	mulpd	%xmm0, %xmm4
	movapd	%xmm4, 352(%rsp)        # 16-byte Spill
	.loc	12 165 17               # erhs.c:165:17
	mulsd	dx5(%rip), %xmm1
	movapd	%xmm1, 416(%rsp)        # 16-byte Spill
	movsd	.LCPI7_1(%rip), %xmm0   # xmm0 = mem[0],zero
.Ltmp198:
	.loc	12 132 32               # erhs.c:132:32
	mulsd	%xmm2, %xmm0
	movsd	.LCPI7_2(%rip), %xmm1   # xmm1 = mem[0],zero
	.loc	12 136 11               # erhs.c:136:11
	mulsd	%xmm2, %xmm1
	movsd	%xmm1, 56(%rsp)         # 8-byte Spill
	movsd	.LCPI7_3(%rip), %xmm1   # xmm1 = mem[0],zero
	.loc	12 139 11               # erhs.c:139:11
	mulsd	%xmm2, %xmm1
	movsd	%xmm1, 48(%rsp)         # 8-byte Spill
	movsd	.LCPI7_4(%rip), %xmm1   # xmm1 = mem[0],zero
	.loc	12 140 21               # erhs.c:140:21
	mulsd	%xmm2, %xmm1
	movsd	%xmm1, 320(%rsp)        # 8-byte Spill
.Ltmp199:
	.loc	12 114 23               # erhs.c:114:23
	movsd	tx2(%rip), %xmm10       # xmm10 = mem[0],zero
.Ltmp200:
	.loc	12 96 3 discriminator 1 # erhs.c:96:3
	movapd	%xmm10, 304(%rsp)       # 16-byte Spill
	movslq	jst(%rip), %rsi
	movq	%rsi, 168(%rsp)         # 8-byte Spill
	movslq	%r8d, %rcx
.Ltmp201:
	.loc	12 149 46               # erhs.c:149:46
	movq	%rcx, 160(%rsp)         # 8-byte Spill
	leaq	(,%r10,8), %rcx
	leaq	flux+8(%rcx,%rcx,4), %rdi
	movq	%rdi, 232(%rsp)         # 8-byte Spill
	leaq	(%rcx,%rcx,4), %rbx
	.loc	12 154 46               # erhs.c:154:46
	leaq	flux+16(%rcx,%rcx,4), %rdi
	.loc	12 164 46               # erhs.c:164:46
	movq	%rdi, 224(%rsp)         # 8-byte Spill
	leaq	flux+32(%rcx,%rcx,4), %rdi
.Ltmp202:
	.loc	12 114 27               # erhs.c:114:27
	movq	%rdi, 216(%rsp)         # 8-byte Spill
	movapd	%xmm10, %xmm11
	movlhps	%xmm11, %xmm11          # xmm11 = xmm11[0,0]
.Ltmp203:
	.loc	12 132 38               # erhs.c:132:38
	movaps	%xmm11, 288(%rsp)       # 16-byte Spill
	unpcklpd	%xmm2, %xmm0    # xmm0 = xmm0[0],xmm2[0]
	movapd	%xmm0, 336(%rsp)        # 16-byte Spill
.Ltmp204:
	.loc	12 154 27               # erhs.c:154:27
	movlhps	%xmm3, %xmm3            # xmm3 = xmm3[0,0]
	movaps	%xmm3, 272(%rsp)        # 16-byte Spill
.Ltmp205:
	.loc	12 188 20               # erhs.c:188:20
	movapd	%xmm5, %xmm0
	movlhps	%xmm0, %xmm0            # xmm0 = xmm0[0,0]
.Ltmp206:
	.loc	12 96 3 discriminator 1 # erhs.c:96:3
	movaps	%xmm0, 448(%rsp)        # 16-byte Spill
	imulq	$2600, %rsi, %r14       # imm = 0xA28
	leaq	flux+72(%rcx,%rcx,4), %rdi
	movq	%rdi, 248(%rsp)         # 8-byte Spill
	leaq	flux+48(%rcx,%rcx,4), %rcx
	movq	%rcx, 208(%rsp)         # 8-byte Spill
	leal	-1(%r10), %ecx
	movslq	%ecx, %rcx
	leaq	(%rcx,%rcx,4), %rcx
	leaq	rsd+169032(%r14,%rcx,8), %rbp
	movsd	.LCPI7_5(%rip), %xmm8   # xmm8 = mem[0],zero
.Ltmp207:
	.loc	12 105 49               # erhs.c:105:49
	movsd	.LCPI7_6(%rip), %xmm9   # xmm9 = mem[0],zero
.Ltmp208:
	.loc	12 201 29               # erhs.c:201:29
	shlq	$3, %rdx
	movq	%rdx, 432(%rsp)         # 8-byte Spill
	.loc	12 199 41               # erhs.c:199:41
	leaq	-4(%r13), %rcx
.Ltmp209:
	.loc	12 96 3 discriminator 1 # erhs.c:96:3
	movq	%rcx, 240(%rsp)         # 8-byte Spill
	movslq	iend(%rip), %r9
	movslq	jend(%rip), %rcx
	movq	%rcx, 16(%rsp)          # 8-byte Spill
	leaq	rsd+169032(%r14), %rdi
	leaq	frct+169032(%r14,%rbx), %rcx
	movl	$1, %edx
	movq	%rdx, 80(%rsp)          # 8-byte Spill
	xorl	%esi, %esi
	leaq	(%r14,%rbx), %r11
	movsd	.LCPI7_7(%rip), %xmm12  # xmm12 = mem[0],zero
	.p2align	4, 0x90
.LBB7_14:                               # %for.body158
                                        # =>This Loop Header: Depth=1
                                        #     Child Loop BB7_15 Depth 2
                                        #       Child Loop BB7_16 Depth 3
                                        #       Child Loop BB7_18 Depth 3
                                        #       Child Loop BB7_21 Depth 3
                                        #       Child Loop BB7_24 Depth 3
                                        #       Child Loop BB7_27 Depth 3
	movq	%rsi, 176(%rsp)         # 8-byte Spill
	movq	%rcx, 184(%rsp)         # 8-byte Spill
	movq	%rdi, 192(%rsp)         # 8-byte Spill
	movq	%r14, 200(%rsp)         # 8-byte Spill
	movq	168(%rsp), %r8          # 8-byte Reload
.Ltmp210:
	.loc	12 97 5 discriminator 1 # erhs.c:97:5
	movq	16(%rsp), %rdx          # 8-byte Reload
	cmpl	%edx, %r8d
	movq	%r14, (%rsp)            # 8-byte Spill
	movq	%rsi, %r15
	movq	%r8, %r14
	movq	%rdi, %rax
	movq	%rcx, %r8
	jge	.LBB7_29
	.p2align	4, 0x90
.LBB7_15:                               # %for.cond163.preheader
                                        #   Parent Loop BB7_14 Depth=1
                                        # =>  This Loop Header: Depth=2
                                        #       Child Loop BB7_16 Depth 3
                                        #       Child Loop BB7_18 Depth 3
                                        #       Child Loop BB7_21 Depth 3
                                        #       Child Loop BB7_24 Depth 3
                                        #       Child Loop BB7_27 Depth 3
.Ltmp211:
	.loc	12 98 7 discriminator 1 # erhs.c:98:7
	testl	%r13d, %r13d
	movq	%rax, %rcx
	movl	$flux+32, %esi
	movl	$0, %edi
	jle	.LBB7_17
	.p2align	4, 0x90
.LBB7_16:                               # %for.body166
                                        #   Parent Loop BB7_14 Depth=1
                                        #     Parent Loop BB7_15 Depth=2
                                        # =>    This Inner Loop Header: Depth=3
.Ltmp212:
	.loc	12 99 22                # erhs.c:99:22
	movq	-24(%rcx), %rdx
	.loc	12 100 15               # erhs.c:100:15
	movd	%rdx, %xmm2
	.loc	12 100 33 is_stmt 0     # erhs.c:100:33
	movsd	-32(%rcx), %xmm3        # xmm3 = mem[0],zero
	.loc	12 99 20 is_stmt 1      # erhs.c:99:20
	movq	%rdx, -32(%rsi)
	.loc	12 105 53               # erhs.c:105:53
	movsd	(%rcx), %xmm0           # xmm0 = mem[0],zero
	.loc	12 100 31               # erhs.c:100:31
	movapd	%xmm2, %xmm1
	divsd	%xmm3, %xmm1
.Ltmp213:
	#DEBUG_VALUE: erhs:u21 <- %XMM1
	.loc	12 101 39               # erhs.c:101:39
	movapd	%xmm2, %xmm4
	.loc	12 102 23               # erhs.c:102:23
	movupd	-16(%rcx), %xmm5
	.loc	12 103 39               # erhs.c:103:39
	movapd	%xmm5, %xmm6
	.loc	12 101 39               # erhs.c:101:39
	mulsd	%xmm4, %xmm4
	.loc	12 106 38               # erhs.c:106:38
	movapd	%xmm1, %xmm7
	movlhps	%xmm7, %xmm7            # xmm7 = xmm7[0,0]
	mulpd	%xmm5, %xmm7
	.loc	12 102 39               # erhs.c:102:39
	mulsd	%xmm5, %xmm5
	.loc	12 102 21 is_stmt 0     # erhs.c:102:21
	addsd	%xmm4, %xmm5
	.loc	12 103 39 is_stmt 1     # erhs.c:103:39
	shufpd	$1, %xmm6, %xmm6        # xmm6 = xmm6[1,0]
	mulsd	%xmm6, %xmm6
	.loc	12 103 21 is_stmt 0     # erhs.c:103:21
	addsd	%xmm5, %xmm6
	.loc	12 101 18 is_stmt 1     # erhs.c:101:18
	mulsd	%xmm8, %xmm6
	.loc	12 104 18               # erhs.c:104:18
	divsd	%xmm3, %xmm6
.Ltmp214:
	#DEBUG_VALUE: erhs:q <- %XMM6
	.loc	12 105 38               # erhs.c:105:38
	mulsd	%xmm1, %xmm2
	.loc	12 105 69 is_stmt 0     # erhs.c:105:69
	movapd	%xmm0, %xmm3
	subsd	%xmm6, %xmm3
	.loc	12 105 49               # erhs.c:105:49
	mulsd	%xmm9, %xmm3
	.loc	12 105 44               # erhs.c:105:44
	addsd	%xmm2, %xmm3
	.loc	12 105 20               # erhs.c:105:20
	movsd	%xmm3, -24(%rsi)
	.loc	12 108 27 is_stmt 1     # erhs.c:108:27
	mulsd	%xmm12, %xmm0
	.loc	12 106 20               # erhs.c:106:20
	movupd	%xmm7, -16(%rsi)
	.loc	12 108 50               # erhs.c:108:50
	mulsd	%xmm9, %xmm6
.Ltmp215:
	.loc	12 108 45 is_stmt 0     # erhs.c:108:45
	subsd	%xmm6, %xmm0
	.loc	12 108 56               # erhs.c:108:56
	mulsd	%xmm1, %xmm0
	.loc	12 108 20               # erhs.c:108:20
	movsd	%xmm0, (%rsi)
.Ltmp216:
	.loc	12 98 7 is_stmt 1 discriminator 1 # erhs.c:98:7
	incq	%rdi
	.loc	12 98 21 is_stmt 0 discriminator 1 # erhs.c:98:21
	addq	$40, %rsi
	addq	$40, %rcx
	cmpq	%r13, %rdi
	.loc	12 98 7 discriminator 1 # erhs.c:98:7
	jl	.LBB7_16
.Ltmp217:
.LBB7_17:                               # %for.end307
                                        #   in Loop: Header=BB7_15 Depth=2
	.loc	12 111 7 is_stmt 1 discriminator 1 # erhs.c:111:7
	cmpl	%r9d, %r10d
	movq	248(%rsp), %rcx         # 8-byte Reload
	movq	%r8, %rsi
	movq	%r10, %rdi
	movapd	400(%rsp), %xmm8        # 16-byte Reload
	movapd	336(%rsp), %xmm9        # 16-byte Reload
	movsd	56(%rsp), %xmm15        # 8-byte Reload
                                        # xmm15 = mem[0],zero
	movsd	48(%rsp), %xmm3         # 8-byte Reload
                                        # xmm3 = mem[0],zero
	jge	.LBB7_19
	.p2align	4, 0x90
.LBB7_18:                               # %for.cond312.preheader
                                        #   Parent Loop BB7_14 Depth=1
                                        #     Parent Loop BB7_15 Depth=2
                                        # =>    This Inner Loop Header: Depth=3
	incq	%rdi
.Ltmp218:
	.loc	12 113 31               # erhs.c:113:31
	movupd	-32(%rsi), %xmm0
	.loc	12 114 31               # erhs.c:114:31
	movupd	-32(%rcx), %xmm1
	.loc	12 114 46 is_stmt 0     # erhs.c:114:46
	movupd	-112(%rcx), %xmm2
	.loc	12 114 44               # erhs.c:114:44
	subpd	%xmm2, %xmm1
	.loc	12 114 27               # erhs.c:114:27
	mulpd	%xmm11, %xmm1
	.loc	12 114 21               # erhs.c:114:21
	subpd	%xmm1, %xmm0
	.loc	12 113 28 is_stmt 1     # erhs.c:113:28
	movupd	%xmm0, -32(%rsi)
	.loc	12 113 31 is_stmt 0     # erhs.c:113:31
	movupd	-16(%rsi), %xmm0
	.loc	12 114 31 is_stmt 1     # erhs.c:114:31
	movupd	-16(%rcx), %xmm1
	.loc	12 114 46 is_stmt 0     # erhs.c:114:46
	movupd	-96(%rcx), %xmm2
	.loc	12 114 44               # erhs.c:114:44
	subpd	%xmm2, %xmm1
	.loc	12 114 27               # erhs.c:114:27
	mulpd	%xmm11, %xmm1
	.loc	12 114 21               # erhs.c:114:21
	subpd	%xmm1, %xmm0
	.loc	12 113 28 is_stmt 1     # erhs.c:113:28
	movupd	%xmm0, -16(%rsi)
	.loc	12 113 31 is_stmt 0     # erhs.c:113:31
	movsd	(%rsi), %xmm0           # xmm0 = mem[0],zero
	.loc	12 114 31 is_stmt 1     # erhs.c:114:31
	movsd	(%rcx), %xmm1           # xmm1 = mem[0],zero
	.loc	12 114 44 is_stmt 0     # erhs.c:114:44
	subsd	-80(%rcx), %xmm1
	.loc	12 114 27               # erhs.c:114:27
	mulsd	%xmm10, %xmm1
	.loc	12 114 21               # erhs.c:114:21
	subsd	%xmm1, %xmm0
	.loc	12 113 28 is_stmt 1     # erhs.c:113:28
	movsd	%xmm0, (%rsi)
.Ltmp219:
	.loc	12 111 23 discriminator 1 # erhs.c:111:23
	addq	$40, %rsi
	addq	$40, %rcx
	cmpq	%r9, %rdi
	.loc	12 111 7 is_stmt 0 discriminator 1 # erhs.c:111:7
	jl	.LBB7_18
.Ltmp220:
.LBB7_19:                               # %for.end350
                                        #   in Loop: Header=BB7_15 Depth=2
	.loc	12 117 7 is_stmt 1 discriminator 1 # erhs.c:117:7
	cmpl	%r13d, %r10d
	movapd	384(%rsp), %xmm11       # 16-byte Reload
	movapd	368(%rsp), %xmm12       # 16-byte Reload
	movapd	352(%rsp), %xmm13       # 16-byte Reload
	movsd	320(%rsp), %xmm14       # 8-byte Reload
                                        # xmm14 = mem[0],zero
.Ltmp221:
	.loc	12 118 19               # erhs.c:118:19
	movsd	.LCPI7_8(%rip), %xmm7   # xmm7 = mem[0],zero
	jge	.LBB7_22
# BB#20:                                # %for.body354.preheader
                                        #   in Loop: Header=BB7_15 Depth=2
	.loc	12 118 21 is_stmt 0     # erhs.c:118:21
	leaq	(%rax,%rbx), %rcx
	xorl	%esi, %esi
	movq	%r10, %rdi
	.p2align	4, 0x90
.LBB7_21:                               # %for.body354
                                        #   Parent Loop BB7_14 Depth=1
                                        #     Parent Loop BB7_15 Depth=2
                                        # =>    This Inner Loop Header: Depth=3
	.loc	12 118 19               # erhs.c:118:19
	movapd	%xmm7, %xmm0
	divsd	-32(%rcx,%rsi), %xmm0
.Ltmp222:
	#DEBUG_VALUE: erhs:tmp <- %XMM0
	.loc	12 120 22 is_stmt 1     # erhs.c:120:22
	movupd	-24(%rcx,%rsi), %xmm1
	movapd	%xmm3, %xmm10
	.loc	12 120 20 is_stmt 0     # erhs.c:120:20
	movapd	%xmm0, %xmm3
	movlhps	%xmm3, %xmm3            # xmm3 = xmm3[0,0]
	mulpd	%xmm1, %xmm3
	movsd	-8(%rcx,%rsi), %xmm1    # xmm1 = mem[0],zero
	.loc	12 122 20 is_stmt 1     # erhs.c:122:20
	mulsd	%xmm0, %xmm1
.Ltmp223:
	#DEBUG_VALUE: erhs:u41i <- %XMM1
	.loc	12 123 20               # erhs.c:123:20
	mulsd	(%rcx,%rsi), %xmm0
.Ltmp224:
	#DEBUG_VALUE: erhs:u51i <- %XMM0
	.loc	12 125 19               # erhs.c:125:19
	movapd	%xmm7, %xmm2
	divsd	-72(%rcx,%rsi), %xmm2
.Ltmp225:
	#DEBUG_VALUE: erhs:tmp <- %XMM2
	.loc	12 127 24               # erhs.c:127:24
	movupd	-64(%rcx,%rsi), %xmm5
	.loc	12 127 22 is_stmt 0     # erhs.c:127:22
	movapd	%xmm2, %xmm4
	movlhps	%xmm4, %xmm4            # xmm4 = xmm4[0,0]
	mulpd	%xmm5, %xmm4
	movsd	-48(%rcx,%rsi), %xmm5   # xmm5 = mem[0],zero
	.loc	12 129 22 is_stmt 1     # erhs.c:129:22
	mulsd	%xmm2, %xmm5
.Ltmp226:
	#DEBUG_VALUE: erhs:u41im1 <- %XMM5
	.loc	12 130 22               # erhs.c:130:22
	mulsd	-40(%rcx,%rsi), %xmm2
.Ltmp227:
	#DEBUG_VALUE: erhs:u51im1 <- %XMM2
	.loc	12 132 47               # erhs.c:132:47
	movapd	%xmm3, %xmm6
	subpd	%xmm4, %xmm6
	.loc	12 132 38 is_stmt 0     # erhs.c:132:38
	mulpd	%xmm9, %xmm6
	.loc	12 132 20               # erhs.c:132:20
	movupd	%xmm6, flux+8(%rbx,%rsi)
	.loc	12 134 35 is_stmt 1     # erhs.c:134:35
	movapd	%xmm1, %xmm6
	subsd	%xmm5, %xmm6
	.loc	12 134 26 is_stmt 0     # erhs.c:134:26
	mulsd	%xmm8, %xmm6
	.loc	12 134 20               # erhs.c:134:20
	movsd	%xmm6, flux+24(%rbx,%rsi)
	.loc	12 136 27 is_stmt 1     # erhs.c:136:27
	movapd	%xmm3, %xmm6
	mulsd	%xmm6, %xmm6
	.loc	12 136 43 is_stmt 0     # erhs.c:136:43
	shufpd	$1, %xmm3, %xmm3        # xmm3 = xmm3[1,0]
	mulsd	%xmm3, %xmm3
	.loc	12 136 37               # erhs.c:136:37
	addsd	%xmm6, %xmm3
	.loc	12 136 59               # erhs.c:136:59
	mulsd	%xmm1, %xmm1
.Ltmp228:
	.loc	12 136 53               # erhs.c:136:53
	addsd	%xmm3, %xmm1
	.loc	12 137 29 is_stmt 1     # erhs.c:137:29
	movapd	%xmm4, %xmm3
	mulsd	%xmm3, %xmm3
	.loc	12 137 45 is_stmt 0     # erhs.c:137:45
	shufpd	$1, %xmm4, %xmm4        # xmm4 = xmm4[1,0]
	mulsd	%xmm4, %xmm4
	.loc	12 137 37               # erhs.c:137:37
	addsd	%xmm3, %xmm4
	.loc	12 137 61               # erhs.c:137:61
	mulsd	%xmm5, %xmm5
.Ltmp229:
	.loc	12 137 53               # erhs.c:137:53
	addsd	%xmm4, %xmm5
	.loc	12 137 19               # erhs.c:137:19
	subsd	%xmm5, %xmm1
	.loc	12 136 17 is_stmt 1     # erhs.c:136:17
	mulsd	%xmm15, %xmm1
	.loc	12 139 31               # erhs.c:139:31
	subsd	%xmm3, %xmm6
	movapd	%xmm10, %xmm3
	.loc	12 139 17 is_stmt 0     # erhs.c:139:17
	mulsd	%xmm3, %xmm6
	.loc	12 138 11 is_stmt 1     # erhs.c:138:11
	addsd	%xmm1, %xmm6
	.loc	12 140 36               # erhs.c:140:36
	subsd	%xmm2, %xmm0
.Ltmp230:
	.loc	12 140 27 is_stmt 0     # erhs.c:140:27
	mulsd	%xmm14, %xmm0
	.loc	12 140 11               # erhs.c:140:11
	addsd	%xmm6, %xmm0
	.loc	12 135 20 is_stmt 1     # erhs.c:135:20
	movsd	%xmm0, flux+32(%rbx,%rsi)
.Ltmp231:
	.loc	12 117 7 discriminator 1 # erhs.c:117:7
	incq	%rdi
	.loc	12 117 23 is_stmt 0 discriminator 1 # erhs.c:117:23
	addq	$40, %rsi
	cmpq	%r13, %rdi
	.loc	12 117 7 discriminator 1 # erhs.c:117:7
	jl	.LBB7_21
.Ltmp232:
.LBB7_22:                               # %for.end484
                                        #   in Loop: Header=BB7_15 Depth=2
	movq	%rax, 96(%rsp)          # 8-byte Spill
	movq	%r8, 8(%rsp)            # 8-byte Spill
.Ltmp233:
	.loc	12 143 7 is_stmt 1 discriminator 1 # erhs.c:143:7
	cmpl	%r9d, %r10d
	movapd	272(%rsp), %xmm9        # 16-byte Reload
	movapd	416(%rsp), %xmm10       # 16-byte Reload
	jge	.LBB7_25
# BB#23:                                # %for.body488.lr.ph
                                        #   in Loop: Header=BB7_15 Depth=2
.Ltmp234:
	.loc	12 146 34               # erhs.c:146:34
	imulq	$2600, %r14, %rcx       # imm = 0xA28
	imulq	$169000, 80(%rsp), %rdx # 8-byte Folded Reload
                                        # imm = 0x29428
	addq	%rcx, %rdx
	leaq	(%r10,%r10,4), %rcx
	.loc	12 149 46               # erhs.c:149:46
	movq	232(%rsp), %rsi         # 8-byte Reload
	movsd	(%rsi), %xmm7           # xmm7 = mem[0],zero
	.loc	12 146 34               # erhs.c:146:34
	movupd	rsd(%rdx,%rcx,8), %xmm2
	.loc	12 154 46               # erhs.c:154:46
	movq	224(%rsp), %rsi         # 8-byte Reload
	movupd	(%rsi), %xmm5
	.loc	12 156 34               # erhs.c:156:34
	movupd	rsd+16(%rdx,%rcx,8), %xmm3
	.loc	12 164 46               # erhs.c:164:46
	movq	216(%rsp), %rsi         # 8-byte Reload
	movsd	(%rsi), %xmm0           # xmm0 = mem[0],zero
	.loc	12 166 34               # erhs.c:166:34
	movsd	rsd+32(%rdx,%rcx,8), %xmm4 # xmm4 = mem[0],zero
	movq	208(%rsp), %rcx         # 8-byte Reload
	movq	%r15, %rdi
	movq	%r10, %rsi
.Ltmp235:
	.p2align	4, 0x90
.LBB7_24:                               # %for.body488
                                        #   Parent Loop BB7_14 Depth=1
                                        #     Parent Loop BB7_15 Depth=2
                                        # =>    This Inner Loop Header: Depth=3
	.loc	12 143 7 discriminator 1 # erhs.c:143:7
	incq	%rsi
.Ltmp236:
	.loc	12 149 31               # erhs.c:149:31
	movsd	(%rcx), %xmm8           # xmm8 = mem[0],zero
	.loc	12 149 44 is_stmt 0     # erhs.c:149:44
	movapd	%xmm8, %xmm6
	subsd	%xmm7, %xmm6
	.loc	12 149 27               # erhs.c:149:27
	mulsd	%xmm11, %xmm6
	.loc	12 149 11               # erhs.c:149:11
	addsd	frct+169008(%r11,%rdi), %xmm6
	.loc	12 145 34 is_stmt 1     # erhs.c:145:34
	movupd	-32(%rbp,%rdi), %xmm7
	.loc	12 146 32               # erhs.c:146:32
	addpd	%xmm2, %xmm2
	.loc	12 146 26 is_stmt 0     # erhs.c:146:26
	subpd	%xmm2, %xmm7
	.loc	12 147 34 is_stmt 1     # erhs.c:147:34
	movupd	rsd+169040(%r11,%rdi), %xmm2
	.loc	12 147 26 is_stmt 0     # erhs.c:147:26
	addpd	%xmm2, %xmm7
	.loc	12 145 23 is_stmt 1     # erhs.c:145:23
	mulpd	%xmm12, %xmm7
	.loc	12 145 11 is_stmt 0     # erhs.c:145:11
	movsd	frct+169000(%r11,%rdi), %xmm1 # xmm1 = mem[0],zero
	unpcklpd	%xmm6, %xmm1    # xmm1 = xmm1[0],xmm6[0]
	addpd	%xmm7, %xmm1
	.loc	12 144 26 is_stmt 1     # erhs.c:144:26
	movupd	%xmm1, frct+169000(%r11,%rdi)
	.loc	12 153 28               # erhs.c:153:28
	movupd	frct+169016(%r11,%rdi), %xmm1
	.loc	12 154 31               # erhs.c:154:31
	movupd	8(%rcx), %xmm6
	.loc	12 154 44 is_stmt 0     # erhs.c:154:44
	movapd	%xmm6, %xmm7
	subpd	%xmm5, %xmm7
	.loc	12 154 27               # erhs.c:154:27
	mulpd	%xmm9, %xmm7
	.loc	12 154 11               # erhs.c:154:11
	addpd	%xmm1, %xmm7
	.loc	12 155 34 is_stmt 1     # erhs.c:155:34
	movupd	-16(%rbp,%rdi), %xmm1
	.loc	12 156 32               # erhs.c:156:32
	addpd	%xmm3, %xmm3
	.loc	12 156 26 is_stmt 0     # erhs.c:156:26
	subpd	%xmm3, %xmm1
	.loc	12 157 34 is_stmt 1     # erhs.c:157:34
	movupd	rsd+169056(%r11,%rdi), %xmm3
	.loc	12 157 26 is_stmt 0     # erhs.c:157:26
	addpd	%xmm3, %xmm1
	.loc	12 155 23 is_stmt 1     # erhs.c:155:23
	mulpd	%xmm13, %xmm1
	.loc	12 155 11 is_stmt 0     # erhs.c:155:11
	addpd	%xmm7, %xmm1
	.loc	12 153 26 is_stmt 1     # erhs.c:153:26
	movupd	%xmm1, frct+169016(%r11,%rdi)
	.loc	12 164 31               # erhs.c:164:31
	movsd	24(%rcx), %xmm1         # xmm1 = mem[0],zero
	.loc	12 164 44 is_stmt 0     # erhs.c:164:44
	movapd	%xmm1, %xmm5
	subsd	%xmm0, %xmm5
	.loc	12 164 27               # erhs.c:164:27
	mulsd	%xmm11, %xmm5
	.loc	12 164 11               # erhs.c:164:11
	addsd	frct+169032(%r11,%rdi), %xmm5
	.loc	12 165 34 is_stmt 1     # erhs.c:165:34
	movsd	(%rbp,%rdi), %xmm0      # xmm0 = mem[0],zero
	.loc	12 166 32               # erhs.c:166:32
	addsd	%xmm4, %xmm4
	.loc	12 166 26 is_stmt 0     # erhs.c:166:26
	subsd	%xmm4, %xmm0
	.loc	12 167 34 is_stmt 1     # erhs.c:167:34
	movsd	rsd+169072(%r11,%rdi), %xmm4 # xmm4 = mem[0],zero
	.loc	12 167 26 is_stmt 0     # erhs.c:167:26
	addsd	%xmm4, %xmm0
	.loc	12 165 23 is_stmt 1     # erhs.c:165:23
	mulsd	%xmm10, %xmm0
	.loc	12 165 11 is_stmt 0     # erhs.c:165:11
	addsd	%xmm5, %xmm0
	.loc	12 163 26 is_stmt 1     # erhs.c:163:26
	movsd	%xmm0, frct+169032(%r11,%rdi)
.Ltmp237:
	.loc	12 143 23 discriminator 1 # erhs.c:143:23
	addq	$40, %rdi
	addq	$40, %rcx
	cmpq	%r9, %rsi
.Ltmp238:
	.loc	12 164 46               # erhs.c:164:46
	movapd	%xmm1, %xmm0
	.loc	12 149 46               # erhs.c:149:46
	movapd	%xmm8, %xmm7
	.loc	12 154 46               # erhs.c:154:46
	movapd	%xmm6, %xmm5
	jl	.LBB7_24
.Ltmp239:
.LBB7_25:                               # %for.body758
                                        #   in Loop: Header=BB7_15 Depth=2
	movq	%r15, 64(%rsp)          # 8-byte Spill
.Ltmp240:
	.loc	12 174 28               # erhs.c:174:28
	imulq	$169000, 80(%rsp), %r8  # 8-byte Folded Reload
                                        # imm = 0x29428
	imulq	$2600, %r14, %r15       # imm = 0xA28
	cmpl	$3, %r12d
	movsd	frct+40(%r8,%r15), %xmm0 # xmm0 = mem[0],zero
	.loc	12 175 30               # erhs.c:175:30
	movsd	rsd+40(%r8,%r15), %xmm1 # xmm1 = mem[0],zero
	.loc	12 175 28 is_stmt 0     # erhs.c:175:28
	movapd	%xmm1, %xmm2
	movsd	.LCPI7_9(%rip), %xmm6   # xmm6 = mem[0],zero
	mulsd	%xmm6, %xmm2
	.loc	12 176 30 is_stmt 1     # erhs.c:176:30
	movsd	rsd+80(%r8,%r15), %xmm3 # xmm3 = mem[0],zero
	.loc	12 176 28 is_stmt 0     # erhs.c:176:28
	movapd	%xmm3, %xmm4
	movsd	.LCPI7_10(%rip), %xmm5  # xmm5 = mem[0],zero
	movapd	%xmm5, %xmm7
	mulsd	%xmm7, %xmm4
	.loc	12 176 22               # erhs.c:176:22
	subsd	%xmm4, %xmm2
	.loc	12 177 30 is_stmt 1     # erhs.c:177:30
	movsd	rsd+120(%r8,%r15), %xmm4 # xmm4 = mem[0],zero
	.loc	12 177 22 is_stmt 0     # erhs.c:177:22
	addsd	%xmm4, %xmm2
	movapd	32(%rsp), %xmm5         # 16-byte Reload
	.loc	12 175 18 is_stmt 1     # erhs.c:175:18
	mulsd	%xmm5, %xmm2
	.loc	12 175 11 is_stmt 0     # erhs.c:175:11
	subsd	%xmm2, %xmm0
	.loc	12 174 26 is_stmt 1     # erhs.c:174:26
	movsd	%xmm0, frct+40(%r8,%r15)
	.loc	12 178 28               # erhs.c:178:28
	movsd	frct+80(%r8,%r15), %xmm0 # xmm0 = mem[0],zero
	.loc	12 179 28               # erhs.c:179:28
	mulsd	%xmm7, %xmm1
	.loc	12 180 28               # erhs.c:180:28
	movsd	.LCPI7_11(%rip), %xmm2  # xmm2 = mem[0],zero
	movapd	%xmm2, %xmm8
	mulsd	%xmm8, %xmm3
	.loc	12 179 28               # erhs.c:179:28
	subsd	%xmm1, %xmm3
	.loc	12 181 28               # erhs.c:181:28
	mulsd	%xmm7, %xmm4
	.loc	12 181 22 is_stmt 0     # erhs.c:181:22
	subsd	%xmm4, %xmm3
	.loc	12 182 22 is_stmt 1     # erhs.c:182:22
	addsd	rsd+160(%r8,%r15), %xmm3
	.loc	12 179 18               # erhs.c:179:18
	mulsd	%xmm5, %xmm3
	.loc	12 179 11 is_stmt 0     # erhs.c:179:11
	subsd	%xmm3, %xmm0
	.loc	12 178 26 is_stmt 1     # erhs.c:178:26
	movsd	%xmm0, frct+80(%r8,%r15)
	.loc	12 174 28               # erhs.c:174:28
	movsd	frct+48(%r8,%r15), %xmm0 # xmm0 = mem[0],zero
	.loc	12 175 30               # erhs.c:175:30
	movsd	rsd+48(%r8,%r15), %xmm1 # xmm1 = mem[0],zero
	.loc	12 175 28 is_stmt 0     # erhs.c:175:28
	movapd	%xmm1, %xmm2
	mulsd	%xmm6, %xmm2
	.loc	12 176 30 is_stmt 1     # erhs.c:176:30
	movsd	rsd+88(%r8,%r15), %xmm3 # xmm3 = mem[0],zero
	.loc	12 176 28 is_stmt 0     # erhs.c:176:28
	movapd	%xmm3, %xmm4
	mulsd	%xmm7, %xmm4
	.loc	12 176 22               # erhs.c:176:22
	subsd	%xmm4, %xmm2
	.loc	12 177 30 is_stmt 1     # erhs.c:177:30
	movsd	rsd+128(%r8,%r15), %xmm4 # xmm4 = mem[0],zero
	.loc	12 177 22 is_stmt 0     # erhs.c:177:22
	addsd	%xmm4, %xmm2
	.loc	12 175 18 is_stmt 1     # erhs.c:175:18
	mulsd	%xmm5, %xmm2
	.loc	12 175 11 is_stmt 0     # erhs.c:175:11
	subsd	%xmm2, %xmm0
	.loc	12 174 26 is_stmt 1     # erhs.c:174:26
	movsd	%xmm0, frct+48(%r8,%r15)
	.loc	12 178 28               # erhs.c:178:28
	movsd	frct+88(%r8,%r15), %xmm0 # xmm0 = mem[0],zero
	.loc	12 179 28               # erhs.c:179:28
	mulsd	%xmm7, %xmm1
	.loc	12 180 28               # erhs.c:180:28
	mulsd	%xmm8, %xmm3
	.loc	12 179 28               # erhs.c:179:28
	subsd	%xmm1, %xmm3
	.loc	12 181 28               # erhs.c:181:28
	mulsd	%xmm7, %xmm4
	.loc	12 181 22 is_stmt 0     # erhs.c:181:22
	subsd	%xmm4, %xmm3
	.loc	12 182 22 is_stmt 1     # erhs.c:182:22
	addsd	rsd+168(%r8,%r15), %xmm3
	.loc	12 179 18               # erhs.c:179:18
	mulsd	%xmm5, %xmm3
	.loc	12 179 11 is_stmt 0     # erhs.c:179:11
	subsd	%xmm3, %xmm0
	.loc	12 178 26 is_stmt 1     # erhs.c:178:26
	movsd	%xmm0, frct+88(%r8,%r15)
	.loc	12 174 28               # erhs.c:174:28
	movsd	frct+56(%r8,%r15), %xmm0 # xmm0 = mem[0],zero
	.loc	12 175 30               # erhs.c:175:30
	movsd	rsd+56(%r8,%r15), %xmm1 # xmm1 = mem[0],zero
	.loc	12 175 28 is_stmt 0     # erhs.c:175:28
	movapd	%xmm1, %xmm2
	mulsd	%xmm6, %xmm2
	.loc	12 176 30 is_stmt 1     # erhs.c:176:30
	movsd	rsd+96(%r8,%r15), %xmm3 # xmm3 = mem[0],zero
	.loc	12 176 28 is_stmt 0     # erhs.c:176:28
	movapd	%xmm3, %xmm4
	mulsd	%xmm7, %xmm4
	.loc	12 176 22               # erhs.c:176:22
	subsd	%xmm4, %xmm2
	.loc	12 177 30 is_stmt 1     # erhs.c:177:30
	movsd	rsd+136(%r8,%r15), %xmm4 # xmm4 = mem[0],zero
	.loc	12 177 22 is_stmt 0     # erhs.c:177:22
	addsd	%xmm4, %xmm2
	.loc	12 175 18 is_stmt 1     # erhs.c:175:18
	mulsd	%xmm5, %xmm2
	.loc	12 175 11 is_stmt 0     # erhs.c:175:11
	subsd	%xmm2, %xmm0
	.loc	12 174 26 is_stmt 1     # erhs.c:174:26
	movsd	%xmm0, frct+56(%r8,%r15)
	.loc	12 178 28               # erhs.c:178:28
	movsd	frct+96(%r8,%r15), %xmm0 # xmm0 = mem[0],zero
	.loc	12 179 28               # erhs.c:179:28
	mulsd	%xmm7, %xmm1
	.loc	12 180 28               # erhs.c:180:28
	mulsd	%xmm8, %xmm3
	.loc	12 179 28               # erhs.c:179:28
	subsd	%xmm1, %xmm3
	.loc	12 181 28               # erhs.c:181:28
	mulsd	%xmm7, %xmm4
	.loc	12 181 22 is_stmt 0     # erhs.c:181:22
	subsd	%xmm4, %xmm3
	.loc	12 182 22 is_stmt 1     # erhs.c:182:22
	addsd	rsd+176(%r8,%r15), %xmm3
	.loc	12 179 18               # erhs.c:179:18
	mulsd	%xmm5, %xmm3
	.loc	12 179 11 is_stmt 0     # erhs.c:179:11
	subsd	%xmm3, %xmm0
	.loc	12 178 26 is_stmt 1     # erhs.c:178:26
	movsd	%xmm0, frct+96(%r8,%r15)
	.loc	12 174 28               # erhs.c:174:28
	movsd	frct+64(%r8,%r15), %xmm0 # xmm0 = mem[0],zero
	.loc	12 175 30               # erhs.c:175:30
	movsd	rsd+64(%r8,%r15), %xmm1 # xmm1 = mem[0],zero
	.loc	12 175 28 is_stmt 0     # erhs.c:175:28
	movapd	%xmm1, %xmm2
	mulsd	%xmm6, %xmm2
	.loc	12 176 30 is_stmt 1     # erhs.c:176:30
	movsd	rsd+104(%r8,%r15), %xmm3 # xmm3 = mem[0],zero
	.loc	12 176 28 is_stmt 0     # erhs.c:176:28
	movapd	%xmm3, %xmm4
	mulsd	%xmm7, %xmm4
	.loc	12 176 22               # erhs.c:176:22
	subsd	%xmm4, %xmm2
	.loc	12 177 30 is_stmt 1     # erhs.c:177:30
	movsd	rsd+144(%r8,%r15), %xmm4 # xmm4 = mem[0],zero
	.loc	12 177 22 is_stmt 0     # erhs.c:177:22
	addsd	%xmm4, %xmm2
	.loc	12 175 18 is_stmt 1     # erhs.c:175:18
	mulsd	%xmm5, %xmm2
	.loc	12 175 11 is_stmt 0     # erhs.c:175:11
	subsd	%xmm2, %xmm0
	.loc	12 174 26 is_stmt 1     # erhs.c:174:26
	movsd	%xmm0, frct+64(%r8,%r15)
	.loc	12 178 28               # erhs.c:178:28
	movsd	frct+104(%r8,%r15), %xmm0 # xmm0 = mem[0],zero
	.loc	12 179 28               # erhs.c:179:28
	mulsd	%xmm7, %xmm1
	.loc	12 180 28               # erhs.c:180:28
	mulsd	%xmm8, %xmm3
	.loc	12 179 28               # erhs.c:179:28
	subsd	%xmm1, %xmm3
	.loc	12 181 28               # erhs.c:181:28
	mulsd	%xmm7, %xmm4
	.loc	12 181 22 is_stmt 0     # erhs.c:181:22
	subsd	%xmm4, %xmm3
	.loc	12 182 22 is_stmt 1     # erhs.c:182:22
	addsd	rsd+184(%r8,%r15), %xmm3
	.loc	12 179 18               # erhs.c:179:18
	mulsd	%xmm5, %xmm3
	.loc	12 179 11 is_stmt 0     # erhs.c:179:11
	subsd	%xmm3, %xmm0
	.loc	12 178 26 is_stmt 1     # erhs.c:178:26
	movsd	%xmm0, frct+104(%r8,%r15)
	.loc	12 174 28               # erhs.c:174:28
	movsd	frct+72(%r8,%r15), %xmm0 # xmm0 = mem[0],zero
	.loc	12 175 30               # erhs.c:175:30
	movsd	rsd+72(%r8,%r15), %xmm1 # xmm1 = mem[0],zero
	.loc	12 175 28 is_stmt 0     # erhs.c:175:28
	movapd	%xmm1, %xmm2
	mulsd	%xmm6, %xmm2
	.loc	12 176 30 is_stmt 1     # erhs.c:176:30
	movsd	rsd+112(%r8,%r15), %xmm3 # xmm3 = mem[0],zero
	.loc	12 176 28 is_stmt 0     # erhs.c:176:28
	movapd	%xmm3, %xmm4
	mulsd	%xmm7, %xmm4
	.loc	12 176 22               # erhs.c:176:22
	subsd	%xmm4, %xmm2
	.loc	12 177 30 is_stmt 1     # erhs.c:177:30
	movsd	rsd+152(%r8,%r15), %xmm4 # xmm4 = mem[0],zero
	.loc	12 177 22 is_stmt 0     # erhs.c:177:22
	addsd	%xmm4, %xmm2
	.loc	12 175 18 is_stmt 1     # erhs.c:175:18
	mulsd	%xmm5, %xmm2
	.loc	12 175 11 is_stmt 0     # erhs.c:175:11
	subsd	%xmm2, %xmm0
	.loc	12 174 26 is_stmt 1     # erhs.c:174:26
	movsd	%xmm0, frct+72(%r8,%r15)
	.loc	12 178 28               # erhs.c:178:28
	movsd	frct+112(%r8,%r15), %xmm0 # xmm0 = mem[0],zero
	.loc	12 179 28               # erhs.c:179:28
	mulsd	%xmm7, %xmm1
	.loc	12 180 28               # erhs.c:180:28
	mulsd	%xmm8, %xmm3
	.loc	12 179 28               # erhs.c:179:28
	subsd	%xmm1, %xmm3
	.loc	12 181 28               # erhs.c:181:28
	mulsd	%xmm7, %xmm4
	.loc	12 181 22 is_stmt 0     # erhs.c:181:22
	subsd	%xmm4, %xmm3
	.loc	12 182 22 is_stmt 1     # erhs.c:182:22
	addsd	rsd+192(%r8,%r15), %xmm3
	.loc	12 179 18               # erhs.c:179:18
	mulsd	%xmm5, %xmm3
	.loc	12 179 11 is_stmt 0     # erhs.c:179:11
	subsd	%xmm3, %xmm0
	#DEBUG_VALUE: erhs:m <- 0
	.loc	12 178 26 is_stmt 1     # erhs.c:178:26
	movsd	%xmm0, frct+112(%r8,%r15)
	movapd	448(%rsp), %xmm11       # 16-byte Reload
.Ltmp241:
	.loc	12 189 29               # erhs.c:189:29
	movapd	.LCPI7_12(%rip), %xmm15 # xmm15 = [4.000000e+00,4.000000e+00]
	.loc	12 190 29               # erhs.c:190:29
	movapd	.LCPI7_13(%rip), %xmm14 # xmm14 = [6.000000e+00,6.000000e+00]
	movapd	%xmm14, %xmm2
	jle	.LBB7_28
# BB#26:                                # %for.cond858.preheader.lr.ph
                                        #   in Loop: Header=BB7_15 Depth=2
	.loc	12 188 31               # erhs.c:188:31
	movsd	rsd+48(%r8,%r15), %xmm12 # xmm12 = mem[0],zero
	.loc	12 189 31               # erhs.c:189:31
	movsd	rsd+88(%r8,%r15), %xmm8 # xmm8 = mem[0],zero
	.loc	12 190 31               # erhs.c:190:31
	movupd	rsd+120(%r8,%r15), %xmm4
	.loc	12 191 31               # erhs.c:191:31
	movupd	rsd+160(%r8,%r15), %xmm9
	.loc	12 188 31               # erhs.c:188:31
	movupd	rsd+56(%r8,%r15), %xmm5
	.loc	12 189 31               # erhs.c:189:31
	movupd	rsd+96(%r8,%r15), %xmm14
	.loc	12 190 31               # erhs.c:190:31
	movupd	rsd+136(%r8,%r15), %xmm13
	.loc	12 191 31               # erhs.c:191:31
	movupd	rsd+176(%r8,%r15), %xmm10
	.loc	12 188 31               # erhs.c:188:31
	movsd	rsd+72(%r8,%r15), %xmm1 # xmm1 = mem[0],zero
	.loc	12 189 31               # erhs.c:189:31
	movsd	rsd+112(%r8,%r15), %xmm7 # xmm7 = mem[0],zero
	movq	(%rsp), %rcx            # 8-byte Reload
	movl	$3, %edi
	.p2align	4, 0x90
.LBB7_27:                               # %for.cond858.preheader
                                        #   Parent Loop BB7_14 Depth=1
                                        #     Parent Loop BB7_15 Depth=2
                                        # =>    This Inner Loop Header: Depth=3
	.loc	12 189 23 is_stmt 0     # erhs.c:189:23
	movsd	rsd+169040(%rcx), %xmm3 # xmm3 = mem[0],zero
	unpcklpd	%xmm12, %xmm3   # xmm3 = xmm3[0],xmm12[0]
	.loc	12 189 31               # erhs.c:189:31
	movapd	%xmm8, %xmm12
	movapd	%xmm7, %xmm6
	.loc	12 187 30 is_stmt 1     # erhs.c:187:30
	movupd	frct+169120(%rcx), %xmm7
	.loc	12 189 29               # erhs.c:189:29
	movsd	rsd+169080(%rcx), %xmm0 # xmm0 = mem[0],zero
	unpcklpd	%xmm12, %xmm0   # xmm0 = xmm0[0],xmm12[0]
	mulpd	%xmm15, %xmm0
	.loc	12 189 23 is_stmt 0     # erhs.c:189:23
	subpd	%xmm0, %xmm3
	.loc	12 190 29 is_stmt 1     # erhs.c:190:29
	movapd	%xmm4, %xmm0
	mulpd	%xmm2, %xmm0
	.loc	12 190 23 is_stmt 0     # erhs.c:190:23
	addpd	%xmm3, %xmm0
	.loc	12 191 29 is_stmt 1     # erhs.c:191:29
	movapd	%xmm9, %xmm3
	mulpd	%xmm15, %xmm3
	.loc	12 191 23 is_stmt 0     # erhs.c:191:23
	subpd	%xmm3, %xmm0
	.loc	12 192 31 is_stmt 1     # erhs.c:192:31
	movupd	rsd+169200(%rcx), %xmm2
	.loc	12 192 23 is_stmt 0     # erhs.c:192:23
	addpd	%xmm2, %xmm0
	.loc	12 188 20 is_stmt 1     # erhs.c:188:20
	mulpd	%xmm11, %xmm0
	.loc	12 188 13 is_stmt 0     # erhs.c:188:13
	subpd	%xmm0, %xmm7
	.loc	12 187 28 is_stmt 1     # erhs.c:187:28
	movupd	%xmm7, frct+169120(%rcx)
	.loc	12 187 30 is_stmt 0     # erhs.c:187:30
	movupd	frct+169136(%rcx), %xmm0
	.loc	12 189 29 is_stmt 1     # erhs.c:189:29
	movapd	%xmm14, %xmm3
	mulpd	%xmm15, %xmm3
	.loc	12 189 23 is_stmt 0     # erhs.c:189:23
	subpd	%xmm3, %xmm5
	.loc	12 190 29 is_stmt 1     # erhs.c:190:29
	movapd	%xmm13, %xmm7
	mulpd	.LCPI7_13(%rip), %xmm7
	.loc	12 190 23 is_stmt 0     # erhs.c:190:23
	addpd	%xmm5, %xmm7
	.loc	12 191 29 is_stmt 1     # erhs.c:191:29
	movapd	%xmm10, %xmm3
	mulpd	%xmm15, %xmm3
	.loc	12 191 23 is_stmt 0     # erhs.c:191:23
	subpd	%xmm3, %xmm7
	.loc	12 192 31 is_stmt 1     # erhs.c:192:31
	movupd	rsd+169216(%rcx), %xmm3
	.loc	12 192 23 is_stmt 0     # erhs.c:192:23
	addpd	%xmm3, %xmm7
	.loc	12 188 20 is_stmt 1     # erhs.c:188:20
	mulpd	%xmm11, %xmm7
	.loc	12 188 13 is_stmt 0     # erhs.c:188:13
	subpd	%xmm7, %xmm0
	.loc	12 187 28 is_stmt 1     # erhs.c:187:28
	movupd	%xmm0, frct+169136(%rcx)
	.loc	12 189 29               # erhs.c:189:29
	movapd	%xmm6, %xmm0
.Ltmp242:
	.loc	12 176 28               # erhs.c:176:28
	movsd	.LCPI7_10(%rip), %xmm5  # xmm5 = mem[0],zero
.Ltmp243:
	.loc	12 189 29               # erhs.c:189:29
	mulsd	%xmm5, %xmm0
	.loc	12 189 23 is_stmt 0     # erhs.c:189:23
	subsd	%xmm0, %xmm1
	.loc	12 190 31 is_stmt 1     # erhs.c:190:31
	movsd	rsd+169152(%rcx), %xmm7 # xmm7 = mem[0],zero
	.loc	12 190 29 is_stmt 0     # erhs.c:190:29
	movapd	%xmm7, %xmm0
	mulsd	.LCPI7_11(%rip), %xmm0
	.loc	12 190 23               # erhs.c:190:23
	addsd	%xmm1, %xmm0
	movsd	rsd+169192(%rcx), %xmm1 # xmm1 = mem[0],zero
	.loc	12 191 29 is_stmt 1     # erhs.c:191:29
	mulsd	%xmm5, %xmm1
	.loc	12 191 23 is_stmt 0     # erhs.c:191:23
	subsd	%xmm1, %xmm0
	.loc	12 187 30 is_stmt 1     # erhs.c:187:30
	movsd	frct+169152(%rcx), %xmm1 # xmm1 = mem[0],zero
	.loc	12 192 23               # erhs.c:192:23
	addsd	rsd+169232(%rcx), %xmm0
	.loc	12 188 20               # erhs.c:188:20
	mulsd	32(%rsp), %xmm0         # 16-byte Folded Reload
	.loc	12 188 13 is_stmt 0     # erhs.c:188:13
	subsd	%xmm0, %xmm1
	.loc	12 187 28 is_stmt 1     # erhs.c:187:28
	movsd	%xmm1, frct+169152(%rcx)
.Ltmp244:
	#DEBUG_VALUE: erhs:m <- 0
	.loc	12 185 7 discriminator 1 # erhs.c:185:7
	shufpd	$1, %xmm4, %xmm4        # xmm4 = xmm4[1,0]
.Ltmp245:
	.loc	12 189 31               # erhs.c:189:31
	movapd	%xmm4, %xmm8
	.loc	12 190 31               # erhs.c:190:31
	movapd	%xmm9, %xmm4
	.loc	12 188 31               # erhs.c:188:31
	movapd	%xmm14, %xmm5
	.loc	12 189 31               # erhs.c:189:31
	movapd	%xmm13, %xmm14
	.loc	12 190 31               # erhs.c:190:31
	movapd	%xmm10, %xmm13
.Ltmp246:
	.loc	12 185 7 discriminator 1 # erhs.c:185:7
	incq	%rdi
	.loc	12 185 21 is_stmt 0 discriminator 1 # erhs.c:185:21
	addq	$40, %rcx
	cmpq	%r12, %rdi
.Ltmp247:
	.loc	12 188 31 is_stmt 1     # erhs.c:188:31
	movapd	%xmm6, %xmm1
	.loc	12 191 31               # erhs.c:191:31
	movapd	%xmm2, %xmm9
	.loc	12 190 29               # erhs.c:190:29
	movapd	.LCPI7_13(%rip), %xmm2  # xmm2 = [6.000000e+00,6.000000e+00]
	.loc	12 191 31               # erhs.c:191:31
	movapd	%xmm3, %xmm10
.Ltmp248:
	.loc	12 185 7 discriminator 1 # erhs.c:185:7
	jl	.LBB7_27
.Ltmp249:
.LBB7_28:                               # %for.body940
                                        #   in Loop: Header=BB7_15 Depth=2
	.loc	12 197 31               # erhs.c:197:31
	leaq	frct(%r8,%r15), %r10
	.loc	12 198 29               # erhs.c:198:29
	leaq	rsd(%r8,%r15), %rcx
	addq	%r15, %r8
	movq	256(%rsp), %rdx         # 8-byte Reload
	leaq	(%rdx,%rdx,4), %rdi
	movsd	rsd(%r8,%rdi,8), %xmm11 # xmm11 = mem[0],zero
	movsd	rsd+8(%r8,%rdi,8), %xmm12 # xmm12 = mem[0],zero
	movsd	rsd+16(%r8,%rdi,8), %xmm0 # xmm0 = mem[0],zero
	movsd	%xmm0, 144(%rsp)        # 8-byte Spill
	movsd	rsd+24(%r8,%rdi,8), %xmm0 # xmm0 = mem[0],zero
	movsd	%xmm0, 128(%rsp)        # 8-byte Spill
	movsd	rsd+32(%r8,%rdi,8), %xmm0 # xmm0 = mem[0],zero
	.loc	12 199 29               # erhs.c:199:29
	movsd	%xmm0, 112(%rsp)        # 8-byte Spill
	movq	240(%rsp), %rdx         # 8-byte Reload
	leaq	(%rdx,%rdx,4), %rdx
	movsd	rsd(%r8,%rdx,8), %xmm1  # xmm1 = mem[0],zero
	movsd	rsd+8(%r8,%rdx,8), %xmm8 # xmm8 = mem[0],zero
	movsd	rsd+16(%r8,%rdx,8), %xmm10 # xmm10 = mem[0],zero
	movsd	rsd+24(%r8,%rdx,8), %xmm13 # xmm13 = mem[0],zero
	movsd	rsd+32(%r8,%rdx,8), %xmm15 # xmm15 = mem[0],zero
	.loc	12 197 31               # erhs.c:197:31
	leaq	(,%r12,8), %rdx
	leaq	(%rdx,%rdx,4), %rdi
	movsd	(%r10,%rdi), %xmm7      # xmm7 = mem[0],zero
	.loc	12 199 27               # erhs.c:199:27
	movapd	%xmm1, %xmm6
.Ltmp250:
	.loc	12 176 28               # erhs.c:176:28
	movsd	.LCPI7_10(%rip), %xmm4  # xmm4 = mem[0],zero
.Ltmp251:
	.loc	12 199 27               # erhs.c:199:27
	mulsd	%xmm4, %xmm6
	.loc	12 199 21 is_stmt 0     # erhs.c:199:21
	subsd	%xmm6, %xmm11
	.loc	12 200 29 is_stmt 1     # erhs.c:200:29
	movsd	(%rcx,%rdi), %xmm3      # xmm3 = mem[0],zero
	.loc	12 200 27 is_stmt 0     # erhs.c:200:27
	movapd	%xmm3, %xmm6
.Ltmp252:
	.loc	12 180 28 is_stmt 1     # erhs.c:180:28
	movsd	.LCPI7_11(%rip), %xmm0  # xmm0 = mem[0],zero
.Ltmp253:
	.loc	12 200 27               # erhs.c:200:27
	mulsd	%xmm0, %xmm6
	movapd	%xmm0, %xmm2
	.loc	12 200 21 is_stmt 0     # erhs.c:200:21
	addsd	%xmm11, %xmm6
	.loc	12 201 29 is_stmt 1     # erhs.c:201:29
	movq	432(%rsp), %rdx         # 8-byte Reload
	leaq	(%rdx,%rdx,4), %rsi
	movsd	(%rcx,%rsi), %xmm11     # xmm11 = mem[0],zero
	.loc	12 201 27 is_stmt 0     # erhs.c:201:27
	movapd	%xmm11, %xmm0
	mulsd	%xmm4, %xmm0
	.loc	12 201 21               # erhs.c:201:21
	subsd	%xmm0, %xmm6
	movapd	32(%rsp), %xmm9         # 16-byte Reload
	.loc	12 198 18 is_stmt 1     # erhs.c:198:18
	mulsd	%xmm9, %xmm6
	.loc	12 198 11 is_stmt 0     # erhs.c:198:11
	subsd	%xmm6, %xmm7
	.loc	12 197 29 is_stmt 1     # erhs.c:197:29
	movsd	%xmm7, (%r10,%rdi)
	.loc	12 202 31               # erhs.c:202:31
	movsd	(%r10,%rsi), %xmm0      # xmm0 = mem[0],zero
	.loc	12 204 27               # erhs.c:204:27
	mulsd	%xmm4, %xmm3
	.loc	12 204 21 is_stmt 0     # erhs.c:204:21
	subsd	%xmm3, %xmm1
.Ltmp254:
	.loc	12 175 28 is_stmt 1     # erhs.c:175:28
	movsd	.LCPI7_9(%rip), %xmm5   # xmm5 = mem[0],zero
.Ltmp255:
	.loc	12 205 27               # erhs.c:205:27
	mulsd	%xmm5, %xmm11
	.loc	12 205 21 is_stmt 0     # erhs.c:205:21
	addsd	%xmm1, %xmm11
	.loc	12 203 18 is_stmt 1     # erhs.c:203:18
	mulsd	%xmm9, %xmm11
	.loc	12 203 11 is_stmt 0     # erhs.c:203:11
	subsd	%xmm11, %xmm0
	.loc	12 202 29 is_stmt 1     # erhs.c:202:29
	movsd	%xmm0, (%r10,%rsi)
	.loc	12 197 31               # erhs.c:197:31
	movsd	8(%r10,%rdi), %xmm0     # xmm0 = mem[0],zero
	.loc	12 199 27               # erhs.c:199:27
	movapd	%xmm8, %xmm1
	mulsd	%xmm4, %xmm1
	.loc	12 199 21 is_stmt 0     # erhs.c:199:21
	subsd	%xmm1, %xmm12
	.loc	12 200 29 is_stmt 1     # erhs.c:200:29
	movsd	8(%rcx,%rdi), %xmm1     # xmm1 = mem[0],zero
	.loc	12 200 27 is_stmt 0     # erhs.c:200:27
	movapd	%xmm1, %xmm3
	mulsd	%xmm2, %xmm3
	.loc	12 200 21               # erhs.c:200:21
	addsd	%xmm12, %xmm3
	.loc	12 201 29 is_stmt 1     # erhs.c:201:29
	movsd	8(%rcx,%rsi), %xmm7     # xmm7 = mem[0],zero
	.loc	12 201 27 is_stmt 0     # erhs.c:201:27
	movapd	%xmm7, %xmm6
	mulsd	%xmm4, %xmm6
	.loc	12 201 21               # erhs.c:201:21
	subsd	%xmm6, %xmm3
	.loc	12 198 18 is_stmt 1     # erhs.c:198:18
	mulsd	%xmm9, %xmm3
	.loc	12 198 11 is_stmt 0     # erhs.c:198:11
	subsd	%xmm3, %xmm0
	.loc	12 200 29 is_stmt 1     # erhs.c:200:29
	movsd	16(%rcx,%rdi), %xmm12   # xmm12 = mem[0],zero
	.loc	12 201 29               # erhs.c:201:29
	movsd	16(%rcx,%rsi), %xmm3    # xmm3 = mem[0],zero
	.loc	12 200 29               # erhs.c:200:29
	movsd	24(%rcx,%rdi), %xmm2    # xmm2 = mem[0],zero
	.loc	12 201 29               # erhs.c:201:29
	movsd	24(%rcx,%rsi), %xmm14   # xmm14 = mem[0],zero
	.loc	12 200 29               # erhs.c:200:29
	movsd	32(%rcx,%rdi), %xmm11   # xmm11 = mem[0],zero
	.loc	12 201 29               # erhs.c:201:29
	movsd	32(%rcx,%rsi), %xmm6    # xmm6 = mem[0],zero
	.loc	12 197 29               # erhs.c:197:29
	movsd	%xmm0, 8(%r10,%rdi)
	.loc	12 204 27               # erhs.c:204:27
	mulsd	%xmm4, %xmm1
	.loc	12 204 21 is_stmt 0     # erhs.c:204:21
	subsd	%xmm1, %xmm8
	.loc	12 205 27 is_stmt 1     # erhs.c:205:27
	mulsd	%xmm5, %xmm7
	.loc	12 205 21 is_stmt 0     # erhs.c:205:21
	addsd	%xmm8, %xmm7
	.loc	12 202 31 is_stmt 1     # erhs.c:202:31
	movsd	8(%r10,%rsi), %xmm0     # xmm0 = mem[0],zero
	.loc	12 203 18               # erhs.c:203:18
	mulsd	%xmm9, %xmm7
	.loc	12 203 11 is_stmt 0     # erhs.c:203:11
	subsd	%xmm7, %xmm0
	.loc	12 202 29 is_stmt 1     # erhs.c:202:29
	movsd	%xmm0, 8(%r10,%rsi)
	.loc	12 199 27               # erhs.c:199:27
	movapd	%xmm10, %xmm0
	mulsd	%xmm4, %xmm0
	movsd	144(%rsp), %xmm1        # 8-byte Reload
                                        # xmm1 = mem[0],zero
	.loc	12 199 21 is_stmt 0     # erhs.c:199:21
	subsd	%xmm0, %xmm1
	.loc	12 200 27 is_stmt 1     # erhs.c:200:27
	movapd	%xmm12, %xmm0
.Ltmp256:
	.loc	12 180 28               # erhs.c:180:28
	movsd	.LCPI7_11(%rip), %xmm7  # xmm7 = mem[0],zero
.Ltmp257:
	.loc	12 200 27               # erhs.c:200:27
	mulsd	%xmm7, %xmm0
	.loc	12 200 21 is_stmt 0     # erhs.c:200:21
	addsd	%xmm1, %xmm0
	.loc	12 201 27 is_stmt 1     # erhs.c:201:27
	movapd	%xmm3, %xmm1
	mulsd	%xmm4, %xmm1
	.loc	12 201 21 is_stmt 0     # erhs.c:201:21
	subsd	%xmm1, %xmm0
	.loc	12 197 31 is_stmt 1     # erhs.c:197:31
	movsd	16(%r10,%rdi), %xmm1    # xmm1 = mem[0],zero
	.loc	12 198 18               # erhs.c:198:18
	mulsd	%xmm9, %xmm0
	.loc	12 198 11 is_stmt 0     # erhs.c:198:11
	subsd	%xmm0, %xmm1
	.loc	12 197 29 is_stmt 1     # erhs.c:197:29
	movsd	%xmm1, 16(%r10,%rdi)
	.loc	12 204 27               # erhs.c:204:27
	mulsd	%xmm4, %xmm12
	.loc	12 204 21 is_stmt 0     # erhs.c:204:21
	subsd	%xmm12, %xmm10
	.loc	12 205 27 is_stmt 1     # erhs.c:205:27
	mulsd	%xmm5, %xmm3
	.loc	12 205 21 is_stmt 0     # erhs.c:205:21
	addsd	%xmm10, %xmm3
	.loc	12 202 31 is_stmt 1     # erhs.c:202:31
	movsd	16(%r10,%rsi), %xmm0    # xmm0 = mem[0],zero
	.loc	12 203 18               # erhs.c:203:18
	mulsd	%xmm9, %xmm3
	.loc	12 203 11 is_stmt 0     # erhs.c:203:11
	subsd	%xmm3, %xmm0
	.loc	12 202 29 is_stmt 1     # erhs.c:202:29
	movsd	%xmm0, 16(%r10,%rsi)
	.loc	12 199 27               # erhs.c:199:27
	movapd	%xmm13, %xmm0
	mulsd	%xmm4, %xmm0
	movsd	128(%rsp), %xmm1        # 8-byte Reload
                                        # xmm1 = mem[0],zero
	.loc	12 199 21 is_stmt 0     # erhs.c:199:21
	subsd	%xmm0, %xmm1
	.loc	12 200 27 is_stmt 1     # erhs.c:200:27
	movapd	%xmm2, %xmm0
	mulsd	%xmm7, %xmm0
	.loc	12 200 21 is_stmt 0     # erhs.c:200:21
	addsd	%xmm1, %xmm0
	.loc	12 201 27 is_stmt 1     # erhs.c:201:27
	movapd	%xmm14, %xmm1
	mulsd	%xmm4, %xmm1
	.loc	12 201 21 is_stmt 0     # erhs.c:201:21
	subsd	%xmm1, %xmm0
	.loc	12 197 31 is_stmt 1     # erhs.c:197:31
	movsd	24(%r10,%rdi), %xmm1    # xmm1 = mem[0],zero
	.loc	12 198 18               # erhs.c:198:18
	mulsd	%xmm9, %xmm0
	.loc	12 198 11 is_stmt 0     # erhs.c:198:11
	subsd	%xmm0, %xmm1
	.loc	12 197 29 is_stmt 1     # erhs.c:197:29
	movsd	%xmm1, 24(%r10,%rdi)
	.loc	12 204 27               # erhs.c:204:27
	mulsd	%xmm4, %xmm2
	.loc	12 204 21 is_stmt 0     # erhs.c:204:21
	subsd	%xmm2, %xmm13
	.loc	12 205 27 is_stmt 1     # erhs.c:205:27
	mulsd	%xmm5, %xmm14
	.loc	12 205 21 is_stmt 0     # erhs.c:205:21
	addsd	%xmm13, %xmm14
	.loc	12 202 31 is_stmt 1     # erhs.c:202:31
	movsd	24(%r10,%rsi), %xmm0    # xmm0 = mem[0],zero
	.loc	12 203 18               # erhs.c:203:18
	mulsd	%xmm9, %xmm14
	.loc	12 203 11 is_stmt 0     # erhs.c:203:11
	subsd	%xmm14, %xmm0
	.loc	12 202 29 is_stmt 1     # erhs.c:202:29
	movsd	%xmm0, 24(%r10,%rsi)
	.loc	12 197 31               # erhs.c:197:31
	movsd	32(%r10,%rdi), %xmm0    # xmm0 = mem[0],zero
	.loc	12 199 27               # erhs.c:199:27
	movapd	%xmm15, %xmm1
	mulsd	%xmm4, %xmm1
	movsd	112(%rsp), %xmm2        # 8-byte Reload
                                        # xmm2 = mem[0],zero
	.loc	12 199 21 is_stmt 0     # erhs.c:199:21
	subsd	%xmm1, %xmm2
	.loc	12 200 27 is_stmt 1     # erhs.c:200:27
	movapd	%xmm11, %xmm1
	mulsd	%xmm7, %xmm1
	.loc	12 200 21 is_stmt 0     # erhs.c:200:21
	addsd	%xmm2, %xmm1
	.loc	12 201 27 is_stmt 1     # erhs.c:201:27
	movapd	%xmm6, %xmm2
	mulsd	%xmm4, %xmm2
	.loc	12 201 21 is_stmt 0     # erhs.c:201:21
	subsd	%xmm2, %xmm1
	.loc	12 198 18 is_stmt 1     # erhs.c:198:18
	mulsd	%xmm9, %xmm1
	.loc	12 198 11 is_stmt 0     # erhs.c:198:11
	subsd	%xmm1, %xmm0
	.loc	12 197 29 is_stmt 1     # erhs.c:197:29
	movsd	%xmm0, 32(%r10,%rdi)
	.loc	12 202 31               # erhs.c:202:31
	movsd	32(%r10,%rsi), %xmm0    # xmm0 = mem[0],zero
	.loc	12 204 27               # erhs.c:204:27
	mulsd	%xmm4, %xmm11
	.loc	12 204 21 is_stmt 0     # erhs.c:204:21
	subsd	%xmm11, %xmm15
	.loc	12 205 27 is_stmt 1     # erhs.c:205:27
	mulsd	%xmm5, %xmm6
	.loc	12 205 21 is_stmt 0     # erhs.c:205:21
	addsd	%xmm15, %xmm6
	.loc	12 203 18 is_stmt 1     # erhs.c:203:18
	mulsd	%xmm9, %xmm6
	.loc	12 203 11 is_stmt 0     # erhs.c:203:11
	subsd	%xmm6, %xmm0
	.loc	12 202 29 is_stmt 1     # erhs.c:202:29
	movsd	%xmm0, 32(%r10,%rsi)
.Ltmp258:
	.loc	12 97 5 discriminator 1 # erhs.c:97:5
	incq	%r14
	movq	96(%rsp), %rax          # 8-byte Reload
	addq	$2600, %rax             # imm = 0xA28
	movq	8(%rsp), %r8            # 8-byte Reload
	addq	$2600, %r8              # imm = 0xA28
	movq	64(%rsp), %r15          # 8-byte Reload
	addq	$2600, %r15             # imm = 0xA28
	addq	$2600, (%rsp)           # 8-byte Folded Spill
                                        # imm = 0xA28
	.loc	12 97 21 is_stmt 0 discriminator 1 # erhs.c:97:21
	cmpq	16(%rsp), %r14          # 8-byte Folded Reload
	movq	24(%rsp), %r10          # 8-byte Reload
	movapd	304(%rsp), %xmm10       # 16-byte Reload
	movaps	288(%rsp), %xmm11       # 16-byte Reload
	movsd	.LCPI7_5(%rip), %xmm8   # xmm8 = mem[0],zero
.Ltmp259:
	.loc	12 105 49 is_stmt 1     # erhs.c:105:49
	movsd	.LCPI7_6(%rip), %xmm9   # xmm9 = mem[0],zero
	movsd	.LCPI7_7(%rip), %xmm12  # xmm12 = mem[0],zero
	jl	.LBB7_15
.Ltmp260:
.LBB7_29:                               # %for.inc1060
                                        #   in Loop: Header=BB7_14 Depth=1
	movq	80(%rsp), %rcx          # 8-byte Reload
	movq	%rcx, %rdx
	.loc	12 96 3 discriminator 1 # erhs.c:96:3
	incq	%rdx
	movq	%rdx, 80(%rsp)          # 8-byte Spill
	movq	192(%rsp), %rdi         # 8-byte Reload
	addq	$169000, %rdi           # imm = 0x29428
	movq	184(%rsp), %rcx         # 8-byte Reload
	addq	$169000, %rcx           # imm = 0x29428
	movq	176(%rsp), %rsi         # 8-byte Reload
	addq	$169000, %rsi           # imm = 0x29428
	movq	200(%rsp), %r14         # 8-byte Reload
	addq	$169000, %r14           # imm = 0x29428
	.loc	12 96 17 is_stmt 0 discriminator 1 # erhs.c:96:17
	cmpq	160(%rsp), %rdx         # 8-byte Folded Reload
	jl	.LBB7_14
.Ltmp261:
# BB#30:                                # %for.cond1063.preheader.loopexit
	.loc	12 213 19 is_stmt 1 discriminator 1 # erhs.c:213:19
	movl	nz(%rip), %r15d
.LBB7_31:                               # %for.cond1063.preheader
	.loc	12 213 22 is_stmt 0 discriminator 1 # erhs.c:213:22
	decl	%r15d
	.loc	12 213 3 discriminator 1 # erhs.c:213:3
	cmpl	$2, %r15d
	jl	.LBB7_48
# BB#32:                                # %for.body1067.lr.ph
.Ltmp262:
	.loc	12 319 29 is_stmt 1     # erhs.c:319:29
	movslq	ny(%rip), %r14
.Ltmp263:
	.loc	12 213 3 discriminator 1 # erhs.c:213:3
	movslq	jst(%rip), %r10
.Ltmp264:
	.loc	12 293 13               # erhs.c:293:13
	movq	%r10, 432(%rsp)         # 8-byte Spill
	movsd	dssp(%rip), %xmm5       # xmm5 = mem[0],zero
.Ltmp265:
	.loc	12 303 26 discriminator 1 # erhs.c:303:26
	movapd	%xmm5, 32(%rsp)         # 16-byte Spill
	leaq	-3(%r14), %r13
.Ltmp266:
	.loc	12 316 38               # erhs.c:316:38
	leaq	-5(%r14), %r9
	.loc	12 317 38               # erhs.c:317:38
	leaq	-4(%r14), %rsi
	.loc	12 319 38               # erhs.c:319:38
	leaq	-2(%r14), %r8
.Ltmp267:
	.loc	12 263 19               # erhs.c:263:19
	movsd	ty1(%rip), %xmm1        # xmm1 = mem[0],zero
	.loc	12 267 13               # erhs.c:267:13
	movsd	ty3(%rip), %xmm2        # xmm2 = mem[0],zero
	movapd	%xmm2, 400(%rsp)        # 16-byte Spill
	movsd	.LCPI7_0(%rip), %xmm3   # xmm3 = mem[0],zero
	.loc	12 267 17 is_stmt 0     # erhs.c:267:17
	mulsd	%xmm2, %xmm3
	.loc	12 263 17 is_stmt 1     # erhs.c:263:17
	movapd	%xmm3, 384(%rsp)        # 16-byte Spill
	movsd	dy1(%rip), %xmm4        # xmm4 = mem[0],zero
	movhpd	dy2(%rip), %xmm4        # xmm4 = xmm4[0],mem[0]
	movapd	%xmm1, %xmm0
	movlhps	%xmm0, %xmm0            # xmm0 = xmm0[0,0]
	mulpd	%xmm0, %xmm4
	movapd	%xmm4, 368(%rsp)        # 16-byte Spill
	.loc	12 273 17               # erhs.c:273:17
	movsd	dy3(%rip), %xmm4        # xmm4 = mem[0],zero
	movhpd	dy4(%rip), %xmm4        # xmm4 = xmm4[0],mem[0]
	mulpd	%xmm0, %xmm4
	movapd	%xmm4, 352(%rsp)        # 16-byte Spill
	.loc	12 283 17               # erhs.c:283:17
	mulsd	dy5(%rip), %xmm1
	movapd	%xmm1, 416(%rsp)        # 16-byte Spill
	movsd	.LCPI7_1(%rip), %xmm0   # xmm0 = mem[0],zero
.Ltmp268:
	.loc	12 251 32               # erhs.c:251:32
	mulsd	%xmm2, %xmm0
	movsd	.LCPI7_2(%rip), %xmm1   # xmm1 = mem[0],zero
	.loc	12 254 11               # erhs.c:254:11
	mulsd	%xmm2, %xmm1
	movsd	%xmm1, 336(%rsp)        # 8-byte Spill
	movsd	.LCPI7_3(%rip), %xmm1   # xmm1 = mem[0],zero
	.loc	12 257 11               # erhs.c:257:11
	mulsd	%xmm2, %xmm1
	movsd	%xmm1, 56(%rsp)         # 8-byte Spill
	movsd	.LCPI7_4(%rip), %xmm1   # xmm1 = mem[0],zero
	.loc	12 258 21               # erhs.c:258:21
	mulsd	%xmm2, %xmm1
	movsd	%xmm1, 48(%rsp)         # 8-byte Spill
.Ltmp269:
	.loc	12 231 15               # erhs.c:231:15
	movsd	ty2(%rip), %xmm10       # xmm10 = mem[0],zero
.Ltmp270:
	.loc	12 213 3 discriminator 1 # erhs.c:213:3
	movapd	%xmm10, 320(%rsp)       # 16-byte Spill
	movslq	ist(%rip), %rbx
	movq	%rbx, 480(%rsp)         # 8-byte Spill
	movslq	%r15d, %rbp
.Ltmp271:
	.loc	12 267 46               # erhs.c:267:46
	movq	%rbp, 472(%rsp)         # 8-byte Spill
	leaq	(,%r10,8), %rbp
	leaq	flux+8(%rbp,%rbp,4), %rcx
	.loc	12 272 46               # erhs.c:272:46
	movq	%rcx, 224(%rsp)         # 8-byte Spill
	leaq	flux+16(%rbp,%rbp,4), %rcx
	.loc	12 282 46               # erhs.c:282:46
	movq	%rcx, 216(%rsp)         # 8-byte Spill
	leaq	flux+32(%rbp,%rbp,4), %rcx
.Ltmp272:
	.loc	12 231 19               # erhs.c:231:19
	movq	%rcx, 16(%rsp)          # 8-byte Spill
	movapd	%xmm10, %xmm11
	movlhps	%xmm11, %xmm11          # xmm11 = xmm11[0,0]
.Ltmp273:
	.loc	12 250 26               # erhs.c:250:26
	movaps	%xmm11, 304(%rsp)       # 16-byte Spill
	unpcklpd	%xmm0, %xmm2    # xmm2 = xmm2[0],xmm0[0]
	movapd	%xmm2, 288(%rsp)        # 16-byte Spill
.Ltmp274:
	.loc	12 272 27               # erhs.c:272:27
	movlhps	%xmm3, %xmm3            # xmm3 = xmm3[0,0]
	movaps	%xmm3, 272(%rsp)        # 16-byte Spill
.Ltmp275:
	.loc	12 306 20               # erhs.c:306:20
	movapd	%xmm5, %xmm0
	movlhps	%xmm0, %xmm0            # xmm0 = xmm0[0,0]
.Ltmp276:
	.loc	12 213 3 discriminator 1 # erhs.c:213:3
	movaps	%xmm0, 448(%rsp)        # 16-byte Spill
	leaq	(,%rbx,8), %rbx
	leaq	rsd+169032(%rbx,%rbx,4), %r11
	leaq	(%rbx,%rbx,4), %r12
	leaq	flux+72(%rbp,%rbp,4), %rcx
	movq	%rcx, 24(%rsp)          # 8-byte Spill
	leal	-1(%r10), %ebp
	movslq	%ebp, %rbp
	imulq	$2600, %rbp, %rbp       # imm = 0xA28
	leaq	rsd+169032(%rbp,%r12), %r15
	movsd	.LCPI7_5(%rip), %xmm8   # xmm8 = mem[0],zero
.Ltmp277:
	.loc	12 223 49               # erhs.c:223:49
	movsd	.LCPI7_6(%rip), %xmm7   # xmm7 = mem[0],zero
.Ltmp278:
	.loc	12 316 29               # erhs.c:316:29
	imulq	$2600, %r9, %rcx        # imm = 0xA28
	.loc	12 317 29               # erhs.c:317:29
	movq	%rcx, 248(%rsp)         # 8-byte Spill
	imulq	$2600, %rsi, %rcx       # imm = 0xA28
	.loc	12 319 29               # erhs.c:319:29
	movq	%rcx, 240(%rsp)         # 8-byte Spill
	imulq	$2600, %r8, %rcx        # imm = 0xA28
.Ltmp279:
	.loc	12 213 3 discriminator 1 # erhs.c:213:3
	movq	%rcx, 232(%rsp)         # 8-byte Spill
	movslq	jend(%rip), %r8
	movslq	iend(%rip), %rcx
	movq	%rcx, 256(%rsp)         # 8-byte Spill
	imulq	$2600, %r10, %rsi       # imm = 0xA28
	movq	%rsi, 208(%rsp)         # 8-byte Spill
	leaq	frct+169032(%rsi,%r12), %rcx
	leaq	rsd+169032(%rsi,%r12), %rbx
	leaq	(%rsi,%r12), %rbp
	movl	$1, %esi
	movq	%rsi, (%rsp)            # 8-byte Spill
	movsd	.LCPI7_7(%rip), %xmm9   # xmm9 = mem[0],zero
	.p2align	4, 0x90
.LBB7_33:                               # %for.body1067
                                        # =>This Loop Header: Depth=1
                                        #     Child Loop BB7_34 Depth 2
                                        #       Child Loop BB7_35 Depth 3
                                        #       Child Loop BB7_37 Depth 3
                                        #       Child Loop BB7_39 Depth 3
                                        #       Child Loop BB7_42 Depth 3
                                        #       Child Loop BB7_45 Depth 3
	movq	%rbp, 160(%rsp)         # 8-byte Spill
	movq	%rbx, 168(%rsp)         # 8-byte Spill
	movq	%rcx, 176(%rsp)         # 8-byte Spill
	movq	%r15, 184(%rsp)         # 8-byte Spill
	movq	%r12, 192(%rsp)         # 8-byte Spill
	movq	%r11, 200(%rsp)         # 8-byte Spill
	movq	480(%rsp), %r9          # 8-byte Reload
.Ltmp280:
	.loc	12 214 5 discriminator 1 # erhs.c:214:5
	movq	256(%rsp), %rsi         # 8-byte Reload
	cmpl	%esi, %r9d
	movq	%r15, %rdi
	movq	%rbp, %r15
	movq	%rbx, %rdx
	movq	%r11, %rsi
	movq	%rcx, %rax
	movq	%rsi, %rcx
	jge	.LBB7_47
	.p2align	4, 0x90
.LBB7_34:                               # %for.cond1072.preheader
                                        #   Parent Loop BB7_33 Depth=1
                                        # =>  This Loop Header: Depth=2
                                        #       Child Loop BB7_35 Depth 3
                                        #       Child Loop BB7_37 Depth 3
                                        #       Child Loop BB7_39 Depth 3
                                        #       Child Loop BB7_42 Depth 3
                                        #       Child Loop BB7_45 Depth 3
.Ltmp281:
	.loc	12 215 7 discriminator 1 # erhs.c:215:7
	movq	%rcx, 96(%rsp)          # 8-byte Spill
	testl	%r14d, %r14d
	movl	$flux+24, %esi
	movl	$0, %ebp
	jle	.LBB7_36
	.p2align	4, 0x90
.LBB7_35:                               # %for.body1075
                                        #   Parent Loop BB7_33 Depth=1
                                        #     Parent Loop BB7_34 Depth=2
                                        # =>    This Inner Loop Header: Depth=3
.Ltmp282:
	.loc	12 216 22               # erhs.c:216:22
	movq	-16(%rcx), %rbx
	.loc	12 216 20 is_stmt 0     # erhs.c:216:20
	movq	%rbx, -24(%rsi)
	.loc	12 217 33 is_stmt 1     # erhs.c:217:33
	movsd	-32(%rcx), %xmm1        # xmm1 = mem[0],zero
	.loc	12 218 23               # erhs.c:218:23
	movsd	-24(%rcx), %xmm2        # xmm2 = mem[0],zero
	.loc	12 217 15               # erhs.c:217:15
	movd	%rbx, %xmm3
	.loc	12 217 31 is_stmt 0     # erhs.c:217:31
	movapd	%xmm3, %xmm0
	divsd	%xmm1, %xmm0
.Ltmp283:
	#DEBUG_VALUE: erhs:u31 <- %XMM0
	.loc	12 218 39 is_stmt 1     # erhs.c:218:39
	movapd	%xmm2, %xmm4
	mulsd	%xmm4, %xmm4
	.loc	12 223 38               # erhs.c:223:38
	movapd	%xmm0, %xmm5
	mulsd	%xmm3, %xmm5
	.loc	12 219 39               # erhs.c:219:39
	mulsd	%xmm3, %xmm3
	.loc	12 219 21 is_stmt 0     # erhs.c:219:21
	addsd	%xmm4, %xmm3
	.loc	12 220 23 is_stmt 1     # erhs.c:220:23
	movsd	-8(%rcx), %xmm4         # xmm4 = mem[0],zero
	.loc	12 220 39 is_stmt 0     # erhs.c:220:39
	movapd	%xmm4, %xmm6
	mulsd	%xmm6, %xmm6
	.loc	12 220 21               # erhs.c:220:21
	addsd	%xmm3, %xmm6
	.loc	12 218 18 is_stmt 1     # erhs.c:218:18
	mulsd	%xmm8, %xmm6
	.loc	12 222 38               # erhs.c:222:38
	mulsd	%xmm0, %xmm2
	.loc	12 222 20 is_stmt 0     # erhs.c:222:20
	movsd	%xmm2, -16(%rsi)
	.loc	12 221 18 is_stmt 1     # erhs.c:221:18
	divsd	%xmm1, %xmm6
.Ltmp284:
	#DEBUG_VALUE: erhs:q <- %XMM6
	.loc	12 223 53               # erhs.c:223:53
	movsd	(%rcx), %xmm1           # xmm1 = mem[0],zero
	.loc	12 223 69 is_stmt 0     # erhs.c:223:69
	movapd	%xmm1, %xmm2
	subsd	%xmm6, %xmm2
	.loc	12 223 49               # erhs.c:223:49
	mulsd	%xmm7, %xmm2
	.loc	12 223 44               # erhs.c:223:44
	addsd	%xmm5, %xmm2
	.loc	12 225 27 is_stmt 1     # erhs.c:225:27
	mulsd	%xmm9, %xmm1
	.loc	12 225 50 is_stmt 0     # erhs.c:225:50
	mulsd	%xmm7, %xmm6
.Ltmp285:
	.loc	12 225 45               # erhs.c:225:45
	subsd	%xmm6, %xmm1
	.loc	12 223 20 is_stmt 1     # erhs.c:223:20
	movsd	%xmm2, -8(%rsi)
	.loc	12 224 38               # erhs.c:224:38
	movlhps	%xmm0, %xmm0            # xmm0 = xmm0[0,0]
.Ltmp286:
	unpcklpd	%xmm1, %xmm4    # xmm4 = xmm4[0],xmm1[0]
	mulpd	%xmm0, %xmm4
	.loc	12 224 20 is_stmt 0     # erhs.c:224:20
	movupd	%xmm4, (%rsi)
.Ltmp287:
	.loc	12 215 7 is_stmt 1 discriminator 1 # erhs.c:215:7
	incq	%rbp
	.loc	12 215 21 is_stmt 0 discriminator 1 # erhs.c:215:21
	addq	$40, %rsi
	addq	$2600, %rcx             # imm = 0xA28
	cmpq	%r14, %rbp
	.loc	12 215 7 discriminator 1 # erhs.c:215:7
	jl	.LBB7_35
.Ltmp288:
.LBB7_36:                               # %for.end1216
                                        #   in Loop: Header=BB7_34 Depth=2
	.loc	12 228 7 is_stmt 1 discriminator 1 # erhs.c:228:7
	cmpl	%r8d, %r10d
	movq	24(%rsp), %rcx          # 8-byte Reload
	movq	%rax, %rsi
	movq	%r10, %rbp
	movapd	400(%rsp), %xmm8        # 16-byte Reload
	movsd	336(%rsp), %xmm9        # 8-byte Reload
                                        # xmm9 = mem[0],zero
	movsd	56(%rsp), %xmm4         # 8-byte Reload
                                        # xmm4 = mem[0],zero
	movsd	48(%rsp), %xmm14        # 8-byte Reload
                                        # xmm14 = mem[0],zero
	jge	.LBB7_38
	.p2align	4, 0x90
.LBB7_37:                               # %for.cond1221.preheader
                                        #   Parent Loop BB7_33 Depth=1
                                        #     Parent Loop BB7_34 Depth=2
                                        # =>    This Inner Loop Header: Depth=3
	incq	%rbp
.Ltmp289:
	.loc	12 230 31               # erhs.c:230:31
	movupd	-32(%rsi), %xmm0
	.loc	12 231 23               # erhs.c:231:23
	movupd	-32(%rcx), %xmm1
	.loc	12 231 38 is_stmt 0     # erhs.c:231:38
	movupd	-112(%rcx), %xmm2
	.loc	12 231 36               # erhs.c:231:36
	subpd	%xmm2, %xmm1
	.loc	12 231 19               # erhs.c:231:19
	mulpd	%xmm11, %xmm1
	.loc	12 231 13               # erhs.c:231:13
	subpd	%xmm1, %xmm0
	.loc	12 230 28 is_stmt 1     # erhs.c:230:28
	movupd	%xmm0, -32(%rsi)
	.loc	12 230 31 is_stmt 0     # erhs.c:230:31
	movupd	-16(%rsi), %xmm0
	.loc	12 231 23 is_stmt 1     # erhs.c:231:23
	movupd	-16(%rcx), %xmm1
	.loc	12 231 38 is_stmt 0     # erhs.c:231:38
	movupd	-96(%rcx), %xmm2
	.loc	12 231 36               # erhs.c:231:36
	subpd	%xmm2, %xmm1
	.loc	12 231 19               # erhs.c:231:19
	mulpd	%xmm11, %xmm1
	.loc	12 231 13               # erhs.c:231:13
	subpd	%xmm1, %xmm0
	.loc	12 230 28 is_stmt 1     # erhs.c:230:28
	movupd	%xmm0, -16(%rsi)
	.loc	12 230 31 is_stmt 0     # erhs.c:230:31
	movsd	(%rsi), %xmm0           # xmm0 = mem[0],zero
	.loc	12 231 23 is_stmt 1     # erhs.c:231:23
	movsd	(%rcx), %xmm1           # xmm1 = mem[0],zero
	.loc	12 231 36 is_stmt 0     # erhs.c:231:36
	subsd	-80(%rcx), %xmm1
	.loc	12 231 19               # erhs.c:231:19
	mulsd	%xmm10, %xmm1
	.loc	12 231 13               # erhs.c:231:13
	subsd	%xmm1, %xmm0
	.loc	12 230 28 is_stmt 1     # erhs.c:230:28
	movsd	%xmm0, (%rsi)
.Ltmp290:
	.loc	12 228 23 discriminator 1 # erhs.c:228:23
	addq	$2600, %rsi             # imm = 0xA28
	addq	$40, %rcx
	cmpq	%r8, %rbp
	.loc	12 228 7 is_stmt 0 discriminator 1 # erhs.c:228:7
	jl	.LBB7_37
.Ltmp291:
.LBB7_38:                               # %for.end1259
                                        #   in Loop: Header=BB7_34 Depth=2
	.loc	12 235 7 is_stmt 1 discriminator 1 # erhs.c:235:7
	cmpl	%r14d, %r10d
	movq	16(%rsp), %rcx          # 8-byte Reload
	movq	%rdx, %rsi
	movq	%r10, %rbp
	movapd	384(%rsp), %xmm11       # 16-byte Reload
	movapd	368(%rsp), %xmm12       # 16-byte Reload
	movapd	352(%rsp), %xmm13       # 16-byte Reload
	movapd	288(%rsp), %xmm15       # 16-byte Reload
.Ltmp292:
	.loc	12 236 19               # erhs.c:236:19
	movsd	.LCPI7_8(%rip), %xmm7   # xmm7 = mem[0],zero
	jge	.LBB7_40
	.p2align	4, 0x90
.LBB7_39:                               # %for.body1263
                                        #   Parent Loop BB7_33 Depth=1
                                        #     Parent Loop BB7_34 Depth=2
                                        # =>    This Inner Loop Header: Depth=3
	movapd	%xmm7, %xmm0
	divsd	-32(%rsi), %xmm0
.Ltmp293:
	#DEBUG_VALUE: erhs:tmp <- %XMM0
	.loc	12 238 22               # erhs.c:238:22
	movupd	-24(%rsi), %xmm2
	.loc	12 238 20 is_stmt 0     # erhs.c:238:20
	movapd	%xmm0, %xmm1
	movlhps	%xmm1, %xmm1            # xmm1 = xmm1[0,0]
	mulpd	%xmm2, %xmm1
	movsd	-8(%rsi), %xmm2         # xmm2 = mem[0],zero
	.loc	12 240 20 is_stmt 1     # erhs.c:240:20
	mulsd	%xmm0, %xmm2
.Ltmp294:
	#DEBUG_VALUE: erhs:u41j <- %XMM2
	.loc	12 241 20               # erhs.c:241:20
	mulsd	(%rsi), %xmm0
.Ltmp295:
	#DEBUG_VALUE: erhs:u51j <- %XMM0
	.loc	12 243 19               # erhs.c:243:19
	movapd	%xmm7, %xmm3
	divsd	-2632(%rsi), %xmm3
.Ltmp296:
	#DEBUG_VALUE: erhs:tmp <- %XMM3
	.loc	12 245 24               # erhs.c:245:24
	movupd	-2624(%rsi), %xmm5
	movapd	%xmm4, %xmm10
	.loc	12 245 22 is_stmt 0     # erhs.c:245:22
	movapd	%xmm3, %xmm4
	movlhps	%xmm4, %xmm4            # xmm4 = xmm4[0,0]
	mulpd	%xmm5, %xmm4
	movsd	-2608(%rsi), %xmm5      # xmm5 = mem[0],zero
	.loc	12 247 22 is_stmt 1     # erhs.c:247:22
	mulsd	%xmm3, %xmm5
.Ltmp297:
	#DEBUG_VALUE: erhs:u41jm1 <- %XMM5
	.loc	12 248 22               # erhs.c:248:22
	mulsd	-2600(%rsi), %xmm3
.Ltmp298:
	#DEBUG_VALUE: erhs:u51jm1 <- %XMM3
	.loc	12 250 35               # erhs.c:250:35
	movapd	%xmm1, %xmm6
	subpd	%xmm4, %xmm6
	.loc	12 250 26 is_stmt 0     # erhs.c:250:26
	mulpd	%xmm15, %xmm6
	.loc	12 250 20               # erhs.c:250:20
	movupd	%xmm6, -24(%rcx)
	.loc	12 252 35 is_stmt 1     # erhs.c:252:35
	movapd	%xmm2, %xmm6
	subsd	%xmm5, %xmm6
	.loc	12 252 26 is_stmt 0     # erhs.c:252:26
	mulsd	%xmm8, %xmm6
	.loc	12 252 20               # erhs.c:252:20
	movsd	%xmm6, -8(%rcx)
	.loc	12 254 27 is_stmt 1     # erhs.c:254:27
	movapd	%xmm1, %xmm6
	mulsd	%xmm6, %xmm6
	.loc	12 254 43 is_stmt 0     # erhs.c:254:43
	shufpd	$1, %xmm1, %xmm1        # xmm1 = xmm1[1,0]
	mulsd	%xmm1, %xmm1
	.loc	12 254 37               # erhs.c:254:37
	addsd	%xmm1, %xmm6
	.loc	12 254 59               # erhs.c:254:59
	mulsd	%xmm2, %xmm2
.Ltmp299:
	.loc	12 254 53               # erhs.c:254:53
	addsd	%xmm6, %xmm2
	.loc	12 255 29 is_stmt 1     # erhs.c:255:29
	movapd	%xmm4, %xmm6
	mulsd	%xmm6, %xmm6
	.loc	12 255 45 is_stmt 0     # erhs.c:255:45
	shufpd	$1, %xmm4, %xmm4        # xmm4 = xmm4[1,0]
	mulsd	%xmm4, %xmm4
	.loc	12 255 37               # erhs.c:255:37
	addsd	%xmm4, %xmm6
	.loc	12 255 61               # erhs.c:255:61
	mulsd	%xmm5, %xmm5
.Ltmp300:
	.loc	12 255 53               # erhs.c:255:53
	addsd	%xmm6, %xmm5
	.loc	12 255 19               # erhs.c:255:19
	subsd	%xmm5, %xmm2
	.loc	12 254 17 is_stmt 1     # erhs.c:254:17
	mulsd	%xmm9, %xmm2
	.loc	12 257 31               # erhs.c:257:31
	subsd	%xmm4, %xmm1
	movapd	%xmm10, %xmm4
	.loc	12 257 17 is_stmt 0     # erhs.c:257:17
	mulsd	%xmm4, %xmm1
	.loc	12 256 11 is_stmt 1     # erhs.c:256:11
	addsd	%xmm2, %xmm1
	.loc	12 258 36               # erhs.c:258:36
	subsd	%xmm3, %xmm0
.Ltmp301:
	.loc	12 258 27 is_stmt 0     # erhs.c:258:27
	mulsd	%xmm14, %xmm0
	.loc	12 258 11               # erhs.c:258:11
	addsd	%xmm1, %xmm0
	.loc	12 253 20 is_stmt 1     # erhs.c:253:20
	movsd	%xmm0, (%rcx)
.Ltmp302:
	.loc	12 235 7 discriminator 1 # erhs.c:235:7
	incq	%rbp
	.loc	12 235 23 is_stmt 0 discriminator 1 # erhs.c:235:23
	addq	$2600, %rsi             # imm = 0xA28
	addq	$40, %rcx
	cmpq	%r14, %rbp
	.loc	12 235 7 discriminator 1 # erhs.c:235:7
	jl	.LBB7_39
.Ltmp303:
.LBB7_40:                               # %for.end1393
                                        #   in Loop: Header=BB7_34 Depth=2
	movq	%rax, 8(%rsp)           # 8-byte Spill
	movq	%rdx, 64(%rsp)          # 8-byte Spill
.Ltmp304:
	.loc	12 261 7 is_stmt 1 discriminator 1 # erhs.c:261:7
	cmpl	%r8d, %r10d
	movapd	272(%rsp), %xmm9        # 16-byte Reload
	movapd	416(%rsp), %xmm10       # 16-byte Reload
	jge	.LBB7_43
# BB#41:                                # %for.body1397.lr.ph
                                        #   in Loop: Header=BB7_34 Depth=2
.Ltmp305:
	.loc	12 264 34               # erhs.c:264:34
	imulq	$169000, (%rsp), %rcx   # 8-byte Folded Reload
                                        # imm = 0x29428
	addq	208(%rsp), %rcx         # 8-byte Folded Reload
	leaq	(%r9,%r9,4), %rsi
	.loc	12 267 46               # erhs.c:267:46
	movq	224(%rsp), %rbp         # 8-byte Reload
	movsd	(%rbp), %xmm7           # xmm7 = mem[0],zero
	.loc	12 264 34               # erhs.c:264:34
	movupd	rsd(%rcx,%rsi,8), %xmm2
	.loc	12 272 46               # erhs.c:272:46
	movq	216(%rsp), %rbp         # 8-byte Reload
	movupd	(%rbp), %xmm5
	.loc	12 274 34               # erhs.c:274:34
	movupd	rsd+16(%rcx,%rsi,8), %xmm3
	.loc	12 282 46               # erhs.c:282:46
	movq	16(%rsp), %rbp          # 8-byte Reload
	movsd	(%rbp), %xmm0           # xmm0 = mem[0],zero
	.loc	12 284 34               # erhs.c:284:34
	movsd	rsd+32(%rcx,%rsi,8), %xmm4 # xmm4 = mem[0],zero
	movq	%rdi, %rcx
	movq	24(%rsp), %rsi          # 8-byte Reload
	movq	%r15, %rbp
.Ltmp306:
	.p2align	4, 0x90
.LBB7_42:                               # %for.body1397
                                        #   Parent Loop BB7_33 Depth=1
                                        #     Parent Loop BB7_34 Depth=2
                                        # =>    This Inner Loop Header: Depth=3
	.loc	12 261 7 discriminator 1 # erhs.c:261:7
	incq	%r10
.Ltmp307:
	.loc	12 267 31               # erhs.c:267:31
	movsd	-24(%rsi), %xmm8        # xmm8 = mem[0],zero
	.loc	12 267 44 is_stmt 0     # erhs.c:267:44
	movapd	%xmm8, %xmm6
	subsd	%xmm7, %xmm6
	.loc	12 267 27               # erhs.c:267:27
	mulsd	%xmm11, %xmm6
	.loc	12 267 11               # erhs.c:267:11
	addsd	frct+169008(%rbp), %xmm6
	.loc	12 263 34 is_stmt 1     # erhs.c:263:34
	movupd	-32(%rcx), %xmm7
	.loc	12 264 32               # erhs.c:264:32
	addpd	%xmm2, %xmm2
	.loc	12 264 26 is_stmt 0     # erhs.c:264:26
	subpd	%xmm2, %xmm7
	.loc	12 265 34 is_stmt 1     # erhs.c:265:34
	movupd	rsd+171600(%rbp), %xmm2
	.loc	12 265 26 is_stmt 0     # erhs.c:265:26
	addpd	%xmm2, %xmm7
	.loc	12 263 23 is_stmt 1     # erhs.c:263:23
	mulpd	%xmm12, %xmm7
	.loc	12 263 11 is_stmt 0     # erhs.c:263:11
	movsd	frct+169000(%rbp), %xmm1 # xmm1 = mem[0],zero
	unpcklpd	%xmm6, %xmm1    # xmm1 = xmm1[0],xmm6[0]
	addpd	%xmm7, %xmm1
	.loc	12 262 26 is_stmt 1     # erhs.c:262:26
	movupd	%xmm1, frct+169000(%rbp)
	.loc	12 271 28               # erhs.c:271:28
	movupd	frct+169016(%rbp), %xmm1
	.loc	12 272 31               # erhs.c:272:31
	movupd	-16(%rsi), %xmm6
	.loc	12 272 44 is_stmt 0     # erhs.c:272:44
	movapd	%xmm6, %xmm7
	subpd	%xmm5, %xmm7
	.loc	12 272 27               # erhs.c:272:27
	mulpd	%xmm9, %xmm7
	.loc	12 272 11               # erhs.c:272:11
	addpd	%xmm1, %xmm7
	.loc	12 273 34 is_stmt 1     # erhs.c:273:34
	movupd	-16(%rcx), %xmm1
	.loc	12 274 32               # erhs.c:274:32
	addpd	%xmm3, %xmm3
	.loc	12 274 26 is_stmt 0     # erhs.c:274:26
	subpd	%xmm3, %xmm1
	.loc	12 275 34 is_stmt 1     # erhs.c:275:34
	movupd	rsd+171616(%rbp), %xmm3
	.loc	12 275 26 is_stmt 0     # erhs.c:275:26
	addpd	%xmm3, %xmm1
	.loc	12 273 23 is_stmt 1     # erhs.c:273:23
	mulpd	%xmm13, %xmm1
	.loc	12 273 11 is_stmt 0     # erhs.c:273:11
	addpd	%xmm7, %xmm1
	.loc	12 271 26 is_stmt 1     # erhs.c:271:26
	movupd	%xmm1, frct+169016(%rbp)
	.loc	12 282 31               # erhs.c:282:31
	movsd	(%rsi), %xmm1           # xmm1 = mem[0],zero
	.loc	12 282 44 is_stmt 0     # erhs.c:282:44
	movapd	%xmm1, %xmm5
	subsd	%xmm0, %xmm5
	.loc	12 282 27               # erhs.c:282:27
	mulsd	%xmm11, %xmm5
	.loc	12 282 11               # erhs.c:282:11
	addsd	frct+169032(%rbp), %xmm5
	.loc	12 283 34 is_stmt 1     # erhs.c:283:34
	movsd	(%rcx), %xmm0           # xmm0 = mem[0],zero
	.loc	12 284 32               # erhs.c:284:32
	addsd	%xmm4, %xmm4
	.loc	12 284 26 is_stmt 0     # erhs.c:284:26
	subsd	%xmm4, %xmm0
	.loc	12 285 34 is_stmt 1     # erhs.c:285:34
	movsd	rsd+171632(%rbp), %xmm4 # xmm4 = mem[0],zero
	.loc	12 285 26 is_stmt 0     # erhs.c:285:26
	addsd	%xmm4, %xmm0
	.loc	12 283 23 is_stmt 1     # erhs.c:283:23
	mulsd	%xmm10, %xmm0
	.loc	12 283 11 is_stmt 0     # erhs.c:283:11
	addsd	%xmm5, %xmm0
	.loc	12 281 26 is_stmt 1     # erhs.c:281:26
	movsd	%xmm0, frct+169032(%rbp)
.Ltmp308:
	.loc	12 261 23 discriminator 1 # erhs.c:261:23
	addq	$2600, %rbp             # imm = 0xA28
	addq	$40, %rsi
	addq	$2600, %rcx             # imm = 0xA28
	cmpq	%r8, %r10
.Ltmp309:
	.loc	12 282 46               # erhs.c:282:46
	movapd	%xmm1, %xmm0
	.loc	12 267 46               # erhs.c:267:46
	movapd	%xmm8, %xmm7
	.loc	12 272 46               # erhs.c:272:46
	movapd	%xmm6, %xmm5
	jl	.LBB7_42
.Ltmp310:
.LBB7_43:                               # %for.body1667
                                        #   in Loop: Header=BB7_34 Depth=2
	movq	%r15, %r10
.Ltmp311:
	.loc	12 292 28               # erhs.c:292:28
	imulq	$169000, (%rsp), %rsi   # 8-byte Folded Reload
                                        # imm = 0x29428
	cmpl	$3, %r13d
	leaq	(%r9,%r9,4), %rbx
	movsd	frct+2600(%rsi,%rbx,8), %xmm0 # xmm0 = mem[0],zero
	.loc	12 293 30               # erhs.c:293:30
	movsd	rsd+2600(%rsi,%rbx,8), %xmm1 # xmm1 = mem[0],zero
	.loc	12 293 28 is_stmt 0     # erhs.c:293:28
	movapd	%xmm1, %xmm2
	movsd	.LCPI7_9(%rip), %xmm6   # xmm6 = mem[0],zero
	mulsd	%xmm6, %xmm2
	.loc	12 294 30 is_stmt 1     # erhs.c:294:30
	movsd	rsd+5200(%rsi,%rbx,8), %xmm3 # xmm3 = mem[0],zero
	.loc	12 294 28 is_stmt 0     # erhs.c:294:28
	movapd	%xmm3, %xmm4
	movsd	.LCPI7_10(%rip), %xmm5  # xmm5 = mem[0],zero
	movapd	%xmm5, %xmm7
	mulsd	%xmm7, %xmm4
	.loc	12 294 22               # erhs.c:294:22
	subsd	%xmm4, %xmm2
	.loc	12 295 30 is_stmt 1     # erhs.c:295:30
	movsd	rsd+7800(%rsi,%rbx,8), %xmm4 # xmm4 = mem[0],zero
	.loc	12 295 22 is_stmt 0     # erhs.c:295:22
	addsd	%xmm4, %xmm2
	movapd	32(%rsp), %xmm5         # 16-byte Reload
	.loc	12 293 18 is_stmt 1     # erhs.c:293:18
	mulsd	%xmm5, %xmm2
	.loc	12 293 11 is_stmt 0     # erhs.c:293:11
	subsd	%xmm2, %xmm0
	.loc	12 292 26 is_stmt 1     # erhs.c:292:26
	movsd	%xmm0, frct+2600(%rsi,%rbx,8)
	.loc	12 296 28               # erhs.c:296:28
	movsd	frct+5200(%rsi,%rbx,8), %xmm0 # xmm0 = mem[0],zero
	.loc	12 297 28               # erhs.c:297:28
	mulsd	%xmm7, %xmm1
	.loc	12 298 28               # erhs.c:298:28
	movsd	.LCPI7_11(%rip), %xmm2  # xmm2 = mem[0],zero
	movapd	%xmm2, %xmm8
	mulsd	%xmm8, %xmm3
	.loc	12 297 28               # erhs.c:297:28
	subsd	%xmm1, %xmm3
	.loc	12 299 28               # erhs.c:299:28
	mulsd	%xmm7, %xmm4
	.loc	12 299 22 is_stmt 0     # erhs.c:299:22
	subsd	%xmm4, %xmm3
	.loc	12 300 22 is_stmt 1     # erhs.c:300:22
	addsd	rsd+10400(%rsi,%rbx,8), %xmm3
	.loc	12 297 18               # erhs.c:297:18
	mulsd	%xmm5, %xmm3
	.loc	12 297 11 is_stmt 0     # erhs.c:297:11
	subsd	%xmm3, %xmm0
	.loc	12 296 26 is_stmt 1     # erhs.c:296:26
	movsd	%xmm0, frct+5200(%rsi,%rbx,8)
	.loc	12 292 28               # erhs.c:292:28
	movsd	frct+2608(%rsi,%rbx,8), %xmm0 # xmm0 = mem[0],zero
	.loc	12 293 30               # erhs.c:293:30
	movsd	rsd+2608(%rsi,%rbx,8), %xmm1 # xmm1 = mem[0],zero
	.loc	12 293 28 is_stmt 0     # erhs.c:293:28
	movapd	%xmm1, %xmm2
	mulsd	%xmm6, %xmm2
	.loc	12 294 30 is_stmt 1     # erhs.c:294:30
	movsd	rsd+5208(%rsi,%rbx,8), %xmm3 # xmm3 = mem[0],zero
	.loc	12 294 28 is_stmt 0     # erhs.c:294:28
	movapd	%xmm3, %xmm4
	mulsd	%xmm7, %xmm4
	.loc	12 294 22               # erhs.c:294:22
	subsd	%xmm4, %xmm2
	.loc	12 295 30 is_stmt 1     # erhs.c:295:30
	movsd	rsd+7808(%rsi,%rbx,8), %xmm4 # xmm4 = mem[0],zero
	.loc	12 295 22 is_stmt 0     # erhs.c:295:22
	addsd	%xmm4, %xmm2
	.loc	12 293 18 is_stmt 1     # erhs.c:293:18
	mulsd	%xmm5, %xmm2
	.loc	12 293 11 is_stmt 0     # erhs.c:293:11
	subsd	%xmm2, %xmm0
	.loc	12 292 26 is_stmt 1     # erhs.c:292:26
	movsd	%xmm0, frct+2608(%rsi,%rbx,8)
	.loc	12 296 28               # erhs.c:296:28
	movsd	frct+5208(%rsi,%rbx,8), %xmm0 # xmm0 = mem[0],zero
	.loc	12 297 28               # erhs.c:297:28
	mulsd	%xmm7, %xmm1
	.loc	12 298 28               # erhs.c:298:28
	mulsd	%xmm8, %xmm3
	.loc	12 297 28               # erhs.c:297:28
	subsd	%xmm1, %xmm3
	.loc	12 299 28               # erhs.c:299:28
	mulsd	%xmm7, %xmm4
	.loc	12 299 22 is_stmt 0     # erhs.c:299:22
	subsd	%xmm4, %xmm3
	.loc	12 300 22 is_stmt 1     # erhs.c:300:22
	addsd	rsd+10408(%rsi,%rbx,8), %xmm3
	.loc	12 297 18               # erhs.c:297:18
	mulsd	%xmm5, %xmm3
	.loc	12 297 11 is_stmt 0     # erhs.c:297:11
	subsd	%xmm3, %xmm0
	.loc	12 296 26 is_stmt 1     # erhs.c:296:26
	movsd	%xmm0, frct+5208(%rsi,%rbx,8)
	.loc	12 292 28               # erhs.c:292:28
	movsd	frct+2616(%rsi,%rbx,8), %xmm0 # xmm0 = mem[0],zero
	.loc	12 293 30               # erhs.c:293:30
	movsd	rsd+2616(%rsi,%rbx,8), %xmm1 # xmm1 = mem[0],zero
	.loc	12 293 28 is_stmt 0     # erhs.c:293:28
	movapd	%xmm1, %xmm2
	mulsd	%xmm6, %xmm2
	.loc	12 294 30 is_stmt 1     # erhs.c:294:30
	movsd	rsd+5216(%rsi,%rbx,8), %xmm3 # xmm3 = mem[0],zero
	.loc	12 294 28 is_stmt 0     # erhs.c:294:28
	movapd	%xmm3, %xmm4
	mulsd	%xmm7, %xmm4
	.loc	12 294 22               # erhs.c:294:22
	subsd	%xmm4, %xmm2
	.loc	12 295 30 is_stmt 1     # erhs.c:295:30
	movsd	rsd+7816(%rsi,%rbx,8), %xmm4 # xmm4 = mem[0],zero
	.loc	12 295 22 is_stmt 0     # erhs.c:295:22
	addsd	%xmm4, %xmm2
	.loc	12 293 18 is_stmt 1     # erhs.c:293:18
	mulsd	%xmm5, %xmm2
	.loc	12 293 11 is_stmt 0     # erhs.c:293:11
	subsd	%xmm2, %xmm0
	.loc	12 292 26 is_stmt 1     # erhs.c:292:26
	movsd	%xmm0, frct+2616(%rsi,%rbx,8)
	.loc	12 296 28               # erhs.c:296:28
	movsd	frct+5216(%rsi,%rbx,8), %xmm0 # xmm0 = mem[0],zero
	.loc	12 297 28               # erhs.c:297:28
	mulsd	%xmm7, %xmm1
	.loc	12 298 28               # erhs.c:298:28
	mulsd	%xmm8, %xmm3
	.loc	12 297 28               # erhs.c:297:28
	subsd	%xmm1, %xmm3
	.loc	12 299 28               # erhs.c:299:28
	mulsd	%xmm7, %xmm4
	.loc	12 299 22 is_stmt 0     # erhs.c:299:22
	subsd	%xmm4, %xmm3
	.loc	12 300 22 is_stmt 1     # erhs.c:300:22
	addsd	rsd+10416(%rsi,%rbx,8), %xmm3
	.loc	12 297 18               # erhs.c:297:18
	mulsd	%xmm5, %xmm3
	.loc	12 297 11 is_stmt 0     # erhs.c:297:11
	subsd	%xmm3, %xmm0
	.loc	12 296 26 is_stmt 1     # erhs.c:296:26
	movsd	%xmm0, frct+5216(%rsi,%rbx,8)
	.loc	12 292 28               # erhs.c:292:28
	movsd	frct+2624(%rsi,%rbx,8), %xmm0 # xmm0 = mem[0],zero
	.loc	12 293 30               # erhs.c:293:30
	movsd	rsd+2624(%rsi,%rbx,8), %xmm1 # xmm1 = mem[0],zero
	.loc	12 293 28 is_stmt 0     # erhs.c:293:28
	movapd	%xmm1, %xmm2
	mulsd	%xmm6, %xmm2
	.loc	12 294 30 is_stmt 1     # erhs.c:294:30
	movsd	rsd+5224(%rsi,%rbx,8), %xmm3 # xmm3 = mem[0],zero
	.loc	12 294 28 is_stmt 0     # erhs.c:294:28
	movapd	%xmm3, %xmm4
	mulsd	%xmm7, %xmm4
	.loc	12 294 22               # erhs.c:294:22
	subsd	%xmm4, %xmm2
	.loc	12 295 30 is_stmt 1     # erhs.c:295:30
	movsd	rsd+7824(%rsi,%rbx,8), %xmm4 # xmm4 = mem[0],zero
	.loc	12 295 22 is_stmt 0     # erhs.c:295:22
	addsd	%xmm4, %xmm2
	.loc	12 293 18 is_stmt 1     # erhs.c:293:18
	mulsd	%xmm5, %xmm2
	.loc	12 293 11 is_stmt 0     # erhs.c:293:11
	subsd	%xmm2, %xmm0
	.loc	12 292 26 is_stmt 1     # erhs.c:292:26
	movsd	%xmm0, frct+2624(%rsi,%rbx,8)
	.loc	12 296 28               # erhs.c:296:28
	movsd	frct+5224(%rsi,%rbx,8), %xmm0 # xmm0 = mem[0],zero
	.loc	12 297 28               # erhs.c:297:28
	mulsd	%xmm7, %xmm1
	.loc	12 298 28               # erhs.c:298:28
	mulsd	%xmm8, %xmm3
	.loc	12 297 28               # erhs.c:297:28
	subsd	%xmm1, %xmm3
	.loc	12 299 28               # erhs.c:299:28
	mulsd	%xmm7, %xmm4
	.loc	12 299 22 is_stmt 0     # erhs.c:299:22
	subsd	%xmm4, %xmm3
	.loc	12 300 22 is_stmt 1     # erhs.c:300:22
	addsd	rsd+10424(%rsi,%rbx,8), %xmm3
	.loc	12 297 18               # erhs.c:297:18
	mulsd	%xmm5, %xmm3
	.loc	12 297 11 is_stmt 0     # erhs.c:297:11
	subsd	%xmm3, %xmm0
	.loc	12 296 26 is_stmt 1     # erhs.c:296:26
	movsd	%xmm0, frct+5224(%rsi,%rbx,8)
	.loc	12 292 28               # erhs.c:292:28
	movsd	frct+2632(%rsi,%rbx,8), %xmm0 # xmm0 = mem[0],zero
	.loc	12 293 30               # erhs.c:293:30
	movsd	rsd+2632(%rsi,%rbx,8), %xmm1 # xmm1 = mem[0],zero
	.loc	12 293 28 is_stmt 0     # erhs.c:293:28
	movapd	%xmm1, %xmm2
	mulsd	%xmm6, %xmm2
	.loc	12 294 30 is_stmt 1     # erhs.c:294:30
	movsd	rsd+5232(%rsi,%rbx,8), %xmm3 # xmm3 = mem[0],zero
	.loc	12 294 28 is_stmt 0     # erhs.c:294:28
	movapd	%xmm3, %xmm4
	mulsd	%xmm7, %xmm4
	.loc	12 294 22               # erhs.c:294:22
	subsd	%xmm4, %xmm2
	.loc	12 295 30 is_stmt 1     # erhs.c:295:30
	movsd	rsd+7832(%rsi,%rbx,8), %xmm4 # xmm4 = mem[0],zero
	.loc	12 295 22 is_stmt 0     # erhs.c:295:22
	addsd	%xmm4, %xmm2
	.loc	12 293 18 is_stmt 1     # erhs.c:293:18
	mulsd	%xmm5, %xmm2
	.loc	12 293 11 is_stmt 0     # erhs.c:293:11
	subsd	%xmm2, %xmm0
	.loc	12 292 26 is_stmt 1     # erhs.c:292:26
	movsd	%xmm0, frct+2632(%rsi,%rbx,8)
	.loc	12 296 28               # erhs.c:296:28
	movsd	frct+5232(%rsi,%rbx,8), %xmm0 # xmm0 = mem[0],zero
	.loc	12 297 28               # erhs.c:297:28
	mulsd	%xmm7, %xmm1
	.loc	12 298 28               # erhs.c:298:28
	mulsd	%xmm8, %xmm3
	.loc	12 297 28               # erhs.c:297:28
	subsd	%xmm1, %xmm3
	.loc	12 299 28               # erhs.c:299:28
	mulsd	%xmm7, %xmm4
	.loc	12 299 22 is_stmt 0     # erhs.c:299:22
	subsd	%xmm4, %xmm3
	.loc	12 300 22 is_stmt 1     # erhs.c:300:22
	addsd	rsd+10432(%rsi,%rbx,8), %xmm3
	.loc	12 297 18               # erhs.c:297:18
	mulsd	%xmm5, %xmm3
	.loc	12 297 11 is_stmt 0     # erhs.c:297:11
	subsd	%xmm3, %xmm0
	#DEBUG_VALUE: erhs:m <- 0
	.loc	12 296 26 is_stmt 1     # erhs.c:296:26
	movsd	%xmm0, frct+5232(%rsi,%rbx,8)
	movapd	448(%rsp), %xmm12       # 16-byte Reload
.Ltmp312:
	.loc	12 307 29               # erhs.c:307:29
	movapd	.LCPI7_12(%rip), %xmm11 # xmm11 = [4.000000e+00,4.000000e+00]
	.loc	12 308 29               # erhs.c:308:29
	movapd	.LCPI7_13(%rip), %xmm15 # xmm15 = [6.000000e+00,6.000000e+00]
	movapd	%xmm15, %xmm4
	jle	.LBB7_46
# BB#44:                                # %for.cond1767.preheader.lr.ph
                                        #   in Loop: Header=BB7_34 Depth=2
	.loc	12 306 31               # erhs.c:306:31
	movsd	rsd+2608(%rsi,%rbx,8), %xmm13 # xmm13 = mem[0],zero
	.loc	12 307 31               # erhs.c:307:31
	movsd	rsd+5208(%rsi,%rbx,8), %xmm14 # xmm14 = mem[0],zero
	.loc	12 308 31               # erhs.c:308:31
	movupd	rsd+7800(%rsi,%rbx,8), %xmm2
	.loc	12 309 31               # erhs.c:309:31
	movupd	rsd+10400(%rsi,%rbx,8), %xmm9
	.loc	12 306 31               # erhs.c:306:31
	movupd	rsd+2616(%rsi,%rbx,8), %xmm5
	.loc	12 307 31               # erhs.c:307:31
	movupd	rsd+5216(%rsi,%rbx,8), %xmm15
	.loc	12 308 31               # erhs.c:308:31
	movupd	rsd+7816(%rsi,%rbx,8), %xmm10
	.loc	12 309 31               # erhs.c:309:31
	movupd	rsd+10416(%rsi,%rbx,8), %xmm8
	.loc	12 306 31               # erhs.c:306:31
	movsd	rsd+2632(%rsi,%rbx,8), %xmm1 # xmm1 = mem[0],zero
	.loc	12 307 31               # erhs.c:307:31
	movsd	rsd+5232(%rsi,%rbx,8), %xmm7 # xmm7 = mem[0],zero
	movq	%r12, %rcx
	movl	$3, %ebp
	.p2align	4, 0x90
.LBB7_45:                               # %for.cond1767.preheader
                                        #   Parent Loop BB7_33 Depth=1
                                        #     Parent Loop BB7_34 Depth=2
                                        # =>    This Inner Loop Header: Depth=3
	.loc	12 307 23 is_stmt 0     # erhs.c:307:23
	movsd	rsd+171600(%rcx), %xmm3 # xmm3 = mem[0],zero
	unpcklpd	%xmm13, %xmm3   # xmm3 = xmm3[0],xmm13[0]
	.loc	12 307 31               # erhs.c:307:31
	movapd	%xmm14, %xmm13
	movapd	%xmm7, %xmm6
	.loc	12 305 30 is_stmt 1     # erhs.c:305:30
	movupd	frct+176800(%rcx), %xmm7
	.loc	12 307 29               # erhs.c:307:29
	movsd	rsd+174200(%rcx), %xmm0 # xmm0 = mem[0],zero
	unpcklpd	%xmm13, %xmm0   # xmm0 = xmm0[0],xmm13[0]
	mulpd	%xmm11, %xmm0
	.loc	12 307 23 is_stmt 0     # erhs.c:307:23
	subpd	%xmm0, %xmm3
	.loc	12 308 29 is_stmt 1     # erhs.c:308:29
	movapd	%xmm2, %xmm0
	mulpd	%xmm4, %xmm0
	.loc	12 308 23 is_stmt 0     # erhs.c:308:23
	addpd	%xmm3, %xmm0
	.loc	12 309 29 is_stmt 1     # erhs.c:309:29
	movapd	%xmm9, %xmm3
	mulpd	%xmm11, %xmm3
	.loc	12 309 23 is_stmt 0     # erhs.c:309:23
	subpd	%xmm3, %xmm0
	.loc	12 310 31 is_stmt 1     # erhs.c:310:31
	movupd	rsd+182000(%rcx), %xmm4
	.loc	12 310 23 is_stmt 0     # erhs.c:310:23
	addpd	%xmm4, %xmm0
	.loc	12 306 20 is_stmt 1     # erhs.c:306:20
	mulpd	%xmm12, %xmm0
	.loc	12 306 13 is_stmt 0     # erhs.c:306:13
	subpd	%xmm0, %xmm7
	.loc	12 305 28 is_stmt 1     # erhs.c:305:28
	movupd	%xmm7, frct+176800(%rcx)
	.loc	12 305 30 is_stmt 0     # erhs.c:305:30
	movupd	frct+176816(%rcx), %xmm0
	.loc	12 307 29 is_stmt 1     # erhs.c:307:29
	movapd	%xmm15, %xmm3
	mulpd	%xmm11, %xmm3
	.loc	12 307 23 is_stmt 0     # erhs.c:307:23
	subpd	%xmm3, %xmm5
	.loc	12 308 29 is_stmt 1     # erhs.c:308:29
	movapd	%xmm10, %xmm7
	mulpd	.LCPI7_13(%rip), %xmm7
	.loc	12 308 23 is_stmt 0     # erhs.c:308:23
	addpd	%xmm5, %xmm7
	.loc	12 309 29 is_stmt 1     # erhs.c:309:29
	movapd	%xmm8, %xmm3
	mulpd	%xmm11, %xmm3
	.loc	12 309 23 is_stmt 0     # erhs.c:309:23
	subpd	%xmm3, %xmm7
	.loc	12 310 31 is_stmt 1     # erhs.c:310:31
	movupd	rsd+182016(%rcx), %xmm3
	.loc	12 310 23 is_stmt 0     # erhs.c:310:23
	addpd	%xmm3, %xmm7
	.loc	12 306 20 is_stmt 1     # erhs.c:306:20
	mulpd	%xmm12, %xmm7
	.loc	12 306 13 is_stmt 0     # erhs.c:306:13
	subpd	%xmm7, %xmm0
	.loc	12 305 28 is_stmt 1     # erhs.c:305:28
	movupd	%xmm0, frct+176816(%rcx)
	.loc	12 307 29               # erhs.c:307:29
	movapd	%xmm6, %xmm0
.Ltmp313:
	.loc	12 294 28               # erhs.c:294:28
	movsd	.LCPI7_10(%rip), %xmm5  # xmm5 = mem[0],zero
.Ltmp314:
	.loc	12 307 29               # erhs.c:307:29
	mulsd	%xmm5, %xmm0
	.loc	12 307 23 is_stmt 0     # erhs.c:307:23
	subsd	%xmm0, %xmm1
	.loc	12 308 31 is_stmt 1     # erhs.c:308:31
	movsd	rsd+176832(%rcx), %xmm7 # xmm7 = mem[0],zero
	.loc	12 308 29 is_stmt 0     # erhs.c:308:29
	movapd	%xmm7, %xmm0
	mulsd	.LCPI7_11(%rip), %xmm0
	.loc	12 308 23               # erhs.c:308:23
	addsd	%xmm1, %xmm0
	movsd	rsd+179432(%rcx), %xmm1 # xmm1 = mem[0],zero
	.loc	12 309 29 is_stmt 1     # erhs.c:309:29
	mulsd	%xmm5, %xmm1
	.loc	12 309 23 is_stmt 0     # erhs.c:309:23
	subsd	%xmm1, %xmm0
	.loc	12 305 30 is_stmt 1     # erhs.c:305:30
	movsd	frct+176832(%rcx), %xmm1 # xmm1 = mem[0],zero
	.loc	12 310 23               # erhs.c:310:23
	addsd	rsd+182032(%rcx), %xmm0
	.loc	12 306 20               # erhs.c:306:20
	mulsd	32(%rsp), %xmm0         # 16-byte Folded Reload
	.loc	12 306 13 is_stmt 0     # erhs.c:306:13
	subsd	%xmm0, %xmm1
	.loc	12 305 28 is_stmt 1     # erhs.c:305:28
	movsd	%xmm1, frct+176832(%rcx)
.Ltmp315:
	#DEBUG_VALUE: erhs:m <- 0
	.loc	12 303 7 discriminator 1 # erhs.c:303:7
	shufpd	$1, %xmm2, %xmm2        # xmm2 = xmm2[1,0]
.Ltmp316:
	.loc	12 307 31               # erhs.c:307:31
	movapd	%xmm2, %xmm14
	.loc	12 308 31               # erhs.c:308:31
	movapd	%xmm9, %xmm2
	.loc	12 306 31               # erhs.c:306:31
	movapd	%xmm15, %xmm5
	.loc	12 307 31               # erhs.c:307:31
	movapd	%xmm10, %xmm15
	.loc	12 308 31               # erhs.c:308:31
	movapd	%xmm8, %xmm10
.Ltmp317:
	.loc	12 303 7 discriminator 1 # erhs.c:303:7
	incq	%rbp
	.loc	12 303 21 is_stmt 0 discriminator 1 # erhs.c:303:21
	addq	$2600, %rcx             # imm = 0xA28
	cmpq	%r13, %rbp
.Ltmp318:
	.loc	12 306 31 is_stmt 1     # erhs.c:306:31
	movapd	%xmm6, %xmm1
	.loc	12 309 31               # erhs.c:309:31
	movapd	%xmm4, %xmm9
	.loc	12 308 29               # erhs.c:308:29
	movapd	.LCPI7_13(%rip), %xmm4  # xmm4 = [6.000000e+00,6.000000e+00]
	.loc	12 309 31               # erhs.c:309:31
	movapd	%xmm3, %xmm8
.Ltmp319:
	.loc	12 303 7 discriminator 1 # erhs.c:303:7
	jl	.LBB7_45
.Ltmp320:
.LBB7_46:                               # %for.body1849
                                        #   in Loop: Header=BB7_34 Depth=2
	.loc	12 315 31               # erhs.c:315:31
	imulq	$2600, %r13, %rbp       # imm = 0xA28
	leaq	frct(%rsi,%rbp), %r11
	leaq	(,%r9,8), %rcx
	leaq	(%rcx,%rcx,4), %rbx
	movsd	(%r11,%rbx), %xmm10     # xmm10 = mem[0],zero
	.loc	12 316 29               # erhs.c:316:29
	movq	248(%rsp), %rcx         # 8-byte Reload
	leaq	rsd(%rsi,%rcx), %rcx
	movsd	(%rcx,%rbx), %xmm12     # xmm12 = mem[0],zero
	movsd	8(%rcx,%rbx), %xmm0     # xmm0 = mem[0],zero
	movsd	%xmm0, 80(%rsp)         # 8-byte Spill
	movsd	16(%rcx,%rbx), %xmm0    # xmm0 = mem[0],zero
	movsd	%xmm0, 144(%rsp)        # 8-byte Spill
	movsd	24(%rcx,%rbx), %xmm0    # xmm0 = mem[0],zero
	movsd	%xmm0, 128(%rsp)        # 8-byte Spill
	movsd	32(%rcx,%rbx), %xmm0    # xmm0 = mem[0],zero
	.loc	12 317 29               # erhs.c:317:29
	movsd	%xmm0, 112(%rsp)        # 8-byte Spill
	movq	240(%rsp), %rcx         # 8-byte Reload
	leaq	rsd(%rsi,%rcx), %rcx
	movsd	(%rcx,%rbx), %xmm0      # xmm0 = mem[0],zero
	.loc	12 317 27 is_stmt 0     # erhs.c:317:27
	movapd	%xmm0, %xmm2
.Ltmp321:
	.loc	12 294 28 is_stmt 1     # erhs.c:294:28
	movsd	.LCPI7_10(%rip), %xmm6  # xmm6 = mem[0],zero
.Ltmp322:
	.loc	12 317 27               # erhs.c:317:27
	mulsd	%xmm6, %xmm2
	.loc	12 317 21 is_stmt 0     # erhs.c:317:21
	subsd	%xmm2, %xmm12
	.loc	12 318 29 is_stmt 1     # erhs.c:318:29
	leaq	rsd(%rsi,%rbp), %rbp
	movsd	(%rbp,%rbx), %xmm1      # xmm1 = mem[0],zero
	.loc	12 318 27 is_stmt 0     # erhs.c:318:27
	movapd	%xmm1, %xmm5
.Ltmp323:
	.loc	12 298 28 is_stmt 1     # erhs.c:298:28
	movsd	.LCPI7_11(%rip), %xmm13 # xmm13 = mem[0],zero
.Ltmp324:
	.loc	12 318 27               # erhs.c:318:27
	mulsd	%xmm13, %xmm5
	.loc	12 318 21 is_stmt 0     # erhs.c:318:21
	addsd	%xmm12, %xmm5
	.loc	12 317 29 is_stmt 1     # erhs.c:317:29
	movsd	8(%rcx,%rbx), %xmm4     # xmm4 = mem[0],zero
	movsd	16(%rcx,%rbx), %xmm8    # xmm8 = mem[0],zero
	movsd	24(%rcx,%rbx), %xmm11   # xmm11 = mem[0],zero
	movsd	32(%rcx,%rbx), %xmm14   # xmm14 = mem[0],zero
	movq	232(%rsp), %rcx         # 8-byte Reload
	.loc	12 319 29               # erhs.c:319:29
	leaq	rsd(%rsi,%rcx), %r15
	movsd	(%r15,%rbx), %xmm3      # xmm3 = mem[0],zero
	.loc	12 319 27 is_stmt 0     # erhs.c:319:27
	movapd	%xmm3, %xmm7
	mulsd	%xmm6, %xmm7
	.loc	12 319 21               # erhs.c:319:21
	subsd	%xmm7, %xmm5
	movapd	32(%rsp), %xmm2         # 16-byte Reload
	.loc	12 316 18 is_stmt 1     # erhs.c:316:18
	mulsd	%xmm2, %xmm5
	.loc	12 316 11 is_stmt 0     # erhs.c:316:11
	subsd	%xmm5, %xmm10
	.loc	12 318 29 is_stmt 1     # erhs.c:318:29
	movsd	8(%rbp,%rbx), %xmm9     # xmm9 = mem[0],zero
	movsd	16(%rbp,%rbx), %xmm15   # xmm15 = mem[0],zero
	movsd	24(%rbp,%rbx), %xmm7    # xmm7 = mem[0],zero
	movsd	32(%rbp,%rbx), %xmm12   # xmm12 = mem[0],zero
	.loc	12 315 29               # erhs.c:315:29
	movsd	%xmm10, (%r11,%rbx)
	.loc	12 320 31               # erhs.c:320:31
	leaq	frct(%rsi,%rcx), %rcx
	movsd	(%rcx,%rbx), %xmm10     # xmm10 = mem[0],zero
	.loc	12 322 27               # erhs.c:322:27
	mulsd	%xmm6, %xmm1
	.loc	12 322 21 is_stmt 0     # erhs.c:322:21
	subsd	%xmm1, %xmm0
.Ltmp325:
	.loc	12 293 28 is_stmt 1     # erhs.c:293:28
	movsd	.LCPI7_9(%rip), %xmm5   # xmm5 = mem[0],zero
.Ltmp326:
	.loc	12 323 27               # erhs.c:323:27
	mulsd	%xmm5, %xmm3
	.loc	12 323 21 is_stmt 0     # erhs.c:323:21
	addsd	%xmm0, %xmm3
	.loc	12 321 18 is_stmt 1     # erhs.c:321:18
	mulsd	%xmm2, %xmm3
	.loc	12 321 11 is_stmt 0     # erhs.c:321:11
	subsd	%xmm3, %xmm10
	.loc	12 320 29 is_stmt 1     # erhs.c:320:29
	movsd	%xmm10, (%rcx,%rbx)
	.loc	12 315 31               # erhs.c:315:31
	movsd	8(%r11,%rbx), %xmm10    # xmm10 = mem[0],zero
	.loc	12 317 27               # erhs.c:317:27
	movapd	%xmm4, %xmm0
	mulsd	%xmm6, %xmm0
	movsd	80(%rsp), %xmm1         # 8-byte Reload
                                        # xmm1 = mem[0],zero
	.loc	12 317 21 is_stmt 0     # erhs.c:317:21
	subsd	%xmm0, %xmm1
	.loc	12 318 27 is_stmt 1     # erhs.c:318:27
	movapd	%xmm9, %xmm0
	mulsd	%xmm13, %xmm0
	.loc	12 318 21 is_stmt 0     # erhs.c:318:21
	addsd	%xmm1, %xmm0
	.loc	12 319 29 is_stmt 1     # erhs.c:319:29
	movsd	8(%r15,%rbx), %xmm1     # xmm1 = mem[0],zero
	.loc	12 319 27 is_stmt 0     # erhs.c:319:27
	movapd	%xmm1, %xmm3
	mulsd	%xmm6, %xmm3
	.loc	12 319 21               # erhs.c:319:21
	subsd	%xmm3, %xmm0
	.loc	12 316 18 is_stmt 1     # erhs.c:316:18
	mulsd	%xmm2, %xmm0
	.loc	12 316 11 is_stmt 0     # erhs.c:316:11
	subsd	%xmm0, %xmm10
	.loc	12 319 29 is_stmt 1     # erhs.c:319:29
	movsd	16(%r15,%rbx), %xmm3    # xmm3 = mem[0],zero
	movsd	24(%r15,%rbx), %xmm0    # xmm0 = mem[0],zero
	movsd	32(%r15,%rbx), %xmm13   # xmm13 = mem[0],zero
	.loc	12 315 29               # erhs.c:315:29
	movsd	%xmm10, 8(%r11,%rbx)
	.loc	12 322 27               # erhs.c:322:27
	mulsd	%xmm6, %xmm9
	.loc	12 322 21 is_stmt 0     # erhs.c:322:21
	subsd	%xmm9, %xmm4
	movapd	%xmm2, %xmm9
	.loc	12 323 27 is_stmt 1     # erhs.c:323:27
	mulsd	%xmm5, %xmm1
	.loc	12 323 21 is_stmt 0     # erhs.c:323:21
	addsd	%xmm4, %xmm1
	.loc	12 320 31 is_stmt 1     # erhs.c:320:31
	movsd	8(%rcx,%rbx), %xmm4     # xmm4 = mem[0],zero
	.loc	12 321 18               # erhs.c:321:18
	mulsd	%xmm9, %xmm1
	.loc	12 321 11 is_stmt 0     # erhs.c:321:11
	subsd	%xmm1, %xmm4
	.loc	12 320 29 is_stmt 1     # erhs.c:320:29
	movsd	%xmm4, 8(%rcx,%rbx)
	.loc	12 317 27               # erhs.c:317:27
	movapd	%xmm8, %xmm1
	mulsd	%xmm6, %xmm1
	movsd	144(%rsp), %xmm2        # 8-byte Reload
                                        # xmm2 = mem[0],zero
	.loc	12 317 21 is_stmt 0     # erhs.c:317:21
	subsd	%xmm1, %xmm2
	.loc	12 318 27 is_stmt 1     # erhs.c:318:27
	movapd	%xmm15, %xmm1
.Ltmp327:
	.loc	12 298 28               # erhs.c:298:28
	movsd	.LCPI7_11(%rip), %xmm10 # xmm10 = mem[0],zero
.Ltmp328:
	.loc	12 318 27               # erhs.c:318:27
	mulsd	%xmm10, %xmm1
	.loc	12 318 21 is_stmt 0     # erhs.c:318:21
	addsd	%xmm2, %xmm1
	.loc	12 319 27 is_stmt 1     # erhs.c:319:27
	movapd	%xmm3, %xmm4
	mulsd	%xmm6, %xmm4
	.loc	12 319 21 is_stmt 0     # erhs.c:319:21
	subsd	%xmm4, %xmm1
	.loc	12 315 31 is_stmt 1     # erhs.c:315:31
	movsd	16(%r11,%rbx), %xmm4    # xmm4 = mem[0],zero
	.loc	12 316 18               # erhs.c:316:18
	mulsd	%xmm9, %xmm1
	.loc	12 316 11 is_stmt 0     # erhs.c:316:11
	subsd	%xmm1, %xmm4
	.loc	12 315 29 is_stmt 1     # erhs.c:315:29
	movsd	%xmm4, 16(%r11,%rbx)
	.loc	12 322 27               # erhs.c:322:27
	mulsd	%xmm6, %xmm15
	.loc	12 322 21 is_stmt 0     # erhs.c:322:21
	subsd	%xmm15, %xmm8
	.loc	12 323 27 is_stmt 1     # erhs.c:323:27
	mulsd	%xmm5, %xmm3
	.loc	12 323 21 is_stmt 0     # erhs.c:323:21
	addsd	%xmm8, %xmm3
	.loc	12 320 31 is_stmt 1     # erhs.c:320:31
	movsd	16(%rcx,%rbx), %xmm1    # xmm1 = mem[0],zero
	.loc	12 321 18               # erhs.c:321:18
	mulsd	%xmm9, %xmm3
	.loc	12 321 11 is_stmt 0     # erhs.c:321:11
	subsd	%xmm3, %xmm1
	.loc	12 320 29 is_stmt 1     # erhs.c:320:29
	movsd	%xmm1, 16(%rcx,%rbx)
	.loc	12 317 27               # erhs.c:317:27
	movapd	%xmm11, %xmm1
	mulsd	%xmm6, %xmm1
	movsd	128(%rsp), %xmm2        # 8-byte Reload
                                        # xmm2 = mem[0],zero
	.loc	12 317 21 is_stmt 0     # erhs.c:317:21
	subsd	%xmm1, %xmm2
	.loc	12 318 27 is_stmt 1     # erhs.c:318:27
	movapd	%xmm7, %xmm1
	mulsd	%xmm10, %xmm1
	.loc	12 318 21 is_stmt 0     # erhs.c:318:21
	addsd	%xmm2, %xmm1
	.loc	12 319 27 is_stmt 1     # erhs.c:319:27
	movapd	%xmm0, %xmm2
	mulsd	%xmm6, %xmm2
	.loc	12 319 21 is_stmt 0     # erhs.c:319:21
	subsd	%xmm2, %xmm1
	.loc	12 315 31 is_stmt 1     # erhs.c:315:31
	movsd	24(%r11,%rbx), %xmm2    # xmm2 = mem[0],zero
	.loc	12 316 18               # erhs.c:316:18
	mulsd	%xmm9, %xmm1
	.loc	12 316 11 is_stmt 0     # erhs.c:316:11
	subsd	%xmm1, %xmm2
	.loc	12 315 29 is_stmt 1     # erhs.c:315:29
	movsd	%xmm2, 24(%r11,%rbx)
	.loc	12 322 27               # erhs.c:322:27
	mulsd	%xmm6, %xmm7
	.loc	12 322 21 is_stmt 0     # erhs.c:322:21
	subsd	%xmm7, %xmm11
	.loc	12 323 27 is_stmt 1     # erhs.c:323:27
	mulsd	%xmm5, %xmm0
	.loc	12 323 21 is_stmt 0     # erhs.c:323:21
	addsd	%xmm11, %xmm0
	.loc	12 320 31 is_stmt 1     # erhs.c:320:31
	movsd	24(%rcx,%rbx), %xmm1    # xmm1 = mem[0],zero
	.loc	12 321 18               # erhs.c:321:18
	mulsd	%xmm9, %xmm0
	.loc	12 321 11 is_stmt 0     # erhs.c:321:11
	subsd	%xmm0, %xmm1
	.loc	12 320 29 is_stmt 1     # erhs.c:320:29
	movsd	%xmm1, 24(%rcx,%rbx)
	.loc	12 315 31               # erhs.c:315:31
	movsd	32(%r11,%rbx), %xmm0    # xmm0 = mem[0],zero
	.loc	12 317 27               # erhs.c:317:27
	movapd	%xmm14, %xmm1
	mulsd	%xmm6, %xmm1
	movsd	112(%rsp), %xmm2        # 8-byte Reload
                                        # xmm2 = mem[0],zero
	.loc	12 317 21 is_stmt 0     # erhs.c:317:21
	subsd	%xmm1, %xmm2
	.loc	12 318 27 is_stmt 1     # erhs.c:318:27
	movapd	%xmm12, %xmm1
	mulsd	%xmm10, %xmm1
	.loc	12 318 21 is_stmt 0     # erhs.c:318:21
	addsd	%xmm2, %xmm1
	.loc	12 319 27 is_stmt 1     # erhs.c:319:27
	movapd	%xmm13, %xmm2
	mulsd	%xmm6, %xmm2
	.loc	12 319 21 is_stmt 0     # erhs.c:319:21
	subsd	%xmm2, %xmm1
	.loc	12 316 18 is_stmt 1     # erhs.c:316:18
	mulsd	%xmm9, %xmm1
	.loc	12 316 11 is_stmt 0     # erhs.c:316:11
	subsd	%xmm1, %xmm0
	.loc	12 315 29 is_stmt 1     # erhs.c:315:29
	movsd	%xmm0, 32(%r11,%rbx)
	.loc	12 320 31               # erhs.c:320:31
	movsd	32(%rcx,%rbx), %xmm0    # xmm0 = mem[0],zero
	.loc	12 322 27               # erhs.c:322:27
	mulsd	%xmm6, %xmm12
	.loc	12 322 21 is_stmt 0     # erhs.c:322:21
	subsd	%xmm12, %xmm14
	.loc	12 323 27 is_stmt 1     # erhs.c:323:27
	mulsd	%xmm5, %xmm13
	.loc	12 323 21 is_stmt 0     # erhs.c:323:21
	addsd	%xmm14, %xmm13
	.loc	12 321 18 is_stmt 1     # erhs.c:321:18
	mulsd	%xmm9, %xmm13
	.loc	12 321 11 is_stmt 0     # erhs.c:321:11
	subsd	%xmm13, %xmm0
	.loc	12 320 29 is_stmt 1     # erhs.c:320:29
	movsd	%xmm0, 32(%rcx,%rbx)
.Ltmp329:
	.loc	12 214 5 discriminator 1 # erhs.c:214:5
	incq	%r9
	movq	96(%rsp), %rcx          # 8-byte Reload
	addq	$40, %rcx
	movq	8(%rsp), %rax           # 8-byte Reload
	addq	$40, %rax
	movq	64(%rsp), %rdx          # 8-byte Reload
	addq	$40, %rdx
	movq	%r10, %r15
	addq	$40, %r15
	addq	$40, %rdi
	addq	$40, %r12
	.loc	12 214 21 is_stmt 0 discriminator 1 # erhs.c:214:21
	cmpq	256(%rsp), %r9          # 8-byte Folded Reload
	movq	432(%rsp), %r10         # 8-byte Reload
	movapd	320(%rsp), %xmm10       # 16-byte Reload
	movaps	304(%rsp), %xmm11       # 16-byte Reload
	movsd	.LCPI7_5(%rip), %xmm7   # xmm7 = mem[0],zero
	movapd	%xmm7, %xmm8
.Ltmp330:
	.loc	12 223 49 is_stmt 1     # erhs.c:223:49
	movsd	.LCPI7_6(%rip), %xmm7   # xmm7 = mem[0],zero
	movsd	.LCPI7_7(%rip), %xmm9   # xmm9 = mem[0],zero
	jl	.LBB7_34
.Ltmp331:
.LBB7_47:                               # %for.inc1969
                                        #   in Loop: Header=BB7_33 Depth=1
	movq	(%rsp), %rcx            # 8-byte Reload
	movq	%rcx, %rsi
	.loc	12 213 3 discriminator 1 # erhs.c:213:3
	incq	%rsi
	movq	%rsi, (%rsp)            # 8-byte Spill
	movq	200(%rsp), %r11         # 8-byte Reload
	addq	$169000, %r11           # imm = 0x29428
	movq	176(%rsp), %rcx         # 8-byte Reload
	addq	$169000, %rcx           # imm = 0x29428
	movq	168(%rsp), %rbx         # 8-byte Reload
	addq	$169000, %rbx           # imm = 0x29428
	movq	160(%rsp), %rbp         # 8-byte Reload
	addq	$169000, %rbp           # imm = 0x29428
	movq	184(%rsp), %r15         # 8-byte Reload
	addq	$169000, %r15           # imm = 0x29428
	movq	192(%rsp), %r12         # 8-byte Reload
	addq	$169000, %r12           # imm = 0x29428
	.loc	12 213 17 is_stmt 0 discriminator 1 # erhs.c:213:17
	cmpq	472(%rsp), %rsi         # 8-byte Folded Reload
	jl	.LBB7_33
.Ltmp332:
.LBB7_48:                               # %for.end1971
	.loc	12 331 3 is_stmt 1 discriminator 1 # erhs.c:331:3
	movslq	jst(%rip), %r12
	movslq	jend(%rip), %rax
	movq	%rax, 288(%rsp)         # 8-byte Spill
	cmpl	%eax, %r12d
	jge	.LBB7_64
# BB#49:                                # %for.body1975.lr.ph
	movslq	nz(%rip), %rdx
.Ltmp333:
	.loc	12 346 26 discriminator 1 # erhs.c:346:26
	leaq	-1(%rdx), %rsi
.Ltmp334:
	.loc	12 411 13               # erhs.c:411:13
	movsd	dssp(%rip), %xmm2       # xmm2 = mem[0],zero
.Ltmp335:
	.loc	12 421 26 discriminator 1 # erhs.c:421:26
	movapd	%xmm2, 64(%rsp)         # 16-byte Spill
	leaq	-3(%rdx), %rdi
.Ltmp336:
	.loc	12 434 35               # erhs.c:434:35
	leaq	-5(%rdx), %r10
	.loc	12 435 35               # erhs.c:435:35
	leaq	-4(%rdx), %r9
	.loc	12 437 35               # erhs.c:437:35
	leaq	-2(%rdx), %r8
.Ltmp337:
	.loc	12 381 19               # erhs.c:381:19
	movsd	tz1(%rip), %xmm3        # xmm3 = mem[0],zero
	.loc	12 385 13               # erhs.c:385:13
	movsd	tz3(%rip), %xmm4        # xmm4 = mem[0],zero
	movsd	.LCPI7_0(%rip), %xmm5   # xmm5 = mem[0],zero
	.loc	12 385 17 is_stmt 0     # erhs.c:385:17
	mulsd	%xmm4, %xmm5
	.loc	12 381 17 is_stmt 1     # erhs.c:381:17
	movapd	%xmm5, 128(%rsp)        # 16-byte Spill
	movsd	dz1(%rip), %xmm1        # xmm1 = mem[0],zero
	movhpd	dz2(%rip), %xmm1        # xmm1 = xmm1[0],mem[0]
	movapd	%xmm3, %xmm0
	movlhps	%xmm0, %xmm0            # xmm0 = xmm0[0,0]
	mulpd	%xmm0, %xmm1
	.loc	12 391 17               # erhs.c:391:17
	movapd	%xmm1, 112(%rsp)        # 16-byte Spill
	movsd	dz3(%rip), %xmm1        # xmm1 = mem[0],zero
	movhpd	dz4(%rip), %xmm1        # xmm1 = xmm1[0],mem[0]
	mulpd	%xmm0, %xmm1
	movapd	%xmm1, 80(%rsp)         # 16-byte Spill
	.loc	12 401 17               # erhs.c:401:17
	mulsd	dz5(%rip), %xmm3
	movapd	%xmm3, 96(%rsp)         # 16-byte Spill
	movsd	.LCPI7_1(%rip), %xmm14  # xmm14 = mem[0],zero
.Ltmp338:
	.loc	12 370 32               # erhs.c:370:32
	mulsd	%xmm4, %xmm14
	movsd	%xmm14, (%rsp)          # 8-byte Spill
	movsd	.LCPI7_2(%rip), %xmm13  # xmm13 = mem[0],zero
	.loc	12 372 11               # erhs.c:372:11
	mulsd	%xmm4, %xmm13
	movsd	%xmm13, 336(%rsp)       # 8-byte Spill
	movsd	.LCPI7_3(%rip), %xmm10  # xmm10 = mem[0],zero
	.loc	12 375 11               # erhs.c:375:11
	mulsd	%xmm4, %xmm10
	movsd	%xmm10, 16(%rsp)        # 8-byte Spill
	movsd	.LCPI7_4(%rip), %xmm11  # xmm11 = mem[0],zero
	.loc	12 376 21               # erhs.c:376:21
	mulsd	%xmm4, %xmm11
.Ltmp339:
	.loc	12 349 15               # erhs.c:349:15
	movsd	%xmm11, 24(%rsp)        # 8-byte Spill
	movsd	tz2(%rip), %xmm12       # xmm12 = mem[0],zero
.Ltmp340:
	.loc	12 331 3 discriminator 1 # erhs.c:331:3
	movapd	%xmm12, 256(%rsp)       # 16-byte Spill
	movslq	ist(%rip), %rax
	movq	%rax, 272(%rsp)         # 8-byte Spill
	movslq	iend(%rip), %rbx
.Ltmp341:
	.loc	12 349 19               # erhs.c:349:19
	movq	%rbx, 8(%rsp)           # 8-byte Spill
	movapd	%xmm12, %xmm15
	movlhps	%xmm15, %xmm15          # xmm15 = xmm15[0,0]
.Ltmp342:
	.loc	12 368 26               # erhs.c:368:26
	movaps	%xmm15, 432(%rsp)       # 16-byte Spill
	movlhps	%xmm4, %xmm4            # xmm4 = xmm4[0,0]
.Ltmp343:
	.loc	12 390 27               # erhs.c:390:27
	movaps	%xmm4, 144(%rsp)        # 16-byte Spill
	movapd	%xmm5, %xmm0
	movlhps	%xmm0, %xmm0            # xmm0 = xmm0[0,0]
	movaps	%xmm0, 416(%rsp)        # 16-byte Spill
.Ltmp344:
	.loc	12 424 20               # erhs.c:424:20
	movlhps	%xmm2, %xmm2            # xmm2 = xmm2[0,0]
	movaps	%xmm2, 400(%rsp)        # 16-byte Spill
.Ltmp345:
	.loc	12 331 3 discriminator 1 # erhs.c:331:3
	leaq	(%rax,%rax,4), %rcx
	imulq	$2600, %r12, %rax       # imm = 0xA28
	leaq	rsd+32(%rax,%rcx,8), %r11
	leaq	frct+169032(%rax,%rcx,8), %rbx
	leaq	rsd+169032(%rax,%rcx,8), %rbp
	leaq	(%rax,%rcx,8), %r13
	movsd	.LCPI7_5(%rip), %xmm9   # xmm9 = mem[0],zero
.Ltmp346:
	.loc	12 342 49               # erhs.c:342:49
	movsd	.LCPI7_6(%rip), %xmm7   # xmm7 = mem[0],zero
.Ltmp347:
	.loc	12 434 29               # erhs.c:434:29
	imulq	$169000, %r10, %rcx     # imm = 0x29428
	.loc	12 435 29               # erhs.c:435:29
	movq	%rcx, 384(%rsp)         # 8-byte Spill
	imulq	$169000, %r9, %rcx      # imm = 0x29428
	.loc	12 437 29               # erhs.c:437:29
	movq	%rcx, 368(%rsp)         # 8-byte Spill
	imulq	$169000, %r8, %rcx      # imm = 0x29428
	movq	%rcx, 352(%rsp)         # 8-byte Spill
	movsd	.LCPI7_7(%rip), %xmm8   # xmm8 = mem[0],zero
.Ltmp348:
	.p2align	4, 0x90
.LBB7_50:                               # %for.body1975
                                        # =>This Loop Header: Depth=1
                                        #     Child Loop BB7_51 Depth 2
                                        #       Child Loop BB7_74 Depth 3
                                        #       Child Loop BB7_75 Depth 3
                                        #       Child Loop BB7_55 Depth 3
                                        #       Child Loop BB7_58 Depth 3
                                        #       Child Loop BB7_61 Depth 3
	movq	%r13, 304(%rsp)         # 8-byte Spill
	movq	%rbp, 320(%rsp)         # 8-byte Spill
	movq	%rbx, 48(%rsp)          # 8-byte Spill
	movq	%r11, 56(%rsp)          # 8-byte Spill
	movq	272(%rsp), %r14         # 8-byte Reload
	.loc	12 332 5 discriminator 1 # erhs.c:332:5
	movq	8(%rsp), %rcx           # 8-byte Reload
	cmpl	%ecx, %r14d
	movq	%rbp, %r8
	movq	%rbx, %r9
	movq	%r11, %r10
	movq	%r14, %r11
	jge	.LBB7_63
	.p2align	4, 0x90
.LBB7_51:                               # %for.cond1980.preheader
                                        #   Parent Loop BB7_50 Depth=1
                                        # =>  This Loop Header: Depth=2
                                        #       Child Loop BB7_74 Depth 3
                                        #       Child Loop BB7_75 Depth 3
                                        #       Child Loop BB7_55 Depth 3
                                        #       Child Loop BB7_58 Depth 3
                                        #       Child Loop BB7_61 Depth 3
	testl	%edx, %edx
	movq	%r10, %rax
	movl	$flux+32, %ecx
	movl	$0, %ebx
	jle	.LBB7_52
	.p2align	4, 0x90
.LBB7_74:                               # %for.body1983
                                        #   Parent Loop BB7_50 Depth=1
                                        #     Parent Loop BB7_51 Depth=2
                                        # =>    This Inner Loop Header: Depth=3
.Ltmp349:
	.loc	12 334 22               # erhs.c:334:22
	movq	-8(%rax), %rbp
	.loc	12 334 20 is_stmt 0     # erhs.c:334:20
	movq	%rbp, -32(%rcx)
	.loc	12 335 33 is_stmt 1     # erhs.c:335:33
	movsd	-32(%rax), %xmm2        # xmm2 = mem[0],zero
	.loc	12 335 15 is_stmt 0     # erhs.c:335:15
	movd	%rbp, %xmm1
	.loc	12 335 31               # erhs.c:335:31
	movapd	%xmm1, %xmm0
	divsd	%xmm2, %xmm0
.Ltmp350:
	#DEBUG_VALUE: erhs:u41 <- %XMM0
	.loc	12 336 23 is_stmt 1     # erhs.c:336:23
	movupd	-24(%rax), %xmm3
	.loc	12 337 39               # erhs.c:337:39
	movapd	%xmm3, %xmm4
	.loc	12 340 38               # erhs.c:340:38
	movapd	%xmm0, %xmm5
	movlhps	%xmm5, %xmm5            # xmm5 = xmm5[0,0]
	mulpd	%xmm3, %xmm5
	.loc	12 336 39               # erhs.c:336:39
	mulsd	%xmm3, %xmm3
	.loc	12 337 39               # erhs.c:337:39
	shufpd	$1, %xmm4, %xmm4        # xmm4 = xmm4[1,0]
	mulsd	%xmm4, %xmm4
	.loc	12 342 38               # erhs.c:342:38
	movapd	%xmm0, %xmm6
	.loc	12 337 21               # erhs.c:337:21
	addsd	%xmm3, %xmm4
	.loc	12 342 38               # erhs.c:342:38
	mulsd	%xmm1, %xmm6
	.loc	12 338 39               # erhs.c:338:39
	mulsd	%xmm1, %xmm1
	.loc	12 338 21 is_stmt 0     # erhs.c:338:21
	addsd	%xmm4, %xmm1
	.loc	12 336 18 is_stmt 1     # erhs.c:336:18
	mulsd	%xmm9, %xmm1
	.loc	12 339 18               # erhs.c:339:18
	divsd	%xmm2, %xmm1
.Ltmp351:
	#DEBUG_VALUE: erhs:q <- %XMM1
	.loc	12 340 20               # erhs.c:340:20
	movupd	%xmm5, -24(%rcx)
	.loc	12 342 53               # erhs.c:342:53
	movsd	(%rax), %xmm2           # xmm2 = mem[0],zero
	.loc	12 342 69 is_stmt 0     # erhs.c:342:69
	movapd	%xmm2, %xmm3
	subsd	%xmm1, %xmm3
	.loc	12 342 49               # erhs.c:342:49
	mulsd	%xmm7, %xmm3
	.loc	12 342 44               # erhs.c:342:44
	addsd	%xmm6, %xmm3
	.loc	12 343 27 is_stmt 1     # erhs.c:343:27
	mulsd	%xmm8, %xmm2
	.loc	12 342 20               # erhs.c:342:20
	movsd	%xmm3, -8(%rcx)
	.loc	12 343 50               # erhs.c:343:50
	mulsd	%xmm7, %xmm1
.Ltmp352:
	.loc	12 343 45 is_stmt 0     # erhs.c:343:45
	subsd	%xmm1, %xmm2
	.loc	12 343 56               # erhs.c:343:56
	mulsd	%xmm0, %xmm2
	.loc	12 343 20               # erhs.c:343:20
	movsd	%xmm2, (%rcx)
.Ltmp353:
	.loc	12 333 7 is_stmt 1 discriminator 1 # erhs.c:333:7
	incq	%rbx
	.loc	12 333 21 is_stmt 0 discriminator 1 # erhs.c:333:21
	addq	$40, %rcx
	addq	$169000, %rax           # imm = 0x29428
	cmpq	%rdx, %rbx
	jl	.LBB7_74
.Ltmp354:
.LBB7_52:                               # %for.cond2125.preheader
                                        #   in Loop: Header=BB7_51 Depth=2
	movapd	%xmm11, %xmm5
	movapd	%xmm10, %xmm4
	movapd	%xmm13, %xmm8
	movapd	%xmm14, %xmm9
	cmpl	$1, %esi
	movl	$flux+112, %eax
	movq	%r9, %rcx
	movl	$1, %ebx
	jle	.LBB7_53
	.p2align	4, 0x90
.LBB7_75:                               # %for.cond2130.preheader
                                        #   Parent Loop BB7_50 Depth=1
                                        #     Parent Loop BB7_51 Depth=2
                                        # =>    This Inner Loop Header: Depth=3
.Ltmp355:
	.loc	12 346 7 is_stmt 1 discriminator 1 # erhs.c:346:7
	incq	%rbx
.Ltmp356:
	.loc	12 348 31               # erhs.c:348:31
	movupd	-32(%rcx), %xmm0
	.loc	12 349 23               # erhs.c:349:23
	movupd	-32(%rax), %xmm1
	.loc	12 349 38 is_stmt 0     # erhs.c:349:38
	movupd	-112(%rax), %xmm2
	.loc	12 349 36               # erhs.c:349:36
	subpd	%xmm2, %xmm1
	.loc	12 349 19               # erhs.c:349:19
	mulpd	%xmm15, %xmm1
	.loc	12 349 13               # erhs.c:349:13
	subpd	%xmm1, %xmm0
	.loc	12 348 28 is_stmt 1     # erhs.c:348:28
	movupd	%xmm0, -32(%rcx)
	.loc	12 348 31 is_stmt 0     # erhs.c:348:31
	movupd	-16(%rcx), %xmm0
	.loc	12 349 23 is_stmt 1     # erhs.c:349:23
	movupd	-16(%rax), %xmm1
	.loc	12 349 38 is_stmt 0     # erhs.c:349:38
	movupd	-96(%rax), %xmm2
	.loc	12 349 36               # erhs.c:349:36
	subpd	%xmm2, %xmm1
	.loc	12 349 19               # erhs.c:349:19
	mulpd	%xmm15, %xmm1
	.loc	12 349 13               # erhs.c:349:13
	subpd	%xmm1, %xmm0
	.loc	12 348 28 is_stmt 1     # erhs.c:348:28
	movupd	%xmm0, -16(%rcx)
	.loc	12 348 31 is_stmt 0     # erhs.c:348:31
	movsd	(%rcx), %xmm0           # xmm0 = mem[0],zero
	.loc	12 349 23 is_stmt 1     # erhs.c:349:23
	movsd	(%rax), %xmm1           # xmm1 = mem[0],zero
	.loc	12 349 36 is_stmt 0     # erhs.c:349:36
	subsd	-80(%rax), %xmm1
	.loc	12 349 19               # erhs.c:349:19
	mulsd	%xmm12, %xmm1
	.loc	12 349 13               # erhs.c:349:13
	subsd	%xmm1, %xmm0
	.loc	12 348 28 is_stmt 1     # erhs.c:348:28
	movsd	%xmm0, (%rcx)
.Ltmp357:
	.loc	12 346 21 discriminator 1 # erhs.c:346:21
	addq	$169000, %rcx           # imm = 0x29428
	addq	$40, %rax
	cmpq	%rsi, %rbx
	jl	.LBB7_75
.Ltmp358:
.LBB7_53:                               # %for.cond2169.preheader
                                        #   in Loop: Header=BB7_51 Depth=2
	.loc	12 353 7 discriminator 1 # erhs.c:353:7
	cmpl	$2, %edx
	movapd	%xmm4, %xmm12
	movapd	%xmm5, %xmm15
.Ltmp359:
	.loc	12 354 19               # erhs.c:354:19
	movsd	.LCPI7_8(%rip), %xmm13  # xmm13 = mem[0],zero
	movapd	144(%rsp), %xmm14       # 16-byte Reload
	jl	.LBB7_56
# BB#54:                                # %for.body2172.lr.ph
                                        #   in Loop: Header=BB7_51 Depth=2
	.loc	12 361 21               # erhs.c:361:21
	leaq	(%r11,%r11,4), %rax
	imulq	$2600, %r12, %rcx       # imm = 0xA28
	movsd	rsd(%rcx,%rax,8), %xmm10 # xmm10 = mem[0],zero
	.loc	12 363 24               # erhs.c:363:24
	movupd	rsd+8(%rcx,%rax,8), %xmm5
	.loc	12 365 24               # erhs.c:365:24
	movsd	rsd+24(%rcx,%rax,8), %xmm4 # xmm4 = mem[0],zero
	.loc	12 366 24               # erhs.c:366:24
	movsd	rsd+32(%rcx,%rax,8), %xmm0 # xmm0 = mem[0],zero
	movl	$flux+72, %eax
	movq	%r8, %rcx
	movl	$1, %ebx
	.p2align	4, 0x90
.LBB7_55:                               # %for.body2172
                                        #   Parent Loop BB7_50 Depth=1
                                        #     Parent Loop BB7_51 Depth=2
                                        # =>    This Inner Loop Header: Depth=3
	.loc	12 361 19               # erhs.c:361:19
	movapd	%xmm13, %xmm3
	divsd	%xmm10, %xmm3
.Ltmp360:
	#DEBUG_VALUE: erhs:tmp <- %XMM3
	.loc	12 354 21               # erhs.c:354:21
	movsd	-32(%rcx), %xmm10       # xmm10 = mem[0],zero
	.loc	12 358 22               # erhs.c:358:22
	movsd	-8(%rcx), %xmm11        # xmm11 = mem[0],zero
	.loc	12 354 19               # erhs.c:354:19
	movapd	%xmm13, %xmm2
	divsd	%xmm10, %xmm2
.Ltmp361:
	#DEBUG_VALUE: erhs:tmp <- %XMM2
	.loc	12 363 22               # erhs.c:363:22
	movapd	%xmm3, %xmm1
	movlhps	%xmm1, %xmm1            # xmm1 = xmm1[0,0]
	mulpd	%xmm5, %xmm1
	.loc	12 356 22               # erhs.c:356:22
	movupd	-24(%rcx), %xmm5
	.loc	12 356 20 is_stmt 0     # erhs.c:356:20
	movapd	%xmm2, %xmm7
	movlhps	%xmm7, %xmm7            # xmm7 = xmm7[0,0]
	mulpd	%xmm5, %xmm7
	.loc	12 358 20 is_stmt 1     # erhs.c:358:20
	movapd	%xmm2, %xmm6
	mulsd	%xmm11, %xmm6
.Ltmp362:
	#DEBUG_VALUE: erhs:u41k <- %XMM6
	.loc	12 365 22               # erhs.c:365:22
	mulsd	%xmm3, %xmm4
.Ltmp363:
	#DEBUG_VALUE: erhs:u41km1 <- %XMM4
	.loc	12 366 22               # erhs.c:366:22
	mulsd	%xmm0, %xmm3
.Ltmp364:
	#DEBUG_VALUE: erhs:u51km1 <- %XMM3
	.loc	12 368 35               # erhs.c:368:35
	movapd	%xmm7, %xmm0
	subpd	%xmm1, %xmm0
	.loc	12 368 26 is_stmt 0     # erhs.c:368:26
	mulpd	%xmm14, %xmm0
	.loc	12 368 20               # erhs.c:368:20
	movupd	%xmm0, -24(%rax)
	.loc	12 370 47 is_stmt 1     # erhs.c:370:47
	movapd	%xmm6, %xmm0
	subsd	%xmm4, %xmm0
	.loc	12 370 38 is_stmt 0     # erhs.c:370:38
	mulsd	%xmm9, %xmm0
	.loc	12 370 20               # erhs.c:370:20
	movsd	%xmm0, -8(%rax)
	.loc	12 372 27 is_stmt 1     # erhs.c:372:27
	movapd	%xmm7, %xmm0
	mulsd	%xmm0, %xmm0
	.loc	12 372 43 is_stmt 0     # erhs.c:372:43
	shufpd	$1, %xmm7, %xmm7        # xmm7 = xmm7[1,0]
	mulsd	%xmm7, %xmm7
	.loc	12 372 37               # erhs.c:372:37
	addsd	%xmm0, %xmm7
	.loc	12 373 29 is_stmt 1     # erhs.c:373:29
	movapd	%xmm1, %xmm0
	mulsd	%xmm0, %xmm0
	.loc	12 373 45 is_stmt 0     # erhs.c:373:45
	shufpd	$1, %xmm1, %xmm1        # xmm1 = xmm1[1,0]
	mulsd	%xmm1, %xmm1
	.loc	12 373 37               # erhs.c:373:37
	addsd	%xmm0, %xmm1
	.loc	12 372 59 is_stmt 1     # erhs.c:372:59
	mulsd	%xmm6, %xmm6
.Ltmp365:
	.loc	12 372 53 is_stmt 0     # erhs.c:372:53
	addsd	%xmm6, %xmm7
	.loc	12 373 61 is_stmt 1     # erhs.c:373:61
	mulsd	%xmm4, %xmm4
.Ltmp366:
	.loc	12 373 53 is_stmt 0     # erhs.c:373:53
	addsd	%xmm4, %xmm1
	.loc	12 373 19               # erhs.c:373:19
	subsd	%xmm1, %xmm7
	.loc	12 375 31 is_stmt 1     # erhs.c:375:31
	subsd	%xmm4, %xmm6
	.loc	12 372 17               # erhs.c:372:17
	mulsd	%xmm8, %xmm7
	.loc	12 375 17               # erhs.c:375:17
	mulsd	%xmm12, %xmm6
	.loc	12 374 11               # erhs.c:374:11
	addsd	%xmm7, %xmm6
	.loc	12 359 22               # erhs.c:359:22
	movsd	(%rcx), %xmm0           # xmm0 = mem[0],zero
	.loc	12 359 20 is_stmt 0     # erhs.c:359:20
	mulsd	%xmm0, %xmm2
.Ltmp367:
	#DEBUG_VALUE: erhs:u51k <- %XMM2
	.loc	12 376 36 is_stmt 1     # erhs.c:376:36
	subsd	%xmm3, %xmm2
.Ltmp368:
	.loc	12 376 27 is_stmt 0     # erhs.c:376:27
	mulsd	%xmm15, %xmm2
	.loc	12 376 11               # erhs.c:376:11
	addsd	%xmm6, %xmm2
	.loc	12 371 20 is_stmt 1     # erhs.c:371:20
	movsd	%xmm2, (%rax)
.Ltmp369:
	.loc	12 353 7 discriminator 1 # erhs.c:353:7
	incq	%rbx
	.loc	12 353 21 is_stmt 0 discriminator 1 # erhs.c:353:21
	addq	$169000, %rcx           # imm = 0x29428
	addq	$40, %rax
	cmpq	%rdx, %rbx
.Ltmp370:
	.loc	12 365 24 is_stmt 1     # erhs.c:365:24
	movapd	%xmm11, %xmm4
	jl	.LBB7_55
.Ltmp371:
.LBB7_56:                               # %for.cond2303.preheader
                                        #   in Loop: Header=BB7_51 Depth=2
	.loc	12 379 7 discriminator 1 # erhs.c:379:7
	cmpl	$2, %esi
	movapd	80(%rsp), %xmm13        # 16-byte Reload
	movapd	416(%rsp), %xmm8        # 16-byte Reload
	movapd	96(%rsp), %xmm9         # 16-byte Reload
	movapd	112(%rsp), %xmm12       # 16-byte Reload
	movapd	128(%rsp), %xmm14       # 16-byte Reload
	jl	.LBB7_59
# BB#57:                                # %for.body2307.lr.ph
                                        #   in Loop: Header=BB7_51 Depth=2
.Ltmp372:
	.loc	12 382 34               # erhs.c:382:34
	leaq	(%r11,%r11,4), %rax
	imulq	$2600, %r12, %rcx       # imm = 0xA28
	.loc	12 385 46               # erhs.c:385:46
	movsd	flux+48(%rip), %xmm2    # xmm2 = mem[0],zero
	.loc	12 382 34               # erhs.c:382:34
	movupd	rsd+169000(%rcx,%rax,8), %xmm3
	.loc	12 390 46               # erhs.c:390:46
	movupd	flux+56(%rip), %xmm1
	.loc	12 392 34               # erhs.c:392:34
	movupd	rsd+169016(%rcx,%rax,8), %xmm6
	.loc	12 400 46               # erhs.c:400:46
	movsd	flux+72(%rip), %xmm5    # xmm5 = mem[0],zero
	.loc	12 402 34               # erhs.c:402:34
	movsd	rsd+169032(%rcx,%rax,8), %xmm4 # xmm4 = mem[0],zero
	movl	$flux+112, %eax
	movq	%r13, %rcx
	movl	$1, %ebx
.Ltmp373:
	.p2align	4, 0x90
.LBB7_58:                               # %for.body2307
                                        #   Parent Loop BB7_50 Depth=1
                                        #     Parent Loop BB7_51 Depth=2
                                        # =>    This Inner Loop Header: Depth=3
	.loc	12 379 7 discriminator 1 # erhs.c:379:7
	incq	%rbx
.Ltmp374:
	.loc	12 385 31               # erhs.c:385:31
	movsd	-24(%rax), %xmm10       # xmm10 = mem[0],zero
	.loc	12 385 44 is_stmt 0     # erhs.c:385:44
	movapd	%xmm10, %xmm0
	subsd	%xmm2, %xmm0
	.loc	12 385 27               # erhs.c:385:27
	mulsd	%xmm14, %xmm0
	.loc	12 385 11               # erhs.c:385:11
	addsd	frct+169008(%rcx), %xmm0
	.loc	12 381 34 is_stmt 1     # erhs.c:381:34
	movupd	rsd+338000(%rcx), %xmm11
	.loc	12 382 32               # erhs.c:382:32
	addpd	%xmm3, %xmm3
	.loc	12 382 26 is_stmt 0     # erhs.c:382:26
	movapd	%xmm11, %xmm2
	subpd	%xmm3, %xmm2
	.loc	12 383 34 is_stmt 1     # erhs.c:383:34
	movupd	rsd(%rcx), %xmm3
	.loc	12 383 26 is_stmt 0     # erhs.c:383:26
	addpd	%xmm2, %xmm3
	.loc	12 381 23 is_stmt 1     # erhs.c:381:23
	mulpd	%xmm12, %xmm3
	.loc	12 381 11 is_stmt 0     # erhs.c:381:11
	movsd	frct+169000(%rcx), %xmm2 # xmm2 = mem[0],zero
	unpcklpd	%xmm0, %xmm2    # xmm2 = xmm2[0],xmm0[0]
	addpd	%xmm3, %xmm2
	.loc	12 380 26 is_stmt 1     # erhs.c:380:26
	movupd	%xmm2, frct+169000(%rcx)
	.loc	12 389 28               # erhs.c:389:28
	movupd	frct+169016(%rcx), %xmm0
	.loc	12 390 31               # erhs.c:390:31
	movupd	-16(%rax), %xmm7
	.loc	12 390 44 is_stmt 0     # erhs.c:390:44
	movapd	%xmm7, %xmm2
	subpd	%xmm1, %xmm2
	.loc	12 390 27               # erhs.c:390:27
	mulpd	%xmm8, %xmm2
	.loc	12 390 11               # erhs.c:390:11
	addpd	%xmm0, %xmm2
	.loc	12 391 34 is_stmt 1     # erhs.c:391:34
	movupd	rsd+338016(%rcx), %xmm0
	.loc	12 392 32               # erhs.c:392:32
	addpd	%xmm6, %xmm6
	.loc	12 392 26 is_stmt 0     # erhs.c:392:26
	movapd	%xmm0, %xmm1
	subpd	%xmm6, %xmm1
	.loc	12 393 34 is_stmt 1     # erhs.c:393:34
	movupd	rsd+16(%rcx), %xmm3
	.loc	12 393 26 is_stmt 0     # erhs.c:393:26
	addpd	%xmm1, %xmm3
	.loc	12 391 23 is_stmt 1     # erhs.c:391:23
	mulpd	%xmm13, %xmm3
	.loc	12 391 11 is_stmt 0     # erhs.c:391:11
	addpd	%xmm2, %xmm3
	.loc	12 389 26 is_stmt 1     # erhs.c:389:26
	movupd	%xmm3, frct+169016(%rcx)
	.loc	12 400 31               # erhs.c:400:31
	movsd	(%rax), %xmm1           # xmm1 = mem[0],zero
	.loc	12 400 44 is_stmt 0     # erhs.c:400:44
	movapd	%xmm1, %xmm2
	subsd	%xmm5, %xmm2
	.loc	12 400 27               # erhs.c:400:27
	mulsd	%xmm14, %xmm2
	.loc	12 400 11               # erhs.c:400:11
	addsd	frct+169032(%rcx), %xmm2
	.loc	12 401 34 is_stmt 1     # erhs.c:401:34
	movsd	rsd+338032(%rcx), %xmm3 # xmm3 = mem[0],zero
	.loc	12 402 32               # erhs.c:402:32
	addsd	%xmm4, %xmm4
	.loc	12 402 26 is_stmt 0     # erhs.c:402:26
	movapd	%xmm3, %xmm5
	subsd	%xmm4, %xmm5
	.loc	12 403 26 is_stmt 1     # erhs.c:403:26
	addsd	rsd+32(%rcx), %xmm5
	.loc	12 401 23               # erhs.c:401:23
	mulsd	%xmm9, %xmm5
	.loc	12 401 11 is_stmt 0     # erhs.c:401:11
	addsd	%xmm2, %xmm5
	.loc	12 399 26 is_stmt 1     # erhs.c:399:26
	movsd	%xmm5, frct+169032(%rcx)
.Ltmp375:
	.loc	12 379 21 discriminator 1 # erhs.c:379:21
	addq	$169000, %rcx           # imm = 0x29428
	addq	$40, %rax
	cmpq	%rsi, %rbx
.Ltmp376:
	.loc	12 402 34               # erhs.c:402:34
	movapd	%xmm3, %xmm4
	.loc	12 400 46               # erhs.c:400:46
	movapd	%xmm1, %xmm5
	.loc	12 385 46               # erhs.c:385:46
	movapd	%xmm10, %xmm2
	.loc	12 382 34               # erhs.c:382:34
	movapd	%xmm11, %xmm3
	.loc	12 390 46               # erhs.c:390:46
	movapd	%xmm7, %xmm1
	.loc	12 392 34               # erhs.c:392:34
	movapd	%xmm0, %xmm6
	jl	.LBB7_58
.Ltmp377:
.LBB7_59:                               # %for.body2577
                                        #   in Loop: Header=BB7_51 Depth=2
	.loc	12 410 28               # erhs.c:410:28
	imulq	$2600, %r12, %r14       # imm = 0xA28
	cmpl	$3, %edi
	leaq	(%r11,%r11,4), %r15
	movsd	frct+169000(%r14,%r15,8), %xmm0 # xmm0 = mem[0],zero
	.loc	12 411 30               # erhs.c:411:30
	movsd	rsd+169000(%r14,%r15,8), %xmm1 # xmm1 = mem[0],zero
	.loc	12 411 28 is_stmt 0     # erhs.c:411:28
	movapd	%xmm1, %xmm2
	movsd	.LCPI7_9(%rip), %xmm5   # xmm5 = mem[0],zero
	mulsd	%xmm5, %xmm2
	.loc	12 412 30 is_stmt 1     # erhs.c:412:30
	movsd	rsd+338000(%r14,%r15,8), %xmm3 # xmm3 = mem[0],zero
	.loc	12 412 28 is_stmt 0     # erhs.c:412:28
	movapd	%xmm3, %xmm4
	movsd	.LCPI7_10(%rip), %xmm6  # xmm6 = mem[0],zero
	mulsd	%xmm6, %xmm4
	.loc	12 412 22               # erhs.c:412:22
	subsd	%xmm4, %xmm2
	.loc	12 413 30 is_stmt 1     # erhs.c:413:30
	movsd	rsd+507000(%r14,%r15,8), %xmm4 # xmm4 = mem[0],zero
	.loc	12 413 22 is_stmt 0     # erhs.c:413:22
	addsd	%xmm4, %xmm2
	movapd	64(%rsp), %xmm7         # 16-byte Reload
	.loc	12 411 18 is_stmt 1     # erhs.c:411:18
	mulsd	%xmm7, %xmm2
	.loc	12 411 11 is_stmt 0     # erhs.c:411:11
	subsd	%xmm2, %xmm0
	.loc	12 410 26 is_stmt 1     # erhs.c:410:26
	movsd	%xmm0, frct+169000(%r14,%r15,8)
	.loc	12 414 28               # erhs.c:414:28
	movsd	frct+338000(%r14,%r15,8), %xmm0 # xmm0 = mem[0],zero
	.loc	12 415 28               # erhs.c:415:28
	mulsd	%xmm6, %xmm1
	.loc	12 416 28               # erhs.c:416:28
	movsd	.LCPI7_11(%rip), %xmm2  # xmm2 = mem[0],zero
	movapd	%xmm2, %xmm8
	mulsd	%xmm8, %xmm3
	.loc	12 415 28               # erhs.c:415:28
	subsd	%xmm1, %xmm3
	.loc	12 417 28               # erhs.c:417:28
	mulsd	%xmm6, %xmm4
	.loc	12 417 22 is_stmt 0     # erhs.c:417:22
	subsd	%xmm4, %xmm3
	.loc	12 418 22 is_stmt 1     # erhs.c:418:22
	addsd	rsd+676000(%r14,%r15,8), %xmm3
	.loc	12 415 18               # erhs.c:415:18
	mulsd	%xmm7, %xmm3
	.loc	12 415 11 is_stmt 0     # erhs.c:415:11
	subsd	%xmm3, %xmm0
	.loc	12 414 26 is_stmt 1     # erhs.c:414:26
	movsd	%xmm0, frct+338000(%r14,%r15,8)
	.loc	12 410 28               # erhs.c:410:28
	movsd	frct+169008(%r14,%r15,8), %xmm0 # xmm0 = mem[0],zero
	.loc	12 411 30               # erhs.c:411:30
	movsd	rsd+169008(%r14,%r15,8), %xmm1 # xmm1 = mem[0],zero
	.loc	12 411 28 is_stmt 0     # erhs.c:411:28
	movapd	%xmm1, %xmm2
	mulsd	%xmm5, %xmm2
	.loc	12 412 30 is_stmt 1     # erhs.c:412:30
	movsd	rsd+338008(%r14,%r15,8), %xmm3 # xmm3 = mem[0],zero
	.loc	12 412 28 is_stmt 0     # erhs.c:412:28
	movapd	%xmm3, %xmm4
	mulsd	%xmm6, %xmm4
	.loc	12 412 22               # erhs.c:412:22
	subsd	%xmm4, %xmm2
	.loc	12 413 30 is_stmt 1     # erhs.c:413:30
	movsd	rsd+507008(%r14,%r15,8), %xmm4 # xmm4 = mem[0],zero
	.loc	12 413 22 is_stmt 0     # erhs.c:413:22
	addsd	%xmm4, %xmm2
	.loc	12 411 18 is_stmt 1     # erhs.c:411:18
	mulsd	%xmm7, %xmm2
	.loc	12 411 11 is_stmt 0     # erhs.c:411:11
	subsd	%xmm2, %xmm0
	.loc	12 410 26 is_stmt 1     # erhs.c:410:26
	movsd	%xmm0, frct+169008(%r14,%r15,8)
	.loc	12 414 28               # erhs.c:414:28
	movsd	frct+338008(%r14,%r15,8), %xmm0 # xmm0 = mem[0],zero
	.loc	12 415 28               # erhs.c:415:28
	mulsd	%xmm6, %xmm1
	.loc	12 416 28               # erhs.c:416:28
	mulsd	%xmm8, %xmm3
	.loc	12 415 28               # erhs.c:415:28
	subsd	%xmm1, %xmm3
	.loc	12 417 28               # erhs.c:417:28
	mulsd	%xmm6, %xmm4
	.loc	12 417 22 is_stmt 0     # erhs.c:417:22
	subsd	%xmm4, %xmm3
	.loc	12 418 22 is_stmt 1     # erhs.c:418:22
	addsd	rsd+676008(%r14,%r15,8), %xmm3
	.loc	12 415 18               # erhs.c:415:18
	mulsd	%xmm7, %xmm3
	.loc	12 415 11 is_stmt 0     # erhs.c:415:11
	subsd	%xmm3, %xmm0
	.loc	12 414 26 is_stmt 1     # erhs.c:414:26
	movsd	%xmm0, frct+338008(%r14,%r15,8)
	.loc	12 410 28               # erhs.c:410:28
	movsd	frct+169016(%r14,%r15,8), %xmm0 # xmm0 = mem[0],zero
	.loc	12 411 30               # erhs.c:411:30
	movsd	rsd+169016(%r14,%r15,8), %xmm1 # xmm1 = mem[0],zero
	.loc	12 411 28 is_stmt 0     # erhs.c:411:28
	movapd	%xmm1, %xmm2
	mulsd	%xmm5, %xmm2
	.loc	12 412 30 is_stmt 1     # erhs.c:412:30
	movsd	rsd+338016(%r14,%r15,8), %xmm3 # xmm3 = mem[0],zero
	.loc	12 412 28 is_stmt 0     # erhs.c:412:28
	movapd	%xmm3, %xmm4
	mulsd	%xmm6, %xmm4
	.loc	12 412 22               # erhs.c:412:22
	subsd	%xmm4, %xmm2
	.loc	12 413 30 is_stmt 1     # erhs.c:413:30
	movsd	rsd+507016(%r14,%r15,8), %xmm4 # xmm4 = mem[0],zero
	.loc	12 413 22 is_stmt 0     # erhs.c:413:22
	addsd	%xmm4, %xmm2
	.loc	12 411 18 is_stmt 1     # erhs.c:411:18
	mulsd	%xmm7, %xmm2
	.loc	12 411 11 is_stmt 0     # erhs.c:411:11
	subsd	%xmm2, %xmm0
	.loc	12 410 26 is_stmt 1     # erhs.c:410:26
	movsd	%xmm0, frct+169016(%r14,%r15,8)
	.loc	12 414 28               # erhs.c:414:28
	movsd	frct+338016(%r14,%r15,8), %xmm0 # xmm0 = mem[0],zero
	.loc	12 415 28               # erhs.c:415:28
	mulsd	%xmm6, %xmm1
	.loc	12 416 28               # erhs.c:416:28
	mulsd	%xmm8, %xmm3
	.loc	12 415 28               # erhs.c:415:28
	subsd	%xmm1, %xmm3
	.loc	12 417 28               # erhs.c:417:28
	mulsd	%xmm6, %xmm4
	.loc	12 417 22 is_stmt 0     # erhs.c:417:22
	subsd	%xmm4, %xmm3
	.loc	12 418 22 is_stmt 1     # erhs.c:418:22
	addsd	rsd+676016(%r14,%r15,8), %xmm3
	.loc	12 415 18               # erhs.c:415:18
	mulsd	%xmm7, %xmm3
	.loc	12 415 11 is_stmt 0     # erhs.c:415:11
	subsd	%xmm3, %xmm0
	.loc	12 414 26 is_stmt 1     # erhs.c:414:26
	movsd	%xmm0, frct+338016(%r14,%r15,8)
	.loc	12 410 28               # erhs.c:410:28
	movsd	frct+169024(%r14,%r15,8), %xmm0 # xmm0 = mem[0],zero
	.loc	12 411 30               # erhs.c:411:30
	movsd	rsd+169024(%r14,%r15,8), %xmm1 # xmm1 = mem[0],zero
	.loc	12 411 28 is_stmt 0     # erhs.c:411:28
	movapd	%xmm1, %xmm2
	mulsd	%xmm5, %xmm2
	.loc	12 412 30 is_stmt 1     # erhs.c:412:30
	movsd	rsd+338024(%r14,%r15,8), %xmm3 # xmm3 = mem[0],zero
	.loc	12 412 28 is_stmt 0     # erhs.c:412:28
	movapd	%xmm3, %xmm4
	mulsd	%xmm6, %xmm4
	.loc	12 412 22               # erhs.c:412:22
	subsd	%xmm4, %xmm2
	.loc	12 413 30 is_stmt 1     # erhs.c:413:30
	movsd	rsd+507024(%r14,%r15,8), %xmm4 # xmm4 = mem[0],zero
	.loc	12 413 22 is_stmt 0     # erhs.c:413:22
	addsd	%xmm4, %xmm2
	.loc	12 411 18 is_stmt 1     # erhs.c:411:18
	mulsd	%xmm7, %xmm2
	.loc	12 411 11 is_stmt 0     # erhs.c:411:11
	subsd	%xmm2, %xmm0
	.loc	12 410 26 is_stmt 1     # erhs.c:410:26
	movsd	%xmm0, frct+169024(%r14,%r15,8)
	.loc	12 414 28               # erhs.c:414:28
	movsd	frct+338024(%r14,%r15,8), %xmm0 # xmm0 = mem[0],zero
	.loc	12 415 28               # erhs.c:415:28
	mulsd	%xmm6, %xmm1
	.loc	12 416 28               # erhs.c:416:28
	mulsd	%xmm8, %xmm3
	.loc	12 415 28               # erhs.c:415:28
	subsd	%xmm1, %xmm3
	.loc	12 417 28               # erhs.c:417:28
	mulsd	%xmm6, %xmm4
	.loc	12 417 22 is_stmt 0     # erhs.c:417:22
	subsd	%xmm4, %xmm3
	.loc	12 418 22 is_stmt 1     # erhs.c:418:22
	addsd	rsd+676024(%r14,%r15,8), %xmm3
	.loc	12 415 18               # erhs.c:415:18
	mulsd	%xmm7, %xmm3
	.loc	12 415 11 is_stmt 0     # erhs.c:415:11
	subsd	%xmm3, %xmm0
	.loc	12 414 26 is_stmt 1     # erhs.c:414:26
	movsd	%xmm0, frct+338024(%r14,%r15,8)
	.loc	12 410 28               # erhs.c:410:28
	movsd	frct+169032(%r14,%r15,8), %xmm0 # xmm0 = mem[0],zero
	.loc	12 411 30               # erhs.c:411:30
	movsd	rsd+169032(%r14,%r15,8), %xmm1 # xmm1 = mem[0],zero
	.loc	12 411 28 is_stmt 0     # erhs.c:411:28
	movapd	%xmm1, %xmm2
	mulsd	%xmm5, %xmm2
	.loc	12 412 30 is_stmt 1     # erhs.c:412:30
	movsd	rsd+338032(%r14,%r15,8), %xmm3 # xmm3 = mem[0],zero
	.loc	12 412 28 is_stmt 0     # erhs.c:412:28
	movapd	%xmm3, %xmm4
	mulsd	%xmm6, %xmm4
	.loc	12 412 22               # erhs.c:412:22
	subsd	%xmm4, %xmm2
	.loc	12 413 30 is_stmt 1     # erhs.c:413:30
	movsd	rsd+507032(%r14,%r15,8), %xmm4 # xmm4 = mem[0],zero
	.loc	12 413 22 is_stmt 0     # erhs.c:413:22
	addsd	%xmm4, %xmm2
	.loc	12 411 18 is_stmt 1     # erhs.c:411:18
	mulsd	%xmm7, %xmm2
	.loc	12 411 11 is_stmt 0     # erhs.c:411:11
	subsd	%xmm2, %xmm0
	.loc	12 410 26 is_stmt 1     # erhs.c:410:26
	movsd	%xmm0, frct+169032(%r14,%r15,8)
	.loc	12 414 28               # erhs.c:414:28
	movsd	frct+338032(%r14,%r15,8), %xmm0 # xmm0 = mem[0],zero
	.loc	12 415 28               # erhs.c:415:28
	mulsd	%xmm6, %xmm1
	.loc	12 416 28               # erhs.c:416:28
	mulsd	%xmm8, %xmm3
	.loc	12 415 28               # erhs.c:415:28
	subsd	%xmm1, %xmm3
	.loc	12 417 28               # erhs.c:417:28
	mulsd	%xmm6, %xmm4
	.loc	12 417 22 is_stmt 0     # erhs.c:417:22
	subsd	%xmm4, %xmm3
	.loc	12 418 22 is_stmt 1     # erhs.c:418:22
	addsd	rsd+676032(%r14,%r15,8), %xmm3
	.loc	12 415 18               # erhs.c:415:18
	mulsd	%xmm7, %xmm3
	.loc	12 415 11 is_stmt 0     # erhs.c:415:11
	subsd	%xmm3, %xmm0
	#DEBUG_VALUE: erhs:m <- 0
	.loc	12 414 26 is_stmt 1     # erhs.c:414:26
	movsd	%xmm0, frct+338032(%r14,%r15,8)
	movapd	400(%rsp), %xmm2        # 16-byte Reload
.Ltmp378:
	.loc	12 425 29               # erhs.c:425:29
	movapd	.LCPI7_12(%rip), %xmm9  # xmm9 = [4.000000e+00,4.000000e+00]
	movapd	%xmm9, %xmm4
	.loc	12 426 29               # erhs.c:426:29
	movapd	.LCPI7_13(%rip), %xmm8  # xmm8 = [6.000000e+00,6.000000e+00]
	movapd	%xmm8, %xmm7
	jle	.LBB7_62
# BB#60:                                # %for.cond2666.preheader.lr.ph
                                        #   in Loop: Header=BB7_51 Depth=2
	.loc	12 424 31               # erhs.c:424:31
	movsd	rsd+169008(%r14,%r15,8), %xmm10 # xmm10 = mem[0],zero
	.loc	12 425 31               # erhs.c:425:31
	movsd	rsd+338008(%r14,%r15,8), %xmm1 # xmm1 = mem[0],zero
	.loc	12 426 31               # erhs.c:426:31
	movupd	rsd+507000(%r14,%r15,8), %xmm11
	.loc	12 427 31               # erhs.c:427:31
	movupd	rsd+676000(%r14,%r15,8), %xmm15
	.loc	12 424 31               # erhs.c:424:31
	movupd	rsd+169016(%r14,%r15,8), %xmm12
	.loc	12 425 31               # erhs.c:425:31
	movupd	rsd+338016(%r14,%r15,8), %xmm8
	.loc	12 426 31               # erhs.c:426:31
	movupd	rsd+507016(%r14,%r15,8), %xmm13
	.loc	12 427 31               # erhs.c:427:31
	movupd	rsd+676016(%r14,%r15,8), %xmm9
	.loc	12 424 31               # erhs.c:424:31
	movsd	rsd+169032(%r14,%r15,8), %xmm5 # xmm5 = mem[0],zero
	.loc	12 425 31               # erhs.c:425:31
	movsd	rsd+338032(%r14,%r15,8), %xmm14 # xmm14 = mem[0],zero
	movq	%r13, %rax
	movl	$3, %ecx
	.p2align	4, 0x90
.LBB7_61:                               # %for.cond2666.preheader
                                        #   Parent Loop BB7_50 Depth=1
                                        #     Parent Loop BB7_51 Depth=2
                                        # =>    This Inner Loop Header: Depth=3
	.loc	12 425 23 is_stmt 0     # erhs.c:425:23
	movsd	rsd+169000(%rax), %xmm0 # xmm0 = mem[0],zero
	unpcklpd	%xmm10, %xmm0   # xmm0 = xmm0[0],xmm10[0]
	.loc	12 425 31               # erhs.c:425:31
	movapd	%xmm1, %xmm10
	.loc	12 423 30 is_stmt 1     # erhs.c:423:30
	movsd	%xmm14, 32(%rsp)        # 8-byte Spill
	movupd	frct+507000(%rax), %xmm1
	.loc	12 425 29               # erhs.c:425:29
	movsd	rsd+338000(%rax), %xmm3 # xmm3 = mem[0],zero
	unpcklpd	%xmm10, %xmm3   # xmm3 = xmm3[0],xmm10[0]
	mulpd	%xmm4, %xmm3
	.loc	12 425 23 is_stmt 0     # erhs.c:425:23
	subpd	%xmm3, %xmm0
	.loc	12 426 29 is_stmt 1     # erhs.c:426:29
	movapd	%xmm11, %xmm6
	mulpd	%xmm7, %xmm6
	.loc	12 426 23 is_stmt 0     # erhs.c:426:23
	addpd	%xmm0, %xmm6
	.loc	12 427 29 is_stmt 1     # erhs.c:427:29
	movapd	%xmm15, %xmm0
	mulpd	%xmm4, %xmm0
	.loc	12 427 23 is_stmt 0     # erhs.c:427:23
	subpd	%xmm0, %xmm6
	.loc	12 428 31 is_stmt 1     # erhs.c:428:31
	movupd	rsd+845000(%rax), %xmm3
	.loc	12 428 23 is_stmt 0     # erhs.c:428:23
	addpd	%xmm3, %xmm6
	.loc	12 424 20 is_stmt 1     # erhs.c:424:20
	mulpd	%xmm2, %xmm6
	.loc	12 424 13 is_stmt 0     # erhs.c:424:13
	subpd	%xmm6, %xmm1
	.loc	12 423 28 is_stmt 1     # erhs.c:423:28
	movupd	%xmm1, frct+507000(%rax)
	.loc	12 423 30 is_stmt 0     # erhs.c:423:30
	movupd	frct+507016(%rax), %xmm0
	.loc	12 425 29 is_stmt 1     # erhs.c:425:29
	movapd	%xmm8, %xmm1
	mulpd	%xmm4, %xmm1
	.loc	12 425 23 is_stmt 0     # erhs.c:425:23
	subpd	%xmm1, %xmm12
	.loc	12 426 29 is_stmt 1     # erhs.c:426:29
	movapd	%xmm13, %xmm1
	mulpd	%xmm7, %xmm1
	.loc	12 426 23 is_stmt 0     # erhs.c:426:23
	addpd	%xmm12, %xmm1
	.loc	12 427 29 is_stmt 1     # erhs.c:427:29
	movapd	%xmm9, %xmm6
	mulpd	%xmm4, %xmm6
	.loc	12 427 23 is_stmt 0     # erhs.c:427:23
	subpd	%xmm6, %xmm1
	.loc	12 428 31 is_stmt 1     # erhs.c:428:31
	movupd	rsd+845016(%rax), %xmm7
	.loc	12 428 23 is_stmt 0     # erhs.c:428:23
	addpd	%xmm7, %xmm1
	.loc	12 424 20 is_stmt 1     # erhs.c:424:20
	mulpd	%xmm2, %xmm1
	.loc	12 424 13 is_stmt 0     # erhs.c:424:13
	subpd	%xmm1, %xmm0
	.loc	12 423 28 is_stmt 1     # erhs.c:423:28
	movupd	%xmm0, frct+507016(%rax)
.Ltmp379:
	.loc	12 412 28               # erhs.c:412:28
	movsd	.LCPI7_10(%rip), %xmm1  # xmm1 = mem[0],zero
	movapd	%xmm4, %xmm6
	movapd	%xmm2, %xmm4
	movapd	%xmm1, %xmm2
.Ltmp380:
	.loc	12 425 29               # erhs.c:425:29
	mulsd	%xmm2, %xmm14
	.loc	12 425 23 is_stmt 0     # erhs.c:425:23
	subsd	%xmm14, %xmm5
	.loc	12 426 31 is_stmt 1     # erhs.c:426:31
	movsd	rsd+507032(%rax), %xmm14 # xmm14 = mem[0],zero
	.loc	12 426 29 is_stmt 0     # erhs.c:426:29
	movapd	%xmm14, %xmm0
	mulsd	.LCPI7_11(%rip), %xmm0
	.loc	12 426 23               # erhs.c:426:23
	addsd	%xmm5, %xmm0
	movsd	rsd+676032(%rax), %xmm1 # xmm1 = mem[0],zero
	.loc	12 427 29 is_stmt 1     # erhs.c:427:29
	mulsd	%xmm2, %xmm1
	movapd	%xmm4, %xmm2
	movapd	%xmm6, %xmm4
	.loc	12 427 23 is_stmt 0     # erhs.c:427:23
	subsd	%xmm1, %xmm0
	.loc	12 423 30 is_stmt 1     # erhs.c:423:30
	movsd	frct+507032(%rax), %xmm1 # xmm1 = mem[0],zero
	.loc	12 428 23               # erhs.c:428:23
	addsd	rsd+845032(%rax), %xmm0
	.loc	12 424 20               # erhs.c:424:20
	mulsd	64(%rsp), %xmm0         # 16-byte Folded Reload
	.loc	12 424 13 is_stmt 0     # erhs.c:424:13
	subsd	%xmm0, %xmm1
	.loc	12 423 28 is_stmt 1     # erhs.c:423:28
	movsd	%xmm1, frct+507032(%rax)
.Ltmp381:
	#DEBUG_VALUE: erhs:m <- 0
	.loc	12 421 7 discriminator 1 # erhs.c:421:7
	shufpd	$1, %xmm11, %xmm11      # xmm11 = xmm11[1,0]
.Ltmp382:
	.loc	12 425 31               # erhs.c:425:31
	movapd	%xmm11, %xmm1
	.loc	12 426 31               # erhs.c:426:31
	movapd	%xmm15, %xmm11
	.loc	12 424 31               # erhs.c:424:31
	movapd	%xmm8, %xmm12
	.loc	12 425 31               # erhs.c:425:31
	movapd	%xmm13, %xmm8
	.loc	12 426 31               # erhs.c:426:31
	movapd	%xmm9, %xmm13
.Ltmp383:
	.loc	12 421 7 discriminator 1 # erhs.c:421:7
	incq	%rcx
	.loc	12 421 21 is_stmt 0 discriminator 1 # erhs.c:421:21
	addq	$169000, %rax           # imm = 0x29428
	cmpq	%rdi, %rcx
.Ltmp384:
	.loc	12 424 31 is_stmt 1     # erhs.c:424:31
	movsd	32(%rsp), %xmm5         # 8-byte Reload
                                        # xmm5 = mem[0],zero
	.loc	12 427 31               # erhs.c:427:31
	movapd	%xmm3, %xmm15
	movapd	%xmm7, %xmm9
	.loc	12 426 29               # erhs.c:426:29
	movapd	.LCPI7_13(%rip), %xmm7  # xmm7 = [6.000000e+00,6.000000e+00]
.Ltmp385:
	.loc	12 421 7 discriminator 1 # erhs.c:421:7
	jl	.LBB7_61
.Ltmp386:
.LBB7_62:                               # %for.body2748
                                        #   in Loop: Header=BB7_51 Depth=2
	.loc	12 433 31               # erhs.c:433:31
	leaq	(,%r11,8), %rax
	leaq	(%rax,%rax,4), %rbx
	imulq	$169000, %rdi, %rcx     # imm = 0x29428
	.loc	12 436 29               # erhs.c:436:29
	addq	%r14, %rcx
	.loc	12 433 31               # erhs.c:433:31
	movsd	frct(%rcx,%rbx), %xmm0  # xmm0 = mem[0],zero
	.loc	12 434 29               # erhs.c:434:29
	movq	384(%rsp), %rax         # 8-byte Reload
	leaq	(%rax,%r14), %rax
	movsd	rsd(%rax,%rbx), %xmm1   # xmm1 = mem[0],zero
	.loc	12 435 29               # erhs.c:435:29
	movq	368(%rsp), %rbp         # 8-byte Reload
	leaq	(%rbp,%r14), %rbp
	movsd	rsd(%rbp,%rbx), %xmm2   # xmm2 = mem[0],zero
	.loc	12 435 27 is_stmt 0     # erhs.c:435:27
	movapd	%xmm2, %xmm3
.Ltmp387:
	.loc	12 412 28 is_stmt 1     # erhs.c:412:28
	movsd	.LCPI7_10(%rip), %xmm7  # xmm7 = mem[0],zero
.Ltmp388:
	.loc	12 435 27               # erhs.c:435:27
	mulsd	%xmm7, %xmm3
	.loc	12 435 21 is_stmt 0     # erhs.c:435:21
	subsd	%xmm3, %xmm1
	.loc	12 436 29 is_stmt 1     # erhs.c:436:29
	movsd	rsd(%rcx,%rbx), %xmm3   # xmm3 = mem[0],zero
	.loc	12 436 27 is_stmt 0     # erhs.c:436:27
	movapd	%xmm3, %xmm4
.Ltmp389:
	.loc	12 416 28 is_stmt 1     # erhs.c:416:28
	movsd	.LCPI7_11(%rip), %xmm8  # xmm8 = mem[0],zero
.Ltmp390:
	.loc	12 436 27               # erhs.c:436:27
	mulsd	%xmm8, %xmm4
	.loc	12 436 21 is_stmt 0     # erhs.c:436:21
	addsd	%xmm1, %xmm4
	.loc	12 438 31 is_stmt 1     # erhs.c:438:31
	addq	352(%rsp), %r14         # 8-byte Folded Reload
	.loc	12 437 29               # erhs.c:437:29
	movsd	rsd(%r14,%rbx), %xmm1   # xmm1 = mem[0],zero
	.loc	12 437 27 is_stmt 0     # erhs.c:437:27
	movapd	%xmm1, %xmm5
	mulsd	%xmm7, %xmm5
	.loc	12 437 21               # erhs.c:437:21
	subsd	%xmm5, %xmm4
	movapd	64(%rsp), %xmm9         # 16-byte Reload
	.loc	12 434 18 is_stmt 1     # erhs.c:434:18
	mulsd	%xmm9, %xmm4
	.loc	12 434 11 is_stmt 0     # erhs.c:434:11
	subsd	%xmm4, %xmm0
	.loc	12 433 29 is_stmt 1     # erhs.c:433:29
	movsd	%xmm0, frct(%rcx,%rbx)
	.loc	12 438 31               # erhs.c:438:31
	movsd	frct(%r14,%rbx), %xmm0  # xmm0 = mem[0],zero
	.loc	12 440 27               # erhs.c:440:27
	mulsd	%xmm7, %xmm3
	.loc	12 440 21 is_stmt 0     # erhs.c:440:21
	subsd	%xmm3, %xmm2
.Ltmp391:
	.loc	12 411 28 is_stmt 1     # erhs.c:411:28
	movsd	.LCPI7_9(%rip), %xmm6   # xmm6 = mem[0],zero
.Ltmp392:
	.loc	12 441 27               # erhs.c:441:27
	mulsd	%xmm6, %xmm1
	.loc	12 441 21 is_stmt 0     # erhs.c:441:21
	addsd	%xmm2, %xmm1
	.loc	12 439 18 is_stmt 1     # erhs.c:439:18
	mulsd	%xmm9, %xmm1
	.loc	12 439 11 is_stmt 0     # erhs.c:439:11
	subsd	%xmm1, %xmm0
	.loc	12 438 29 is_stmt 1     # erhs.c:438:29
	movsd	%xmm0, frct(%r14,%rbx)
	.loc	12 433 31               # erhs.c:433:31
	movsd	frct+8(%rcx,%rbx), %xmm0 # xmm0 = mem[0],zero
	.loc	12 434 29               # erhs.c:434:29
	movsd	rsd+8(%rax,%rbx), %xmm1 # xmm1 = mem[0],zero
	.loc	12 435 29               # erhs.c:435:29
	movsd	rsd+8(%rbp,%rbx), %xmm2 # xmm2 = mem[0],zero
	.loc	12 435 27 is_stmt 0     # erhs.c:435:27
	movapd	%xmm2, %xmm3
	mulsd	%xmm7, %xmm3
	.loc	12 435 21               # erhs.c:435:21
	subsd	%xmm3, %xmm1
	.loc	12 436 29 is_stmt 1     # erhs.c:436:29
	movsd	rsd+8(%rcx,%rbx), %xmm3 # xmm3 = mem[0],zero
	.loc	12 436 27 is_stmt 0     # erhs.c:436:27
	movapd	%xmm3, %xmm4
	mulsd	%xmm8, %xmm4
	.loc	12 436 21               # erhs.c:436:21
	addsd	%xmm1, %xmm4
	.loc	12 437 29 is_stmt 1     # erhs.c:437:29
	movsd	rsd+8(%r14,%rbx), %xmm1 # xmm1 = mem[0],zero
	.loc	12 437 27 is_stmt 0     # erhs.c:437:27
	movapd	%xmm1, %xmm5
	mulsd	%xmm7, %xmm5
	.loc	12 437 21               # erhs.c:437:21
	subsd	%xmm5, %xmm4
	.loc	12 434 18 is_stmt 1     # erhs.c:434:18
	mulsd	%xmm9, %xmm4
	.loc	12 434 11 is_stmt 0     # erhs.c:434:11
	subsd	%xmm4, %xmm0
	.loc	12 433 29 is_stmt 1     # erhs.c:433:29
	movsd	%xmm0, frct+8(%rcx,%rbx)
	.loc	12 438 31               # erhs.c:438:31
	movsd	frct+8(%r14,%rbx), %xmm0 # xmm0 = mem[0],zero
	.loc	12 440 27               # erhs.c:440:27
	mulsd	%xmm7, %xmm3
	.loc	12 440 21 is_stmt 0     # erhs.c:440:21
	subsd	%xmm3, %xmm2
	.loc	12 441 27 is_stmt 1     # erhs.c:441:27
	mulsd	%xmm6, %xmm1
	.loc	12 441 21 is_stmt 0     # erhs.c:441:21
	addsd	%xmm2, %xmm1
	.loc	12 439 18 is_stmt 1     # erhs.c:439:18
	mulsd	%xmm9, %xmm1
	.loc	12 439 11 is_stmt 0     # erhs.c:439:11
	subsd	%xmm1, %xmm0
	.loc	12 438 29 is_stmt 1     # erhs.c:438:29
	movsd	%xmm0, frct+8(%r14,%rbx)
	.loc	12 433 31               # erhs.c:433:31
	movsd	frct+16(%rcx,%rbx), %xmm0 # xmm0 = mem[0],zero
	.loc	12 434 29               # erhs.c:434:29
	movsd	rsd+16(%rax,%rbx), %xmm1 # xmm1 = mem[0],zero
	.loc	12 435 29               # erhs.c:435:29
	movsd	rsd+16(%rbp,%rbx), %xmm2 # xmm2 = mem[0],zero
	.loc	12 435 27 is_stmt 0     # erhs.c:435:27
	movapd	%xmm2, %xmm3
	mulsd	%xmm7, %xmm3
	.loc	12 435 21               # erhs.c:435:21
	subsd	%xmm3, %xmm1
	.loc	12 436 29 is_stmt 1     # erhs.c:436:29
	movsd	rsd+16(%rcx,%rbx), %xmm3 # xmm3 = mem[0],zero
	.loc	12 436 27 is_stmt 0     # erhs.c:436:27
	movapd	%xmm3, %xmm4
	mulsd	%xmm8, %xmm4
	.loc	12 436 21               # erhs.c:436:21
	addsd	%xmm1, %xmm4
	.loc	12 437 29 is_stmt 1     # erhs.c:437:29
	movsd	rsd+16(%r14,%rbx), %xmm1 # xmm1 = mem[0],zero
	.loc	12 437 27 is_stmt 0     # erhs.c:437:27
	movapd	%xmm1, %xmm5
	mulsd	%xmm7, %xmm5
	.loc	12 437 21               # erhs.c:437:21
	subsd	%xmm5, %xmm4
	.loc	12 434 18 is_stmt 1     # erhs.c:434:18
	mulsd	%xmm9, %xmm4
	.loc	12 434 11 is_stmt 0     # erhs.c:434:11
	subsd	%xmm4, %xmm0
	.loc	12 433 29 is_stmt 1     # erhs.c:433:29
	movsd	%xmm0, frct+16(%rcx,%rbx)
	.loc	12 438 31               # erhs.c:438:31
	movsd	frct+16(%r14,%rbx), %xmm0 # xmm0 = mem[0],zero
	.loc	12 440 27               # erhs.c:440:27
	mulsd	%xmm7, %xmm3
	.loc	12 440 21 is_stmt 0     # erhs.c:440:21
	subsd	%xmm3, %xmm2
	.loc	12 441 27 is_stmt 1     # erhs.c:441:27
	mulsd	%xmm6, %xmm1
	.loc	12 441 21 is_stmt 0     # erhs.c:441:21
	addsd	%xmm2, %xmm1
	.loc	12 439 18 is_stmt 1     # erhs.c:439:18
	mulsd	%xmm9, %xmm1
	.loc	12 439 11 is_stmt 0     # erhs.c:439:11
	subsd	%xmm1, %xmm0
	.loc	12 438 29 is_stmt 1     # erhs.c:438:29
	movsd	%xmm0, frct+16(%r14,%rbx)
	.loc	12 433 31               # erhs.c:433:31
	movsd	frct+24(%rcx,%rbx), %xmm0 # xmm0 = mem[0],zero
	.loc	12 434 29               # erhs.c:434:29
	movsd	rsd+24(%rax,%rbx), %xmm1 # xmm1 = mem[0],zero
	.loc	12 435 29               # erhs.c:435:29
	movsd	rsd+24(%rbp,%rbx), %xmm2 # xmm2 = mem[0],zero
	.loc	12 435 27 is_stmt 0     # erhs.c:435:27
	movapd	%xmm2, %xmm3
	mulsd	%xmm7, %xmm3
	.loc	12 435 21               # erhs.c:435:21
	subsd	%xmm3, %xmm1
	.loc	12 436 29 is_stmt 1     # erhs.c:436:29
	movsd	rsd+24(%rcx,%rbx), %xmm3 # xmm3 = mem[0],zero
	.loc	12 436 27 is_stmt 0     # erhs.c:436:27
	movapd	%xmm3, %xmm4
	mulsd	%xmm8, %xmm4
	.loc	12 436 21               # erhs.c:436:21
	addsd	%xmm1, %xmm4
	.loc	12 437 29 is_stmt 1     # erhs.c:437:29
	movsd	rsd+24(%r14,%rbx), %xmm1 # xmm1 = mem[0],zero
	.loc	12 437 27 is_stmt 0     # erhs.c:437:27
	movapd	%xmm1, %xmm5
	mulsd	%xmm7, %xmm5
	.loc	12 437 21               # erhs.c:437:21
	subsd	%xmm5, %xmm4
	.loc	12 434 18 is_stmt 1     # erhs.c:434:18
	mulsd	%xmm9, %xmm4
	.loc	12 434 11 is_stmt 0     # erhs.c:434:11
	subsd	%xmm4, %xmm0
	.loc	12 433 29 is_stmt 1     # erhs.c:433:29
	movsd	%xmm0, frct+24(%rcx,%rbx)
	.loc	12 438 31               # erhs.c:438:31
	movsd	frct+24(%r14,%rbx), %xmm0 # xmm0 = mem[0],zero
	.loc	12 440 27               # erhs.c:440:27
	mulsd	%xmm7, %xmm3
	.loc	12 440 21 is_stmt 0     # erhs.c:440:21
	subsd	%xmm3, %xmm2
	.loc	12 441 27 is_stmt 1     # erhs.c:441:27
	mulsd	%xmm6, %xmm1
	.loc	12 441 21 is_stmt 0     # erhs.c:441:21
	addsd	%xmm2, %xmm1
	.loc	12 439 18 is_stmt 1     # erhs.c:439:18
	mulsd	%xmm9, %xmm1
	.loc	12 439 11 is_stmt 0     # erhs.c:439:11
	subsd	%xmm1, %xmm0
	.loc	12 438 29 is_stmt 1     # erhs.c:438:29
	movsd	%xmm0, frct+24(%r14,%rbx)
	.loc	12 433 31               # erhs.c:433:31
	movsd	frct+32(%rcx,%rbx), %xmm0 # xmm0 = mem[0],zero
	.loc	12 434 29               # erhs.c:434:29
	movsd	rsd+32(%rax,%rbx), %xmm1 # xmm1 = mem[0],zero
	.loc	12 435 29               # erhs.c:435:29
	movsd	rsd+32(%rbp,%rbx), %xmm2 # xmm2 = mem[0],zero
	.loc	12 435 27 is_stmt 0     # erhs.c:435:27
	movapd	%xmm2, %xmm3
	mulsd	%xmm7, %xmm3
	.loc	12 435 21               # erhs.c:435:21
	subsd	%xmm3, %xmm1
	.loc	12 436 29 is_stmt 1     # erhs.c:436:29
	movsd	rsd+32(%rcx,%rbx), %xmm3 # xmm3 = mem[0],zero
	.loc	12 436 27 is_stmt 0     # erhs.c:436:27
	movapd	%xmm3, %xmm4
	mulsd	%xmm8, %xmm4
	.loc	12 436 21               # erhs.c:436:21
	addsd	%xmm1, %xmm4
	.loc	12 437 29 is_stmt 1     # erhs.c:437:29
	movsd	rsd+32(%r14,%rbx), %xmm1 # xmm1 = mem[0],zero
	.loc	12 437 27 is_stmt 0     # erhs.c:437:27
	movapd	%xmm1, %xmm5
	mulsd	%xmm7, %xmm5
	.loc	12 437 21               # erhs.c:437:21
	subsd	%xmm5, %xmm4
	.loc	12 434 18 is_stmt 1     # erhs.c:434:18
	mulsd	%xmm9, %xmm4
	.loc	12 434 11 is_stmt 0     # erhs.c:434:11
	subsd	%xmm4, %xmm0
	.loc	12 433 29 is_stmt 1     # erhs.c:433:29
	movsd	%xmm0, frct+32(%rcx,%rbx)
	.loc	12 438 31               # erhs.c:438:31
	movsd	frct+32(%r14,%rbx), %xmm0 # xmm0 = mem[0],zero
	.loc	12 440 27               # erhs.c:440:27
	mulsd	%xmm7, %xmm3
	.loc	12 440 21 is_stmt 0     # erhs.c:440:21
	subsd	%xmm3, %xmm2
	.loc	12 441 27 is_stmt 1     # erhs.c:441:27
	mulsd	%xmm6, %xmm1
	.loc	12 441 21 is_stmt 0     # erhs.c:441:21
	addsd	%xmm2, %xmm1
	.loc	12 439 18 is_stmt 1     # erhs.c:439:18
	mulsd	%xmm9, %xmm1
	.loc	12 439 11 is_stmt 0     # erhs.c:439:11
	subsd	%xmm1, %xmm0
	.loc	12 438 29 is_stmt 1     # erhs.c:438:29
	movsd	%xmm0, frct+32(%r14,%rbx)
.Ltmp393:
	.loc	12 332 5 discriminator 1 # erhs.c:332:5
	incq	%r11
	addq	$40, %r10
	addq	$40, %r9
	addq	$40, %r8
	addq	$40, %r13
	.loc	12 332 21 is_stmt 0 discriminator 1 # erhs.c:332:21
	cmpq	8(%rsp), %r11           # 8-byte Folded Reload
	movsd	(%rsp), %xmm14          # 8-byte Reload
                                        # xmm14 = mem[0],zero
	movsd	16(%rsp), %xmm10        # 8-byte Reload
                                        # xmm10 = mem[0],zero
	movsd	24(%rsp), %xmm11        # 8-byte Reload
                                        # xmm11 = mem[0],zero
	movapd	256(%rsp), %xmm12       # 16-byte Reload
	movaps	432(%rsp), %xmm15       # 16-byte Reload
	movsd	.LCPI7_5(%rip), %xmm9   # xmm9 = mem[0],zero
.Ltmp394:
	.loc	12 342 49 is_stmt 1     # erhs.c:342:49
	movsd	.LCPI7_6(%rip), %xmm7   # xmm7 = mem[0],zero
	movsd	.LCPI7_7(%rip), %xmm8   # xmm8 = mem[0],zero
	movsd	336(%rsp), %xmm13       # 8-byte Reload
                                        # xmm13 = mem[0],zero
	jl	.LBB7_51
.Ltmp395:
.LBB7_63:                               # %for.inc2868
                                        #   in Loop: Header=BB7_50 Depth=1
	.loc	12 331 3 discriminator 1 # erhs.c:331:3
	incq	%r12
	movq	56(%rsp), %r11          # 8-byte Reload
	addq	$2600, %r11             # imm = 0xA28
	movq	48(%rsp), %rbx          # 8-byte Reload
	addq	$2600, %rbx             # imm = 0xA28
	movq	320(%rsp), %rbp         # 8-byte Reload
	addq	$2600, %rbp             # imm = 0xA28
	movq	304(%rsp), %r13         # 8-byte Reload
	addq	$2600, %r13             # imm = 0xA28
	.loc	12 331 19 is_stmt 0 discriminator 1 # erhs.c:331:19
	cmpq	288(%rsp), %r12         # 8-byte Folded Reload
	jl	.LBB7_50
.Ltmp396:
.LBB7_64:                               # %for.end2870
	.loc	12 445 1 is_stmt 1      # erhs.c:445:1
	addq	$488, %rsp              # imm = 0x1E8
	popq	%rbx
	popq	%r12
	popq	%r13
	popq	%r14
	popq	%r15
	popq	%rbp
	retq
.Ltmp397:
.Lfunc_end7:
	.size	erhs, .Lfunc_end7-erhs
	.cfi_endproc

	.section	.rodata.cst8,"aM",@progbits,8
	.p2align	3
.LCPI8_0:
	.quad	4611686018427387904     # double 2
.LCPI8_1:
	.quad	4607182418800017408     # double 1
	.text
	.globl	ssor
	.p2align	4, 0x90
	.type	ssor,@function
ssor:                                   # @ssor
.Lfunc_begin8:
	.file	13 "/home/norouzi/Desktop/software/benchmarks/NAS/NPB3.3-SER-C/LU/ssor.c"
	.loc	13 43 0                 # ssor.c:43:0
	.cfi_startproc
# BB#0:                                 # %entry
	pushq	%rbp
.Ltmp398:
	.cfi_def_cfa_offset 16
	pushq	%r15
.Ltmp399:
	.cfi_def_cfa_offset 24
	pushq	%r14
.Ltmp400:
	.cfi_def_cfa_offset 32
	pushq	%r13
.Ltmp401:
	.cfi_def_cfa_offset 40
	pushq	%r12
.Ltmp402:
	.cfi_def_cfa_offset 48
	pushq	%rbx
.Ltmp403:
	.cfi_def_cfa_offset 56
	subq	$164072, %rsp           # imm = 0x280E8
.Ltmp404:
	.cfi_def_cfa_offset 164128
.Ltmp405:
	.cfi_offset %rbx, -56
.Ltmp406:
	.cfi_offset %r12, -48
.Ltmp407:
	.cfi_offset %r13, -40
.Ltmp408:
	.cfi_offset %r14, -32
.Ltmp409:
	.cfi_offset %r15, -24
.Ltmp410:
	.cfi_offset %rbp, -16
	#DEBUG_VALUE: ssor:niter <- %EDI
	movl	%edi, %r14d
.Ltmp411:
	#DEBUG_VALUE: ssor:niter <- %R14D
	.loc	13 55 17 prologue_end   # ssor.c:55:17
	movl	%r14d, 116(%rsp)        # 4-byte Spill
	movsd	omega(%rip), %xmm0      # xmm0 = mem[0],zero
	.loc	13 55 31 is_stmt 0      # ssor.c:55:31
	movsd	.LCPI8_0(%rip), %xmm1   # xmm1 = mem[0],zero
	subsd	%xmm0, %xmm1
	.loc	13 55 23                # ssor.c:55:23
	mulsd	%xmm0, %xmm1
	movsd	%xmm1, 104(%rsp)        # 8-byte Spill
	xorl	%ebx, %ebx
.Ltmp412:
	#DEBUG_VALUE: ssor:j <- 0
	.p2align	4, 0x90
.LBB8_1:                                # %for.cond3.preheader
                                        # =>This Inner Loop Header: Depth=1
	.loc	13 65 25 is_stmt 1      # ssor.c:65:25
	leaq	a(%rbx), %rdi
	xorl	%esi, %esi
	movl	$12800, %edx            # imm = 0x3200
	callq	memset
	.loc	13 66 25                # ssor.c:66:25
	leaq	b(%rbx), %rdi
	xorl	%esi, %esi
	movl	$12800, %edx            # imm = 0x3200
	callq	memset
	.loc	13 67 25                # ssor.c:67:25
	leaq	c(%rbx), %rdi
	xorl	%esi, %esi
	movl	$12800, %edx            # imm = 0x3200
	callq	memset
	.loc	13 68 25                # ssor.c:68:25
	leaq	d(%rbx), %rdi
	xorl	%esi, %esi
	movl	$12800, %edx            # imm = 0x3200
	callq	memset
	.loc	13 65 25                # ssor.c:65:25
	leaq	a+13000(%rbx), %rdi
	xorl	%esi, %esi
	movl	$12800, %edx            # imm = 0x3200
	callq	memset
	.loc	13 66 25                # ssor.c:66:25
	leaq	b+13000(%rbx), %rdi
	xorl	%esi, %esi
	movl	$12800, %edx            # imm = 0x3200
	callq	memset
	.loc	13 67 25                # ssor.c:67:25
	leaq	c+13000(%rbx), %rdi
	xorl	%esi, %esi
	movl	$12800, %edx            # imm = 0x3200
	callq	memset
	.loc	13 68 25                # ssor.c:68:25
	leaq	d+13000(%rbx), %rdi
	xorl	%esi, %esi
	movl	$12800, %edx            # imm = 0x3200
	callq	memset
.Ltmp413:
	.loc	13 61 3 discriminator 1 # ssor.c:61:3
	addq	$26000, %rbx            # imm = 0x6590
	cmpq	$832000, %rbx           # imm = 0xCB200
	jne	.LBB8_1
.Ltmp414:
# BB#2:                                 # %for.body53.preheader
	.loc	13 74 5                 # ssor.c:74:5
	movl	$1, %ebx
	movl	$1, %edi
	callq	timer_clear
.Ltmp415:
	#DEBUG_VALUE: ssor:i <- 2
	movl	$2, %edi
	callq	timer_clear
	movl	$3, %edi
	callq	timer_clear
	movl	$4, %edi
	callq	timer_clear
	movl	$5, %edi
	callq	timer_clear
	movl	$6, %edi
	callq	timer_clear
	movl	$7, %edi
	callq	timer_clear
	movl	$8, %edi
	callq	timer_clear
	movl	$9, %edi
	callq	timer_clear
	movl	$10, %edi
	callq	timer_clear
	movl	$11, %edi
	callq	timer_clear
.Ltmp416:
	.loc	13 80 3                 # ssor.c:80:3
	xorl	%eax, %eax
	callq	rhs
	.loc	13 85 32                # ssor.c:85:32
	movl	nx0(%rip), %ecx
	.loc	13 85 37 is_stmt 0      # ssor.c:85:37
	movl	ny0(%rip), %r8d
	.loc	13 85 42                # ssor.c:85:42
	movl	nz0(%rip), %r9d
	.loc	13 86 11 is_stmt 1      # ssor.c:86:11
	movl	ist(%rip), %eax
	.loc	13 86 16 is_stmt 0      # ssor.c:86:16
	movl	iend(%rip), %edx
	.loc	13 86 22                # ssor.c:86:22
	movl	jst(%rip), %esi
	.loc	13 86 27                # ssor.c:86:27
	movl	jend(%rip), %edi
	.loc	13 85 3 is_stmt 1       # ssor.c:85:3
	movl	%edi, 24(%rsp)
	movl	%esi, 16(%rsp)
	movl	%edx, 8(%rsp)
	movl	%eax, (%rsp)
	movq	$rsdnm, 40(%rsp)
	movq	$rsd, 32(%rsp)
	movl	$64, %edi
	movl	$64, %esi
	movl	$64, %edx
	callq	l2norm
.Ltmp417:
	#DEBUG_VALUE: ssor:i <- 1
	.loc	13 108 5                # ssor.c:108:5
	movl	$1, %edi
	callq	timer_clear
.Ltmp418:
	#DEBUG_VALUE: ssor:i <- 2
	movl	$2, %edi
	callq	timer_clear
	movl	$3, %edi
	callq	timer_clear
	movl	$4, %edi
	callq	timer_clear
	movl	$5, %edi
	callq	timer_clear
	movl	$6, %edi
	callq	timer_clear
	movl	$7, %edi
	callq	timer_clear
	movl	$8, %edi
	callq	timer_clear
	movl	$9, %edi
	callq	timer_clear
	movl	$10, %edi
	callq	timer_clear
	movl	$11, %edi
	callq	timer_clear
.Ltmp419:
	.loc	13 110 3                # ssor.c:110:3
	movl	$1, %edi
	callq	timer_start
.Ltmp420:
	#DEBUG_VALUE: ssor:istep <- 1
	.loc	13 115 25 discriminator 1 # ssor.c:115:25
	testl	%r14d, %r14d
	jle	.LBB8_73
.Ltmp421:
# BB#3:                                 # %for.body65.lr.ph
	.loc	13 55 13                # ssor.c:55:13
	movsd	.LCPI8_1(%rip), %xmm0   # xmm0 = mem[0],zero
	divsd	104(%rsp), %xmm0        # 8-byte Folded Reload
.Ltmp422:
	#DEBUG_VALUE: ssor:tmp <- %XMM0
	.loc	13 190 49               # ssor.c:190:49
	movapd	%xmm0, 160(%rsp)        # 16-byte Spill
	movlhps	%xmm0, %xmm0            # xmm0 = xmm0[0,0]
.Ltmp423:
	movaps	%xmm0, 144(%rsp)        # 16-byte Spill
.Ltmp424:
	.p2align	4, 0x90
.LBB8_4:                                # %for.body65
                                        # =>This Loop Header: Depth=1
                                        #     Child Loop BB8_14 Depth 2
                                        #       Child Loop BB8_63 Depth 3
                                        #         Child Loop BB8_67 Depth 4
                                        #     Child Loop BB8_19 Depth 2
                                        #     Child Loop BB8_29 Depth 2
                                        #     Child Loop BB8_42 Depth 2
                                        #       Child Loop BB8_70 Depth 3
                                        #         Child Loop BB8_71 Depth 4
	.loc	13 119 16               # ssor.c:119:16
	movslq	%ebx, %rax
	imulq	$1717986919, %rax, %rcx # imm = 0x66666667
	movq	%rcx, %rdx
	shrq	$63, %rdx
	sarq	$35, %rcx
	addl	%edx, %ecx
	shll	$2, %ecx
	leal	(%rcx,%rcx,4), %ecx
	.loc	13 119 22 is_stmt 0     # ssor.c:119:22
	cmpl	%ecx, %eax
	.loc	13 119 27               # ssor.c:119:27
	je	.LBB8_7
# BB#5:                                 # %lor.lhs.false
                                        #   in Loop: Header=BB8_4 Depth=1
	.loc	13 119 36 discriminator 1 # ssor.c:119:36
	cmpl	itmax(%rip), %ebx
	sete	%al
	.loc	13 119 54 discriminator 2 # ssor.c:119:54
	cmpl	$1, %ebx
	sete	%cl
	.loc	13 119 45 discriminator 1 # ssor.c:119:45
	cmpl	$2, %r14d
	jl	.LBB8_9
# BB#6:                                 # %lor.lhs.false
                                        #   in Loop: Header=BB8_4 Depth=1
	orb	%al, %cl
	jne	.LBB8_8
	jmp	.LBB8_9
	.p2align	4, 0x90
.LBB8_7:                                # %if.then
                                        #   in Loop: Header=BB8_4 Depth=1
.Ltmp425:
	.loc	13 120 11 is_stmt 1     # ssor.c:120:11
	cmpl	$2, %r14d
	jl	.LBB8_9
.LBB8_8:                                # %if.then71
                                        #   in Loop: Header=BB8_4 Depth=1
.Ltmp426:
	.loc	13 120 22 is_stmt 0 discriminator 1 # ssor.c:120:22
	movl	$.L.str.33, %edi
	xorl	%eax, %eax
	movl	%ebx, %esi
	callq	printf
.Ltmp427:
.LBB8_9:                                # %if.end72
                                        #   in Loop: Header=BB8_4 Depth=1
	movq	%rbx, 136(%rsp)         # 8-byte Spill
.Ltmp428:
	.loc	13 126 9 is_stmt 1      # ssor.c:126:9
	cmpl	$0, timeron(%rip)
	je	.LBB8_11
# BB#10:                                # %if.then73
                                        #   in Loop: Header=BB8_4 Depth=1
	.loc	13 126 18 is_stmt 0 discriminator 1 # ssor.c:126:18
	movl	$5, %edi
	callq	timer_start
.Ltmp429:
.LBB8_11:                               # %for.cond75.preheader
                                        #   in Loop: Header=BB8_4 Depth=1
	.loc	13 47 10 is_stmt 1      # ssor.c:47:10
	movslq	nz(%rip), %rax
.Ltmp430:
	.loc	13 127 24 discriminator 1 # ssor.c:127:24
	movq	%rax, 128(%rsp)         # 8-byte Spill
	decq	%rax
	.loc	13 127 5 is_stmt 0 discriminator 1 # ssor.c:127:5
	movq	%rax, 104(%rsp)         # 8-byte Spill
	cmpl	$2, %eax
	jl	.LBB8_16
.Ltmp431:
# BB#12:                                # %for.body78.lr.ph
                                        #   in Loop: Header=BB8_4 Depth=1
	.loc	13 47 10 is_stmt 1      # ssor.c:47:10
	movslq	jst(%rip), %rax
.Ltmp432:
	.loc	13 128 25 discriminator 1 # ssor.c:128:25
	movq	%rax, 120(%rsp)         # 8-byte Spill
	movl	jend(%rip), %edx
	.loc	13 128 7 is_stmt 0 discriminator 1 # ssor.c:128:7
	cmpl	%edx, %eax
	jge	.LBB8_16
.Ltmp433:
# BB#13:                                # %for.body81.lr.ph.us.preheader
                                        #   in Loop: Header=BB8_4 Depth=1
	.loc	13 47 10 is_stmt 1      # ssor.c:47:10
	movslq	ist(%rip), %r9
.Ltmp434:
	.loc	13 129 27 discriminator 1 # ssor.c:129:27
	movl	iend(%rip), %r10d
.Ltmp435:
	.loc	13 131 31               # ssor.c:131:31
	movsd	dt(%rip), %xmm0         # xmm0 = mem[0],zero
.Ltmp436:
	.loc	13 47 10                # ssor.c:47:10
	movl	%r10d, %ebx
	subl	%r9d, %ebx
	leal	-1(%r10), %ecx
.Ltmp437:
	.loc	13 131 34               # ssor.c:131:34
	movapd	%xmm0, %xmm1
	movlhps	%xmm1, %xmm1            # xmm1 = xmm1[0,0]
.Ltmp438:
	.loc	13 129 9 discriminator 1 # ssor.c:129:9
	andl	$1, %ebx
	leaq	1(%r9), %r11
.Ltmp439:
	.loc	13 47 10                # ssor.c:47:10
	imulq	$2600, 120(%rsp), %rax  # 8-byte Folded Reload
                                        # imm = 0xA28
	leaq	rsd+169072(%rax), %rbp
	movl	$1, %eax
	.p2align	4, 0x90
.LBB8_14:                               # %for.body81.lr.ph.us
                                        #   Parent Loop BB8_4 Depth=1
                                        # =>  This Loop Header: Depth=2
                                        #       Child Loop BB8_63 Depth 3
                                        #         Child Loop BB8_67 Depth 4
	cmpl	%r9d, %r10d
	movq	%rbp, %r14
	movq	120(%rsp), %r8          # 8-byte Reload
	jle	.LBB8_15
	.p2align	4, 0x90
.LBB8_63:                               # %for.cond85.preheader.lr.ph.us.us
                                        #   Parent Loop BB8_4 Depth=1
                                        #     Parent Loop BB8_14 Depth=2
                                        # =>    This Loop Header: Depth=3
                                        #         Child Loop BB8_67 Depth 4
	testl	%ebx, %ebx
	movq	%r9, %rsi
	je	.LBB8_65
# BB#64:                                # %for.cond85.preheader.us.us.prol
                                        #   in Loop: Header=BB8_63 Depth=3
.Ltmp440:
	.loc	13 131 36               # ssor.c:131:36
	imulq	$2600, %r8, %rsi        # imm = 0xA28
	imulq	$169000, %rax, %rdi     # imm = 0x29428
	addq	%rsi, %rdi
	leaq	(%r9,%r9,4), %rsi
	movupd	rsd(%rdi,%rsi,8), %xmm2
	.loc	13 131 34 is_stmt 0     # ssor.c:131:34
	mulpd	%xmm1, %xmm2
	.loc	13 131 29               # ssor.c:131:29
	movupd	%xmm2, rsd(%rdi,%rsi,8)
	.loc	13 131 36               # ssor.c:131:36
	movupd	rsd+16(%rdi,%rsi,8), %xmm2
	.loc	13 131 34               # ssor.c:131:34
	mulpd	%xmm1, %xmm2
	.loc	13 131 29               # ssor.c:131:29
	movupd	%xmm2, rsd+16(%rdi,%rsi,8)
	movsd	rsd+32(%rdi,%rsi,8), %xmm2 # xmm2 = mem[0],zero
	.loc	13 131 34               # ssor.c:131:34
	mulsd	%xmm0, %xmm2
	.loc	13 131 29               # ssor.c:131:29
	movsd	%xmm2, rsd+32(%rdi,%rsi,8)
	movq	%r11, %rsi
.Ltmp441:
.LBB8_65:                               # %for.cond85.preheader.lr.ph.us.us.split
                                        #   in Loop: Header=BB8_63 Depth=3
	cmpl	%r9d, %ecx
	je	.LBB8_68
# BB#66:                                # %for.cond85.preheader.lr.ph.us.us.split.split
                                        #   in Loop: Header=BB8_63 Depth=3
	.loc	13 129 9 is_stmt 1 discriminator 1 # ssor.c:129:9
	movl	%r10d, %r12d
	subl	%esi, %r12d
	shlq	$3, %rsi
	leaq	(%rsi,%rsi,4), %r15
	movq	%r14, %r13
	.p2align	4, 0x90
.LBB8_67:                               # %for.cond85.preheader.us.us
                                        #   Parent Loop BB8_4 Depth=1
                                        #     Parent Loop BB8_14 Depth=2
                                        #       Parent Loop BB8_63 Depth=3
                                        # =>      This Inner Loop Header: Depth=4
.Ltmp442:
	.loc	13 131 36               # ssor.c:131:36
	movupd	-72(%r15,%r13), %xmm2
	.loc	13 131 34 is_stmt 0     # ssor.c:131:34
	mulpd	%xmm1, %xmm2
	.loc	13 131 29               # ssor.c:131:29
	movupd	%xmm2, -72(%r15,%r13)
	.loc	13 131 36               # ssor.c:131:36
	movupd	-56(%r15,%r13), %xmm2
	.loc	13 131 34               # ssor.c:131:34
	mulpd	%xmm1, %xmm2
	.loc	13 131 29               # ssor.c:131:29
	movupd	%xmm2, -56(%r15,%r13)
	movsd	-40(%r15,%r13), %xmm2   # xmm2 = mem[0],zero
	.loc	13 131 34               # ssor.c:131:34
	mulsd	%xmm0, %xmm2
	.loc	13 131 29               # ssor.c:131:29
	movsd	%xmm2, -40(%r15,%r13)
	.loc	13 131 36               # ssor.c:131:36
	movupd	-32(%r15,%r13), %xmm2
	.loc	13 131 34               # ssor.c:131:34
	mulpd	%xmm1, %xmm2
	.loc	13 131 29               # ssor.c:131:29
	movupd	%xmm2, -32(%r15,%r13)
	.loc	13 131 36               # ssor.c:131:36
	movupd	-16(%r15,%r13), %xmm2
	.loc	13 131 34               # ssor.c:131:34
	mulpd	%xmm1, %xmm2
	.loc	13 131 29               # ssor.c:131:29
	movupd	%xmm2, -16(%r15,%r13)
	movsd	(%r15,%r13), %xmm2      # xmm2 = mem[0],zero
	.loc	13 131 34               # ssor.c:131:34
	mulsd	%xmm0, %xmm2
	.loc	13 131 29               # ssor.c:131:29
	movsd	%xmm2, (%r15,%r13)
.Ltmp443:
	.loc	13 129 9 is_stmt 1 discriminator 1 # ssor.c:129:9
	addq	$80, %r13
	addl	$-2, %r12d
	jne	.LBB8_67
.Ltmp444:
.LBB8_68:                               # %for.cond82.for.inc111_crit_edge.us.us
                                        #   in Loop: Header=BB8_63 Depth=3
	.loc	13 128 7 discriminator 1 # ssor.c:128:7
	incq	%r8
	addq	$2600, %r14             # imm = 0xA28
	cmpl	%edx, %r8d
	jne	.LBB8_63
.Ltmp445:
.LBB8_15:                               # %for.cond79.for.inc114_crit_edge.us
                                        #   in Loop: Header=BB8_14 Depth=2
	.loc	13 127 5 discriminator 1 # ssor.c:127:5
	incq	%rax
	addq	$169000, %rbp           # imm = 0x29428
	.loc	13 127 19 is_stmt 0 discriminator 1 # ssor.c:127:19
	cmpq	104(%rsp), %rax         # 8-byte Folded Reload
	jl	.LBB8_14
.Ltmp446:
.LBB8_16:                               # %for.end116
                                        #   in Loop: Header=BB8_4 Depth=1
	.loc	13 136 9 is_stmt 1      # ssor.c:136:9
	cmpl	$0, timeron(%rip)
	movq	128(%rsp), %r14         # 8-byte Reload
	je	.LBB8_18
# BB#17:                                # %if.then118
                                        #   in Loop: Header=BB8_4 Depth=1
	.loc	13 136 18 is_stmt 0 discriminator 1 # ssor.c:136:18
	movl	$5, %edi
	callq	timer_stop
.Ltmp447:
	.loc	13 138 21 is_stmt 1 discriminator 1 # ssor.c:138:21
	movl	nz(%rip), %r14d
.LBB8_18:                               # %for.cond120.preheader
                                        #   in Loop: Header=BB8_4 Depth=1
	.loc	13 138 24 is_stmt 0 discriminator 1 # ssor.c:138:24
	leal	-1(%r14), %eax
	movl	$1, %ebx
	.loc	13 138 5 discriminator 1 # ssor.c:138:5
	cmpl	$2, %eax
	leaq	224(%rsp), %r15
	jl	.LBB8_27
	.p2align	4, 0x90
.LBB8_19:                               # %for.body123
                                        #   Parent Loop BB8_4 Depth=1
                                        # =>  This Inner Loop Header: Depth=2
.Ltmp448:
	.loc	13 142 11 is_stmt 1     # ssor.c:142:11
	cmpl	$0, timeron(%rip)
	je	.LBB8_21
# BB#20:                                # %if.then125
                                        #   in Loop: Header=BB8_19 Depth=2
	.loc	13 142 20 is_stmt 0 discriminator 1 # ssor.c:142:20
	movl	$6, %edi
	callq	timer_start
.Ltmp449:
.LBB8_21:                               # %if.end126
                                        #   in Loop: Header=BB8_19 Depth=2
	.loc	13 143 7 is_stmt 1      # ssor.c:143:7
	movl	%ebx, %edi
	callq	jacld
.Ltmp450:
	.loc	13 144 11               # ssor.c:144:11
	cmpl	$0, timeron(%rip)
	je	.LBB8_24
# BB#22:                                # %if.end129
                                        #   in Loop: Header=BB8_19 Depth=2
	.loc	13 144 20 is_stmt 0 discriminator 1 # ssor.c:144:20
	movl	$6, %edi
	callq	timer_stop
.Ltmp451:
	.loc	13 149 11 is_stmt 1     # ssor.c:149:11
	cmpl	$0, timeron(%rip)
	je	.LBB8_24
# BB#23:                                # %if.then131
                                        #   in Loop: Header=BB8_19 Depth=2
	.loc	13 149 20 is_stmt 0 discriminator 1 # ssor.c:149:20
	movl	$7, %edi
	callq	timer_start
.Ltmp452:
.LBB8_24:                               # %if.end132
                                        #   in Loop: Header=BB8_19 Depth=2
	.loc	13 151 13 is_stmt 1     # ssor.c:151:13
	movl	nx(%rip), %ecx
	.loc	13 151 17 is_stmt 0     # ssor.c:151:17
	movl	ny(%rip), %r8d
	.loc	13 151 21               # ssor.c:151:21
	movl	nz(%rip), %r9d
	.loc	13 152 13 is_stmt 1     # ssor.c:152:13
	movsd	omega(%rip), %xmm0      # xmm0 = mem[0],zero
	.loc	13 155 13               # ssor.c:155:13
	movl	ist(%rip), %r10d
	.loc	13 155 18 is_stmt 0     # ssor.c:155:18
	movl	iend(%rip), %edx
	.loc	13 155 24               # ssor.c:155:24
	movl	jst(%rip), %esi
	.loc	13 155 29               # ssor.c:155:29
	movl	jend(%rip), %edi
	.loc	13 156 13 is_stmt 1     # ssor.c:156:13
	movl	nx0(%rip), %ebp
	.loc	13 156 18 is_stmt 0     # ssor.c:156:18
	movl	ny0(%rip), %eax
	.loc	13 150 7 is_stmt 1      # ssor.c:150:7
	movl	%eax, 88(%rsp)
	movl	%ebp, 80(%rsp)
	movl	%edi, 72(%rsp)
	movl	%esi, 64(%rsp)
	movl	%edx, 56(%rsp)
	movl	%r10d, 48(%rsp)
	movl	%ebx, (%rsp)
	movq	$d, 40(%rsp)
	movq	$c, 32(%rsp)
	movq	$b, 24(%rsp)
	movq	$a, 16(%rsp)
	movq	$rsd, 8(%rsp)
	movl	$64, %edi
	movl	$64, %esi
	movl	$64, %edx
	callq	blts
.Ltmp453:
	.loc	13 157 11               # ssor.c:157:11
	cmpl	$0, timeron(%rip)
	je	.LBB8_26
# BB#25:                                # %if.then134
                                        #   in Loop: Header=BB8_19 Depth=2
	.loc	13 157 20 is_stmt 0 discriminator 1 # ssor.c:157:20
	movl	$7, %edi
	callq	timer_stop
.Ltmp454:
.LBB8_26:                               # %for.inc136
                                        #   in Loop: Header=BB8_19 Depth=2
	.loc	13 138 29 is_stmt 1 discriminator 2 # ssor.c:138:29
	incl	%ebx
.Ltmp455:
	#DEBUG_VALUE: ssor:k <- %EBX
	.loc	13 138 21 is_stmt 0 discriminator 1 # ssor.c:138:21
	movl	nz(%rip), %r14d
	.loc	13 138 24 discriminator 1 # ssor.c:138:24
	leal	-1(%r14), %eax
	.loc	13 138 19 discriminator 1 # ssor.c:138:19
	cmpl	%eax, %ebx
	jl	.LBB8_19
.Ltmp456:
.LBB8_27:                               # %for.end138
                                        #   in Loop: Header=BB8_4 Depth=1
	.loc	13 164 11 is_stmt 1     # ssor.c:164:11
	cmpl	$0, timeron(%rip)
	setne	%al
.Ltmp457:
	.loc	13 160 5 discriminator 1 # ssor.c:160:5
	cmpl	$3, %r14d
	jl	.LBB8_37
# BB#28:                                # %for.body142.preheader
                                        #   in Loop: Header=BB8_4 Depth=1
.Ltmp458:
	.loc	13 164 11               # ssor.c:164:11
	decl	%r14d
	.p2align	4, 0x90
.LBB8_29:                               # %for.body142
                                        #   Parent Loop BB8_4 Depth=1
                                        # =>  This Inner Loop Header: Depth=2
	decl	%r14d
	testb	$1, %al
