	.text
	.file	"sp/A/sp.A.bc"
	.file	1 "/home/norouzi/Desktop/software/benchmarks/NAS/NPB3.3-SER-C/SP/sp.c"
	.file	2 "/home/norouzi/Desktop/software/benchmarks/NAS/NPB3.3-SER-C/SP/../common/type.h"
	.file	3 "/home/norouzi/Desktop/software/benchmarks/NAS/NPB3.3-SER-C/common/../common/type.h"
	.file	4 "/home/norouzi/Desktop/software/benchmarks/NAS/NPB3.3-SER-C/common/c_timers.c"
	.file	5 "/home/norouzi/Desktop/software/benchmarks/NAS/NPB3.3-SER-C/common/../common/wtime.c"
	.section	.rodata.cst8,"aM",@progbits,8
	.p2align	3
.LCPI0_0:
	.quad	4613937818241073152     # double 3
.LCPI0_1:
	.quad	4650962104291732488     # double 881.17399999999998
.LCPI0_2:
	.quad	-4561500008645226660    # double -4683.9099999999999
.LCPI0_3:
	.quad	4667539284973060096     # double 11484.5
.LCPI0_4:
	.quad	-4552345265925154406    # double -19272.400000000001
.LCPI0_5:
	.quad	4696837146684686336     # double 1.0E+6
.LCPI0_6:
	.quad	4607182418800017408     # double 1
.LCPI0_7:
	.quad	4636737291354636288     # double 100
	.text
	.globl	main
	.p2align	4, 0x90
	.type	main,@function
main:                                   # @main
.Lfunc_begin0:
	.loc	1 93 0                  # sp.c:93:0
	.cfi_startproc
# BB#0:                                 # %entry
	.loc	1 105 13 prologue_end   # sp.c:105:13
	pushq	%rbx
.Ltmp0:
	.cfi_def_cfa_offset 16
	subq	$448, %rsp              # imm = 0x1C0
.Ltmp1:
	.cfi_def_cfa_offset 464
.Ltmp2:
	.cfi_offset %rbx, -16
	#DEBUG_VALUE: main:argc <- %EDI
	#DEBUG_VALUE: main:argv <- %RSI
	movl	$.L.str, %edi
.Ltmp3:
	movl	$.L.str.1, %esi
.Ltmp4:
	callq	fopen
.Ltmp5:
	#DEBUG_VALUE: main:fp <- %RAX
	.loc	1 105 39 is_stmt 0      # sp.c:105:39
	testq	%rax, %rax
.Ltmp6:
	.loc	1 105 7                 # sp.c:105:7
	je	.LBB0_2
.Ltmp7:
# BB#1:                                 # %if.then
	#DEBUG_VALUE: main:fp <- %RAX
	.loc	1 106 13 is_stmt 1      # sp.c:106:13
	movl	$1, timeron(%rip)
	.loc	1 107 22                # sp.c:107:22
	movl	$.L.str.3, %ecx
	movd	%rcx, %xmm0
	movl	$.L.str.2, %ecx
	movd	%rcx, %xmm1
	punpcklqdq	%xmm0, %xmm1    # xmm1 = xmm1[0],xmm0[0]
	movdqu	%xmm1, 328(%rsp)
	.loc	1 109 21                # sp.c:109:21
	movl	$.L.str.5, %ecx
	movd	%rcx, %xmm0
	movl	$.L.str.4, %ecx
	movd	%rcx, %xmm1
	punpcklqdq	%xmm0, %xmm1    # xmm1 = xmm1[0],xmm0[0]
	movdqu	%xmm1, 344(%rsp)
	.loc	1 111 20                # sp.c:111:20
	movl	$.L.str.7, %ecx
	movd	%rcx, %xmm0
	movl	$.L.str.6, %ecx
	movd	%rcx, %xmm1
	punpcklqdq	%xmm0, %xmm1    # xmm1 = xmm1[0],xmm0[0]
	movdqu	%xmm1, 360(%rsp)
	.loc	1 113 23                # sp.c:113:23
	movl	$.L.str.9, %ecx
	movd	%rcx, %xmm0
	movl	$.L.str.8, %ecx
	movd	%rcx, %xmm1
	punpcklqdq	%xmm0, %xmm1    # xmm1 = xmm1[0],xmm0[0]
	movdqu	%xmm1, 376(%rsp)
	.loc	1 115 22                # sp.c:115:22
	movl	$.L.str.11, %ecx
	movd	%rcx, %xmm0
	movl	$.L.str.10, %ecx
	movd	%rcx, %xmm1
	punpcklqdq	%xmm0, %xmm1    # xmm1 = xmm1[0],xmm0[0]
	movdqu	%xmm1, 392(%rsp)
	.loc	1 118 22                # sp.c:118:22
	movl	$.L.str.12, %ecx
	movd	%rcx, %xmm0
	movl	$.L.str.13, %ecx
	movd	%rcx, %xmm1
	punpcklqdq	%xmm0, %xmm1    # xmm1 = xmm1[0],xmm0[0]
	movdqu	%xmm1, 424(%rsp)
	.loc	1 120 23                # sp.c:120:23
	movl	$.L.str.14, %ecx
	movd	%rcx, %xmm0
	movl	$.L.str.15, %ecx
	movd	%rcx, %xmm1
	punpcklqdq	%xmm0, %xmm1    # xmm1 = xmm1[0],xmm0[0]
	movdqu	%xmm1, 408(%rsp)
	.loc	1 121 20                # sp.c:121:20
	movq	$.L.str.16, 440(%rsp)
	.loc	1 122 5                 # sp.c:122:5
	movq	%rax, %rdi
	callq	fclose
.Ltmp8:
	jmp	.LBB0_3
.Ltmp9:
.LBB0_2:                                # %if.else
	#DEBUG_VALUE: main:fp <- %RAX
	.loc	1 124 13                # sp.c:124:13
	movl	$0, timeron(%rip)
.Ltmp10:
.LBB0_3:                                # %if.end
	.loc	1 127 3                 # sp.c:127:3
	movl	$.Lstr, %edi
	callq	puts
.Ltmp11:
	.loc	1 129 13                # sp.c:129:13
	movl	$.L.str.18, %edi
	movl	$.L.str.1, %esi
	callq	fopen
	movq	%rax, %rbx
.Ltmp12:
	#DEBUG_VALUE: main:fp <- %RBX
	.loc	1 129 41 is_stmt 0      # sp.c:129:41
	testq	%rbx, %rbx
.Ltmp13:
	.loc	1 129 7                 # sp.c:129:7
	je	.LBB0_9
.Ltmp14:
# BB#4:                                 # %if.then19
	#DEBUG_VALUE: main:fp <- %RBX
	.loc	1 131 5 is_stmt 1       # sp.c:131:5
	movl	$.Lstr.46, %edi
	callq	puts
	leaq	96(%rsp), %rdx
.Ltmp15:
	#DEBUG_VALUE: main:niter <- [%RDX+0]
	.loc	1 132 14                # sp.c:132:14
	movl	$.L.str.20, %esi
	xorl	%eax, %eax
	movq	%rbx, %rdi
	callq	__isoc99_fscanf
.Ltmp16:
	#DEBUG_VALUE: result <- 0
	.p2align	4, 0x90
.LBB0_5:                                # %while.cond
                                        # =>This Inner Loop Header: Depth=1
	.loc	1 133 12 discriminator 1 # sp.c:133:12
	movq	%rbx, %rdi
	callq	fgetc
	.loc	1 133 5 is_stmt 0 discriminator 1 # sp.c:133:5
	cmpl	$10, %eax
	jne	.LBB0_5
# BB#6:                                 # %while.end
	.loc	1 134 14 is_stmt 1      # sp.c:134:14
	movl	$.L.str.21, %esi
	movl	$dt, %edx
	xorl	%eax, %eax
	movq	%rbx, %rdi
	callq	__isoc99_fscanf
	#DEBUG_VALUE: result <- 0
	.p2align	4, 0x90
.LBB0_7:                                # %while.cond25
                                        # =>This Inner Loop Header: Depth=1
	.loc	1 135 12 discriminator 1 # sp.c:135:12
	movq	%rbx, %rdi
	callq	fgetc
	.loc	1 135 5 is_stmt 0 discriminator 1 # sp.c:135:5
	cmpl	$10, %eax
	jne	.LBB0_7
# BB#8:                                 # %while.end29
	.loc	1 136 14 is_stmt 1      # sp.c:136:14
	movl	$.L.str.22, %esi
	movl	$grid_points, %edx
	movl	$grid_points+4, %ecx
	movl	$grid_points+8, %r8d
	xorl	%eax, %eax
	movq	%rbx, %rdi
	callq	__isoc99_fscanf
	#DEBUG_VALUE: result <- 0
	.loc	1 137 5                 # sp.c:137:5
	movq	%rbx, %rdi
	callq	fclose
.Ltmp17:
	.loc	1 148 7                 # sp.c:148:7
	movl	grid_points(%rip), %esi
	.loc	1 148 23 is_stmt 0      # sp.c:148:23
	movl	grid_points+4(%rip), %edx
	.loc	1 148 39                # sp.c:148:39
	movl	grid_points+8(%rip), %ecx
	jmp	.LBB0_10
.LBB0_9:                                # %if.else32
.Ltmp18:
	#DEBUG_VALUE: main:fp <- %RBX
	.loc	1 139 5 is_stmt 1       # sp.c:139:5
	movl	$.Lstr.43, %edi
	callq	puts
.Ltmp19:
	#DEBUG_VALUE: main:niter <- 400
	.loc	1 140 11                # sp.c:140:11
	movl	$400, 96(%rsp)          # imm = 0x190
	.loc	1 141 11                # sp.c:141:11
	movabsq	$4564560351926583034, %rax # imm = 0x3F589374BC6A7EFA
	movq	%rax, dt(%rip)
	.loc	1 142 20                # sp.c:142:20
	movabsq	$274877907008, %rax     # imm = 0x4000000040
	movq	%rax, grid_points(%rip)
	.loc	1 144 20                # sp.c:144:20
	movl	$64, grid_points+8(%rip)
	movl	$64, %ecx
.Ltmp20:
	.loc	1 148 23                # sp.c:148:23
	movl	$64, %edx
	.loc	1 148 7 is_stmt 0       # sp.c:148:7
	movl	$64, %esi
.Ltmp21:
.LBB0_10:                               # %if.end34
	.loc	1 147 3 is_stmt 1       # sp.c:147:3
	movl	$.L.str.24, %edi
	xorl	%eax, %eax
	callq	printf
	.loc	1 149 46                # sp.c:149:46
	movl	96(%rsp), %esi
.Ltmp22:
	#DEBUG_VALUE: main:niter <- %ESI
	.loc	1 149 53 is_stmt 0      # sp.c:149:53
	movsd	dt(%rip), %xmm0         # xmm0 = mem[0],zero
	.loc	1 149 3                 # sp.c:149:3
	movl	$.L.str.25, %edi
	movb	$1, %al
	callq	printf
	.loc	1 150 3 is_stmt 1       # sp.c:150:3
	movl	$10, %edi
	callq	putchar
.Ltmp23:
	.loc	1 152 8                 # sp.c:152:8
	movl	grid_points(%rip), %esi
.Ltmp24:
	.loc	1 152 23 is_stmt 0      # sp.c:152:23
	cmpl	$64, %esi
.Ltmp25:
	.loc	1 160 9 is_stmt 1       # sp.c:160:9
	movl	grid_points+4(%rip), %edx
	.loc	1 161 9                 # sp.c:161:9
	movl	grid_points+8(%rip), %ecx
	jg	.LBB0_13
# BB#11:                                # %if.end34
	cmpl	$64, %edx
	jg	.LBB0_13
# BB#12:                                # %if.end34
	cmpl	$65, %ecx
	jge	.LBB0_13
# BB#15:                                # %if.end45
	.loc	1 159 24                # sp.c:159:24
	addl	$-2, %esi
	.loc	1 159 7 is_stmt 0       # sp.c:159:7
	movl	%esi, nx2(%rip)
	.loc	1 160 24 is_stmt 1      # sp.c:160:24
	addl	$-2, %edx
	.loc	1 160 7 is_stmt 0       # sp.c:160:7
	movl	%edx, ny2(%rip)
	.loc	1 161 24 is_stmt 1      # sp.c:161:24
	addl	$-2, %ecx
	.loc	1 161 7 is_stmt 0       # sp.c:161:7
	movl	%ecx, nz2(%rip)
	xorl	%ebx, %ebx
	.loc	1 163 3 is_stmt 1       # sp.c:163:3
	xorl	%eax, %eax
	callq	set_constants
.Ltmp26:
	#DEBUG_VALUE: main:i <- 1
	.loc	1 166 5                 # sp.c:166:5
	movl	$1, %edi
	callq	timer_clear
.Ltmp27:
	#DEBUG_VALUE: main:i <- 2
	movl	$2, %edi
	callq	timer_clear
	movl	$3, %edi
	callq	timer_clear
	movl	$4, %edi
	callq	timer_clear
	movl	$5, %edi
	callq	timer_clear
	movl	$6, %edi
	callq	timer_clear
	movl	$7, %edi
	callq	timer_clear
	movl	$8, %edi
	callq	timer_clear
	movl	$9, %edi
	callq	timer_clear
	movl	$10, %edi
	callq	timer_clear
	movl	$11, %edi
	callq	timer_clear
	movl	$12, %edi
	callq	timer_clear
	movl	$13, %edi
	callq	timer_clear
	movl	$14, %edi
	callq	timer_clear
	movl	$15, %edi
	callq	timer_clear
.Ltmp28:
	.loc	1 169 3                 # sp.c:169:3
	xorl	%eax, %eax
	callq	exact_rhs
	.loc	1 171 3                 # sp.c:171:3
	xorl	%eax, %eax
	callq	initialize
	.loc	1 176 3                 # sp.c:176:3
	xorl	%eax, %eax
	callq	adi
	.loc	1 177 3                 # sp.c:177:3
	xorl	%eax, %eax
	callq	initialize
.Ltmp29:
	#DEBUG_VALUE: main:i <- 1
	.loc	1 180 5                 # sp.c:180:5
	movl	$1, %edi
	callq	timer_clear
.Ltmp30:
	#DEBUG_VALUE: main:i <- 2
	movl	$2, %edi
	callq	timer_clear
	movl	$3, %edi
	callq	timer_clear
	movl	$4, %edi
	callq	timer_clear
	movl	$5, %edi
	callq	timer_clear
	movl	$6, %edi
	callq	timer_clear
	movl	$7, %edi
	callq	timer_clear
	movl	$8, %edi
	callq	timer_clear
	movl	$9, %edi
	callq	timer_clear
	movl	$10, %edi
	callq	timer_clear
	movl	$11, %edi
	callq	timer_clear
	movl	$12, %edi
	callq	timer_clear
	movl	$13, %edi
	callq	timer_clear
	movl	$14, %edi
	callq	timer_clear
	movl	$15, %edi
	callq	timer_clear
.Ltmp31:
	.loc	1 182 3                 # sp.c:182:3
	movl	$1, %edi
	callq	timer_start
.Ltmp32:
	#DEBUG_VALUE: main:step <- 1
	.loc	1 184 23 discriminator 1 # sp.c:184:23
	cmpl	$0, 96(%rsp)
	jle	.LBB0_20
	.p2align	4, 0x90
.LBB0_16:                               # %for.body57
                                        # =>This Inner Loop Header: Depth=1
	movl	%ebx, %eax
.Ltmp33:
	.loc	1 185 15                # sp.c:185:15
	leal	1(%rax), %ebx
	movslq	%ebx, %rcx
	imulq	$1717986919, %rcx, %rcx # imm = 0x66666667
	movq	%rcx, %rdx
	shrq	$63, %rdx
	sarq	$35, %rcx
	addl	%edx, %ecx
	shll	$2, %ecx
	leal	(%rcx,%rcx,4), %ecx
	negl	%ecx
	.loc	1 185 34 is_stmt 0 discriminator 1 # sp.c:185:34
	testl	%eax, %eax
	je	.LBB0_18
# BB#17:                                # %for.body57
                                        #   in Loop: Header=BB0_16 Depth=1
	.loc	1 185 15                # sp.c:185:15
	leal	1(%rax,%rcx), %eax
	testl	%eax, %eax
	jne	.LBB0_19
.LBB0_18:                               # %if.then61
                                        #   in Loop: Header=BB0_16 Depth=1
.Ltmp34:
	.loc	1 186 7 is_stmt 1       # sp.c:186:7
	movl	$.L.str.29, %edi
	xorl	%eax, %eax
	movl	%ebx, %esi
	callq	printf
.Ltmp35:
.LBB0_19:                               # %if.end63
                                        #   in Loop: Header=BB0_16 Depth=1
	.loc	1 189 5                 # sp.c:189:5
	xorl	%eax, %eax
	callq	adi
.Ltmp36:
	.loc	1 184 23 discriminator 1 # sp.c:184:23
	cmpl	96(%rsp), %ebx
	jl	.LBB0_16
.Ltmp37:
.LBB0_20:                               # %for.end66
	.loc	1 192 3                 # sp.c:192:3
	movl	$1, %edi
	callq	timer_stop
	.loc	1 193 10                # sp.c:193:10
	movl	$1, %edi
	callq	timer_read
	movsd	%xmm0, 104(%rsp)        # 8-byte Spill
.Ltmp38:
	#DEBUG_VALUE: main:tmax <- [%RSP+104]
	.loc	1 195 10                # sp.c:195:10
	movl	96(%rsp), %edi
.Ltmp39:
	#DEBUG_VALUE: main:niter <- %EDI
	leaq	103(%rsp), %rsi
.Ltmp40:
	#DEBUG_VALUE: main:Class <- [%RSI+0]
	leaq	132(%rsp), %rdx
.Ltmp41:
	#DEBUG_VALUE: main:verified <- [%RDX+0]
	.loc	1 195 3 is_stmt 0       # sp.c:195:3
	callq	verify
.Ltmp42:
	movsd	104(%rsp), %xmm0        # 8-byte Reload
                                        # xmm0 = mem[0],zero
.Ltmp43:
	#DEBUG_VALUE: main:tmax <- %XMM0
	.loc	1 198 10 is_stmt 1      # sp.c:198:10
	movl	grid_points(%rip), %edx
.Ltmp44:
	.loc	1 198 25 is_stmt 0      # sp.c:198:25
	movl	grid_points+4(%rip), %ecx
.Ltmp45:
	.loc	1 197 12 is_stmt 1      # sp.c:197:12
	pxor	%xmm1, %xmm1
.Ltmp46:
	.loc	1 197 7 is_stmt 0       # sp.c:197:7
	ucomisd	%xmm1, %xmm0
	jne	.LBB0_22
	jp	.LBB0_22
	jmp	.LBB0_21
.Ltmp47:
.LBB0_22:                               # %if.then69
	#DEBUG_VALUE: main:tmax <- %XMM0
	#DEBUG_VALUE: main:Class <- [%RSI+0]
	#DEBUG_VALUE: main:niter <- %EDI
	.loc	1 198 24 is_stmt 1      # sp.c:198:24
	movl	%ecx, %eax
	imull	%edx, %eax
	.loc	1 198 40 is_stmt 0      # sp.c:198:40
	movl	grid_points+8(%rip), %r8d
	.loc	1 198 39                # sp.c:198:39
	imull	%r8d, %eax
.Ltmp48:
	#DEBUG_VALUE: main:n3 <- %EAX
	.loc	1 199 24 is_stmt 1      # sp.c:199:24
	leal	(%rcx,%rdx), %esi
.Ltmp49:
	.loc	1 199 39 is_stmt 0      # sp.c:199:39
	addl	%r8d, %esi
	.loc	1 199 9                 # sp.c:199:9
	cvtsi2sdl	%esi, %xmm3
	.loc	1 199 55                # sp.c:199:55
	divsd	.LCPI0_0(%rip), %xmm3
.Ltmp50:
	#DEBUG_VALUE: main:t <- %XMM3
	.loc	1 200 25 is_stmt 1      # sp.c:200:25
	xorps	%xmm1, %xmm1
	cvtsi2sdl	%eax, %xmm1
	.loc	1 200 23 is_stmt 0      # sp.c:200:23
	mulsd	.LCPI0_1(%rip), %xmm1
	.loc	1 201 29 is_stmt 1      # sp.c:201:29
	movapd	%xmm3, %xmm2
	mulsd	%xmm2, %xmm2
	.loc	1 201 24 is_stmt 0      # sp.c:201:24
	mulsd	.LCPI0_2(%rip), %xmm2
	.loc	1 201 14                # sp.c:201:14
	addsd	%xmm1, %xmm2
	.loc	1 202 24 is_stmt 1      # sp.c:202:24
	mulsd	.LCPI0_3(%rip), %xmm3
.Ltmp51:
	.loc	1 202 14 is_stmt 0      # sp.c:202:14
	addsd	%xmm2, %xmm3
	.loc	1 203 14 is_stmt 1      # sp.c:203:14
	addsd	.LCPI0_4(%rip), %xmm3
	.loc	1 203 35 is_stmt 0      # sp.c:203:35
	movl	96(%rsp), %r9d
.Ltmp52:
	#DEBUG_VALUE: main:niter <- %R9D
	.loc	1 203 27                # sp.c:203:27
	xorps	%xmm1, %xmm1
	cvtsi2sdl	%r9d, %xmm1
	.loc	1 203 25                # sp.c:203:25
	mulsd	%xmm3, %xmm1
	movsd	.LCPI0_5(%rip), %xmm2   # xmm2 = mem[0],zero
	.loc	1 203 48                # sp.c:203:48
	mulsd	%xmm0, %xmm2
	.loc	1 203 41                # sp.c:203:41
	divsd	%xmm2, %xmm1
.Ltmp53:
	#DEBUG_VALUE: main:mflops <- %XMM1
	jmp	.LBB0_23
.Ltmp54:
.LBB0_13:                               # %if.then42
	.loc	1 155 5 is_stmt 1       # sp.c:155:5
	movl	$.L.str.27, %edi
	xorl	%eax, %eax
	callq	printf
	.loc	1 156 5                 # sp.c:156:5
	movl	$.Lstr.45, %edi
	callq	puts
	jmp	.LBB0_14
.Ltmp55:
.LBB0_21:                               # %for.end66.if.end85_crit_edge
	#DEBUG_VALUE: main:tmax <- %XMM0
	#DEBUG_VALUE: main:Class <- [%RSI+0]
	#DEBUG_VALUE: main:niter <- %EDI
	.loc	1 209 33                # sp.c:209:33
	movl	grid_points+8(%rip), %r8d
	.loc	1 209 49 is_stmt 0      # sp.c:209:49
	movl	96(%rsp), %r9d
.Ltmp56:
.LBB0_23:                               # %if.end85
	#DEBUG_VALUE: main:tmax <- %XMM0
	.loc	1 211 17 is_stmt 1      # sp.c:211:17
	movl	132(%rsp), %eax
.Ltmp57:
	#DEBUG_VALUE: main:verified <- %EAX
	.loc	1 208 3                 # sp.c:208:3
	movsbl	103(%rsp), %esi
	movl	%eax, 8(%rsp)
	movq	$.L.str.34, 80(%rsp)
	movq	$.L.str.34, 72(%rsp)
	movq	$.L.str.34, 64(%rsp)
	movq	$.L.str.35, 56(%rsp)
	movq	$.L.str.34, 48(%rsp)
	movq	$.L.str.34, 40(%rsp)
	movq	$.L.str.34, 32(%rsp)
	movq	$.L.str.33, 24(%rsp)
	movq	$.L.str.32, 16(%rsp)
	movq	$.L.str.31, (%rsp)
.Ltmp58:
	#DEBUG_VALUE: main:niter <- %R9D
	movl	$.L.str.30, %edi
	callq	print_results
.Ltmp59:
	.loc	1 217 7                 # sp.c:217:7
	cmpl	$0, timeron(%rip)
	je	.LBB0_14
.Ltmp60:
# BB#24:                                # %for.body90.preheader
	#DEBUG_VALUE: main:tmax <- %XMM0
	#DEBUG_VALUE: main:niter <- %R9D
	#DEBUG_VALUE: main:verified <- %EAX
	.loc	1 219 18                # sp.c:219:18
	movl	$1, %edi
	callq	timer_read
.Ltmp61:
	.loc	1 219 16 is_stmt 0      # sp.c:219:16
	movsd	%xmm0, 152(%rsp)        # 8-byte Spill
	movsd	%xmm0, 200(%rsp)
	.loc	1 219 18                # sp.c:219:18
	movl	$2, %edi
	callq	timer_read
	.loc	1 219 16                # sp.c:219:16
	movsd	%xmm0, 208(%rsp)
	.loc	1 219 18                # sp.c:219:18
	movl	$3, %edi
	callq	timer_read
	.loc	1 219 16                # sp.c:219:16
	movsd	%xmm0, 216(%rsp)
	.loc	1 219 18                # sp.c:219:18
	movl	$4, %edi
	callq	timer_read
	.loc	1 219 16                # sp.c:219:16
	movsd	%xmm0, 224(%rsp)
	.loc	1 219 18                # sp.c:219:18
	movl	$5, %edi
	callq	timer_read
	.loc	1 219 16                # sp.c:219:16
	movsd	%xmm0, 232(%rsp)
	.loc	1 219 18                # sp.c:219:18
	movl	$6, %edi
	callq	timer_read
	.loc	1 219 16                # sp.c:219:16
	movsd	%xmm0, 240(%rsp)
	.loc	1 219 18                # sp.c:219:18
	movl	$7, %edi
	callq	timer_read
	.loc	1 219 16                # sp.c:219:16
	movsd	%xmm0, 248(%rsp)
	.loc	1 219 18                # sp.c:219:18
	movl	$8, %edi
	callq	timer_read
	.loc	1 219 16                # sp.c:219:16
	movsd	%xmm0, 256(%rsp)
	.loc	1 219 18                # sp.c:219:18
	movl	$9, %edi
	callq	timer_read
	.loc	1 219 16                # sp.c:219:16
	movsd	%xmm0, 112(%rsp)        # 8-byte Spill
	movsd	%xmm0, 264(%rsp)
	.loc	1 219 18                # sp.c:219:18
	movl	$10, %edi
	callq	timer_read
	.loc	1 219 16                # sp.c:219:16
	movsd	%xmm0, 120(%rsp)        # 8-byte Spill
	movsd	%xmm0, 272(%rsp)
	.loc	1 219 18                # sp.c:219:18
	movl	$11, %edi
	callq	timer_read
	.loc	1 219 16                # sp.c:219:16
	movsd	%xmm0, 280(%rsp)
	.loc	1 219 18                # sp.c:219:18
	movl	$12, %edi
	callq	timer_read
	.loc	1 219 16                # sp.c:219:16
	movsd	%xmm0, 288(%rsp)
	.loc	1 219 18                # sp.c:219:18
	movl	$13, %edi
	callq	timer_read
	.loc	1 219 16                # sp.c:219:16
	movsd	%xmm0, 296(%rsp)
	.loc	1 219 18                # sp.c:219:18
	movl	$14, %edi
	callq	timer_read
	.loc	1 219 16                # sp.c:219:16
	movsd	%xmm0, 304(%rsp)
	.loc	1 219 18                # sp.c:219:18
	movl	$15, %edi
	callq	timer_read
	.loc	1 219 16                # sp.c:219:16
	movsd	%xmm0, 312(%rsp)
.Ltmp62:
	.loc	1 221 14 is_stmt 1      # sp.c:221:14
	xorpd	%xmm0, %xmm0
.Ltmp63:
	#DEBUG_VALUE: main:tmax <- 1.000000e+00
	movsd	104(%rsp), %xmm1        # 8-byte Reload
                                        # xmm1 = mem[0],zero
.Ltmp64:
	.loc	1 221 9 is_stmt 0       # sp.c:221:9
	movapd	%xmm1, %xmm2
	cmpeqsd	%xmm0, %xmm2
	movsd	.LCPI0_6(%rip), %xmm0   # xmm0 = mem[0],zero
	andpd	%xmm2, %xmm0
	andnpd	%xmm1, %xmm2
	orpd	%xmm0, %xmm2
	.loc	1 223 5 is_stmt 1       # sp.c:223:5
	movsd	%xmm2, 104(%rsp)        # 8-byte Spill
	movl	$.Lstr.44, %edi
	callq	puts
.Ltmp65:
	movsd	152(%rsp), %xmm0        # 8-byte Reload
                                        # xmm0 = mem[0],zero
.Ltmp66:
	#DEBUG_VALUE: main:i <- 1
	.loc	1 228 13                # sp.c:228:13
	movsd	208(%rsp), %xmm1        # xmm1 = mem[0],zero
	.loc	1 230 13                # sp.c:230:13
	movsd	232(%rsp), %xmm2        # xmm2 = mem[0],zero
	.loc	1 228 27                # sp.c:228:27
	addsd	216(%rsp), %xmm1
	.loc	1 228 43 is_stmt 0      # sp.c:228:43
	addsd	224(%rsp), %xmm1
.Ltmp67:
	#DEBUG_VALUE: main:t <- %XMM1
	.loc	1 229 65 is_stmt 1      # sp.c:229:65
	movsd	%xmm1, 184(%rsp)        # 8-byte Spill
	movsd	.LCPI0_7(%rip), %xmm3   # xmm3 = mem[0],zero
	movapd	%xmm1, %xmm4
	mulsd	%xmm3, %xmm4
	movsd	104(%rsp), %xmm5        # 8-byte Reload
                                        # xmm5 = mem[0],zero
	.loc	1 229 70 is_stmt 0      # sp.c:229:70
	divsd	%xmm5, %xmm4
	movsd	%xmm4, 176(%rsp)        # 8-byte Spill
	.loc	1 230 26 is_stmt 1      # sp.c:230:26
	subsd	%xmm1, %xmm2
.Ltmp68:
	#DEBUG_VALUE: main:t <- %XMM2
	.loc	1 231 66                # sp.c:231:66
	movsd	%xmm2, 144(%rsp)        # 8-byte Spill
.Ltmp69:
	#DEBUG_VALUE: main:t <- [%RSP+144]
	mulsd	%xmm3, %xmm2
	.loc	1 231 71 is_stmt 0      # sp.c:231:71
	divsd	%xmm5, %xmm2
	movsd	%xmm2, 168(%rsp)        # 8-byte Spill
.Ltmp70:
	.loc	1 233 13 is_stmt 1      # sp.c:233:13
	movsd	256(%rsp), %xmm1        # xmm1 = mem[0],zero
	movsd	112(%rsp), %xmm2        # 8-byte Reload
                                        # xmm2 = mem[0],zero
	.loc	1 233 29 is_stmt 0      # sp.c:233:29
	subsd	%xmm2, %xmm1
	movsd	120(%rsp), %xmm4        # 8-byte Reload
                                        # xmm4 = mem[0],zero
	.loc	1 233 46                # sp.c:233:46
	subsd	%xmm4, %xmm1
.Ltmp71:
	#DEBUG_VALUE: main:t <- %XMM1
	.loc	1 234 66 is_stmt 1      # sp.c:234:66
	movsd	%xmm1, 136(%rsp)        # 8-byte Spill
.Ltmp72:
	#DEBUG_VALUE: main:t <- [%RSP+136]
	mulsd	%xmm3, %xmm1
	.loc	1 234 71 is_stmt 0      # sp.c:234:71
	divsd	%xmm5, %xmm1
	movsd	%xmm1, 160(%rsp)        # 8-byte Spill
	movapd	%xmm2, %xmm1
.Ltmp73:
	.loc	1 236 28 is_stmt 1      # sp.c:236:28
	addsd	%xmm4, %xmm1
.Ltmp74:
	#DEBUG_VALUE: main:t <- %XMM1
	.loc	1 237 64                # sp.c:237:64
	movsd	%xmm1, 112(%rsp)        # 8-byte Spill
.Ltmp75:
	#DEBUG_VALUE: main:t <- [%RSP+112]
	mulsd	%xmm3, %xmm1
	.loc	1 237 69 is_stmt 0      # sp.c:237:69
	divsd	%xmm5, %xmm1
	movsd	%xmm1, 120(%rsp)        # 8-byte Spill
	movl	$.L.str.2, %esi
	movl	$2, %ebx
	jmp	.LBB0_25
.Ltmp76:
	.p2align	4, 0x90
.LBB0_33:                               # %for.inc155.for.body104_crit_edge
                                        #   in Loop: Header=BB0_25 Depth=1
	.loc	1 226 11 is_stmt 1      # sp.c:226:11
	movq	320(%rsp,%rbx,8), %rsi
	.loc	1 226 23 is_stmt 0      # sp.c:226:23
	movsd	192(%rsp,%rbx,8), %xmm0 # xmm0 = mem[0],zero
.Ltmp77:
	.loc	1 224 5 is_stmt 1 discriminator 1 # sp.c:224:5
	incq	%rbx
.LBB0_25:                               # %for.body104
                                        # =>This Inner Loop Header: Depth=1
.Ltmp78:
	.loc	1 226 41                # sp.c:226:41
	movapd	%xmm0, %xmm1
	mulsd	.LCPI0_7(%rip), %xmm1
	.loc	1 226 46 is_stmt 0      # sp.c:226:46
	divsd	104(%rsp), %xmm1        # 8-byte Folded Reload
	.loc	1 225 7 is_stmt 1       # sp.c:225:7
	movl	$.L.str.37, %edi
	movb	$2, %al
	callq	printf
	.loc	1 227 11                # sp.c:227:11
	leal	-1(%rbx), %eax
	cmpl	$10, %eax
	je	.LBB0_30
# BB#26:                                # %for.body104
                                        #   in Loop: Header=BB0_25 Depth=1
	cmpl	$8, %eax
	je	.LBB0_29
# BB#27:                                # %for.body104
                                        #   in Loop: Header=BB0_25 Depth=1
	cmpl	$5, %eax
	jne	.LBB0_32
# BB#28:                                # %if.then116
                                        #   in Loop: Header=BB0_25 Depth=1
.Ltmp79:
	.loc	1 229 9                 # sp.c:229:9
	movl	$.L.str.38, %edi
	movl	$.L.str.39, %esi
	movb	$2, %al
	movsd	184(%rsp), %xmm0        # 8-byte Reload
                                        # xmm0 = mem[0],zero
	movsd	176(%rsp), %xmm1        # 8-byte Reload
                                        # xmm1 = mem[0],zero
	callq	printf
	.loc	1 231 9                 # sp.c:231:9
	movl	$.L.str.38, %edi
	movl	$.L.str.40, %esi
	movb	$2, %al
	movsd	144(%rsp), %xmm0        # 8-byte Reload
                                        # xmm0 = mem[0],zero
	movsd	168(%rsp), %xmm1        # 8-byte Reload
                                        # xmm1 = mem[0],zero
	jmp	.LBB0_31
.Ltmp80:
	.p2align	4, 0x90
.LBB0_30:                               # %if.then145
                                        #   in Loop: Header=BB0_25 Depth=1
	.loc	1 237 9                 # sp.c:237:9
	movl	$.L.str.38, %edi
	movl	$.L.str.42, %esi
	movb	$2, %al
	movsd	112(%rsp), %xmm0        # 8-byte Reload
                                        # xmm0 = mem[0],zero
	movsd	120(%rsp), %xmm1        # 8-byte Reload
                                        # xmm1 = mem[0],zero
	jmp	.LBB0_31
.Ltmp81:
	.p2align	4, 0x90
.LBB0_29:                               # %if.then133
                                        #   in Loop: Header=BB0_25 Depth=1
	.loc	1 234 9                 # sp.c:234:9
	movl	$.L.str.38, %edi
	movl	$.L.str.41, %esi
	movb	$2, %al
	movsd	136(%rsp), %xmm0        # 8-byte Reload
                                        # xmm0 = mem[0],zero
	movsd	160(%rsp), %xmm1        # 8-byte Reload
                                        # xmm1 = mem[0],zero
.Ltmp82:
.LBB0_31:                               # %for.inc155
                                        #   in Loop: Header=BB0_25 Depth=1
	.loc	1 237 9                 # sp.c:237:9
	callq	printf
.Ltmp83:
.LBB0_32:                               # %for.inc155
                                        #   in Loop: Header=BB0_25 Depth=1
	.loc	1 224 5 discriminator 1 # sp.c:224:5
	cmpq	$16, %rbx
	jne	.LBB0_33
.Ltmp84:
.LBB0_14:                               # %cleanup
	.loc	1 243 1                 # sp.c:243:1
	xorl	%eax, %eax
	addq	$448, %rsp              # imm = 0x1C0
	popq	%rbx
	retq
.Ltmp85:
.Lfunc_end0:
	.size	main, .Lfunc_end0-main
	.cfi_endproc

	.section	.rodata.cst16,"aM",@progbits,16
	.p2align	4
.LCPI1_0:
	.quad	4616189618054758400     # double 4
	.quad	4617315517961601024     # double 5
.LCPI1_1:
	.quad	4613937818241073152     # double 3
	.quad	4602678819172646912     # double 0.5
.LCPI1_2:
	.quad	4581421828931458171     # double 0.02
	.quad	4576918229304087675     # double 0.01
.LCPI1_3:
	.quad	4584304132692975288     # double 0.029999999999999999
	.quad	4602678819172646912     # double 0.5
.LCPI1_4:
	.quad	4600877379321698714     # double 0.40000000000000002
	.quad	4599075939470750515     # double 0.29999999999999999
.LCPI1_5:
	.quad	4607182418800017408     # double 1
	.quad	4611686018427387904     # double 2
.LCPI1_6:
	.quad	4613937818241073152     # double 3
	.quad	4576918229304087675     # double 0.01
.LCPI1_7:
	.quad	4584304132692975288     # double 0.029999999999999999
	.quad	4581421828931458171     # double 0.02
.LCPI1_8:
	.quad	4602678819172646912     # double 0.5
	.quad	4611686018427387904     # double 2
.LCPI1_9:
	.quad	4611686018427387904     # double 2
	.quad	4613937818241073152     # double 3
.LCPI1_10:
	.quad	4585925428558828667     # double 0.040000000000000001
	.quad	4584304132692975288     # double 0.029999999999999999
.LCPI1_11:
	.quad	4587366580439587226     # double 0.050000000000000003
	.quad	4599075939470750515     # double 0.29999999999999999
.LCPI1_12:
	.quad	4602678819172646912     # double 0.5
	.quad	4600877379321698714     # double 0.40000000000000002
.LCPI1_13:
	.quad	4584304132692975288     # double 0.029999999999999999
	.quad	4587366580439587226     # double 0.050000000000000003
.LCPI1_14:
	.quad	4585925428558828667     # double 0.040000000000000001
	.quad	4596373779694328218     # double 0.20000000000000001
.LCPI1_15:
	.quad	4591870180066957722     # double 0.10000000000000001
	.quad	4599075939470750515     # double 0.29999999999999999
.LCPI1_16:
	.quad	4617315517961601024     # double 5
	.quad	4616189618054758400     # double 4
.LCPI1_17:
	.quad	4613937818241073152     # double 3
	.quad	4611686018427387904     # double 2
.LCPI1_18:
	.quad	4591870180066957722     # double 0.10000000000000001
	.quad	4600877379321698714     # double 0.40000000000000002
.LCPI1_19:
	.quad	4587366580439587226     # double 0.050000000000000003
	.quad	4585925428558828667     # double 0.040000000000000001
.LCPI1_20:
	.quad	4584304132692975288     # double 0.029999999999999999
	.quad	4591870180066957722     # double 0.10000000000000001
.LCPI1_21:
	.quad	4599075939470750515     # double 0.29999999999999999
	.quad	4596373779694328218     # double 0.20000000000000001
	.section	.rodata.cst8,"aM",@progbits,8
	.p2align	3
.LCPI1_22:
	.quad	4607182418800017408     # double 1
.LCPI1_23:
	.quad	4598175219545276416     # double 0.25
.LCPI1_24:
	.quad	4616189618054758400     # double 4
.LCPI1_25:
	.quad	4617315517961601024     # double 5
.LCPI1_26:
	.quad	4618441417868443648     # double 6
.LCPI1_27:
	.quad	4591870180066957722     # double 0.10000000000000001
.LCPI1_28:
	.quad	4604930618986332160     # double 0.75
.LCPI1_29:
	.quad	4608683618675807573     # double 1.3333333333333333
.LCPI1_30:
	.quad	4595172819793696085     # double 0.16666666666666666
	.text
	.globl	set_constants
	.p2align	4, 0x90
	.type	set_constants,@function
set_constants:                          # @set_constants
.Lfunc_begin1:
	.file	6 "/home/norouzi/Desktop/software/benchmarks/NAS/NPB3.3-SER-C/SP/set_constants.c"
	.loc	6 38 0                  # set_constants.c:38:0
	.cfi_startproc
# BB#0:                                 # %entry
	.loc	6 39 13 prologue_end    # set_constants.c:39:13
	movabsq	$4611686018427387904, %rcx # imm = 0x4000000000000000
	movq	%rcx, ce(%rip)
	.loc	6 41 13                 # set_constants.c:41:13
	xorps	%xmm0, %xmm0
	movups	%xmm0, ce+8(%rip)
	.loc	6 42 13                 # set_constants.c:42:13
	movaps	.LCPI1_0(%rip), %xmm1   # xmm1 = [4.000000e+00,5.000000e+00]
	movups	%xmm1, ce+24(%rip)
	.loc	6 44 13                 # set_constants.c:44:13
	movaps	.LCPI1_1(%rip), %xmm1   # xmm1 = [3.000000e+00,5.000000e-01]
	movups	%xmm1, ce+40(%rip)
	.loc	6 46 13                 # set_constants.c:46:13
	movaps	.LCPI1_2(%rip), %xmm1   # xmm1 = [2.000000e-02,1.000000e-02]
	movups	%xmm1, ce+56(%rip)
	.loc	6 48 13                 # set_constants.c:48:13
	movaps	.LCPI1_3(%rip), %xmm1   # xmm1 = [3.000000e-02,5.000000e-01]
	movups	%xmm1, ce+72(%rip)
	.loc	6 50 13                 # set_constants.c:50:13
	movaps	.LCPI1_4(%rip), %xmm1   # xmm1 = [4.000000e-01,3.000000e-01]
	movups	%xmm1, ce+88(%rip)
	.loc	6 53 13                 # set_constants.c:53:13
	movabsq	$4607182418800017408, %rax # imm = 0x3FF0000000000000
	movq	%rax, ce+104(%rip)
	.loc	6 55 13                 # set_constants.c:55:13
	movaps	%xmm0, ce+112(%rip)
	movq	$0, ce+128(%rip)
	.loc	6 57 13                 # set_constants.c:57:13
	movaps	.LCPI1_5(%rip), %xmm2   # xmm2 = [1.000000e+00,2.000000e+00]
	movups	%xmm2, ce+136(%rip)
	.loc	6 59 13                 # set_constants.c:59:13
	movaps	.LCPI1_6(%rip), %xmm2   # xmm2 = [3.000000e+00,1.000000e-02]
	movups	%xmm2, ce+152(%rip)
	.loc	6 61 13                 # set_constants.c:61:13
	movaps	.LCPI1_7(%rip), %xmm2   # xmm2 = [3.000000e-02,2.000000e-02]
	movups	%xmm2, ce+168(%rip)
	.loc	6 63 13                 # set_constants.c:63:13
	movups	%xmm1, ce+184(%rip)
	.loc	6 65 13                 # set_constants.c:65:13
	movaps	.LCPI1_8(%rip), %xmm1   # xmm1 = [5.000000e-01,2.000000e+00]
	movups	%xmm1, ce+200(%rip)
	.loc	6 68 13                 # set_constants.c:68:13
	movq	%rcx, ce+216(%rip)
	.loc	6 70 13                 # set_constants.c:70:13
	movaps	%xmm0, ce+224(%rip)
	movq	$0, ce+240(%rip)
	.loc	6 72 13                 # set_constants.c:72:13
	movaps	.LCPI1_9(%rip), %xmm1   # xmm1 = [2.000000e+00,3.000000e+00]
	movups	%xmm1, ce+248(%rip)
	.loc	6 74 13                 # set_constants.c:74:13
	movaps	.LCPI1_10(%rip), %xmm2  # xmm2 = [4.000000e-02,3.000000e-02]
	movups	%xmm2, ce+264(%rip)
	.loc	6 76 13                 # set_constants.c:76:13
	movaps	.LCPI1_11(%rip), %xmm2  # xmm2 = [5.000000e-02,3.000000e-01]
	movups	%xmm2, ce+280(%rip)
	.loc	6 78 13                 # set_constants.c:78:13
	movaps	.LCPI1_12(%rip), %xmm2  # xmm2 = [5.000000e-01,4.000000e-01]
	movups	%xmm2, ce+296(%rip)
	.loc	6 81 13                 # set_constants.c:81:13
	movq	%rcx, ce+312(%rip)
	.loc	6 82 13                 # set_constants.c:82:13
	movq	%rcx, ce+320(%rip)
	.loc	6 84 13                 # set_constants.c:84:13
	movups	%xmm0, ce+328(%rip)
	movq	$0, ce+344(%rip)
	.loc	6 86 13                 # set_constants.c:86:13
	movaps	%xmm1, ce+352(%rip)
	.loc	6 88 13                 # set_constants.c:88:13
	movaps	.LCPI1_13(%rip), %xmm0  # xmm0 = [3.000000e-02,5.000000e-02]
	movaps	%xmm0, ce+368(%rip)
	.loc	6 90 13                 # set_constants.c:90:13
	movaps	.LCPI1_14(%rip), %xmm0  # xmm0 = [4.000000e-02,2.000000e-01]
	movaps	%xmm0, ce+384(%rip)
	.loc	6 92 13                 # set_constants.c:92:13
	movaps	.LCPI1_15(%rip), %xmm0  # xmm0 = [1.000000e-01,3.000000e-01]
	movaps	%xmm0, ce+400(%rip)
	.loc	6 95 13                 # set_constants.c:95:13
	movaps	.LCPI1_16(%rip), %xmm0  # xmm0 = [5.000000e+00,4.000000e+00]
	movaps	%xmm0, ce+416(%rip)
	.loc	6 97 13                 # set_constants.c:97:13
	movaps	.LCPI1_17(%rip), %xmm0  # xmm0 = [3.000000e+00,2.000000e+00]
	movaps	%xmm0, ce+432(%rip)
	.loc	6 99 13                 # set_constants.c:99:13
	movaps	.LCPI1_18(%rip), %xmm0  # xmm0 = [1.000000e-01,4.000000e-01]
	movaps	%xmm0, ce+448(%rip)
	.loc	6 50 13                 # set_constants.c:50:13
	movabsq	$4599075939470750515, %rcx # imm = 0x3FD3333333333333
	.loc	6 101 13                # set_constants.c:101:13
	movq	%rcx, ce+464(%rip)
	.loc	6 102 13                # set_constants.c:102:13
	movaps	.LCPI1_19(%rip), %xmm0  # xmm0 = [5.000000e-02,4.000000e-02]
	movups	%xmm0, ce+472(%rip)
	.loc	6 104 13                # set_constants.c:104:13
	movaps	.LCPI1_20(%rip), %xmm0  # xmm0 = [3.000000e-02,1.000000e-01]
	movups	%xmm0, ce+488(%rip)
	.loc	6 106 13                # set_constants.c:106:13
	movaps	.LCPI1_21(%rip), %xmm0  # xmm0 = [3.000000e-01,2.000000e-01]
	movups	%xmm0, ce+504(%rip)
	.loc	6 109 6                 # set_constants.c:109:6
	movabsq	$4608983858650965606, %rcx # imm = 0x3FF6666666666666
	movq	%rcx, c1(%rip)
	.loc	6 50 13                 # set_constants.c:50:13
	movabsq	$4600877379321698714, %rdx # imm = 0x3FD999999999999A
	.loc	6 110 6                 # set_constants.c:110:6
	movq	%rdx, c2(%rip)
	.loc	6 92 13                 # set_constants.c:92:13
	movabsq	$4591870180066957722, %rdx # imm = 0x3FB999999999999A
	.loc	6 111 6                 # set_constants.c:111:6
	movq	%rdx, c3(%rip)
	.loc	6 112 6                 # set_constants.c:112:6
	movq	%rax, c4(%rip)
	.loc	6 113 6                 # set_constants.c:113:6
	movq	%rcx, c5(%rip)
	.loc	6 115 6                 # set_constants.c:115:6
	movabsq	$4604544271217802189, %rcx # imm = 0x3FE6A09E667F3BCD
	movq	%rcx, bt(%rip)
	.loc	6 117 26                # set_constants.c:117:26
	movl	grid_points(%rip), %ecx
	.loc	6 117 40 is_stmt 0      # set_constants.c:117:40
	decl	%ecx
	.loc	6 117 17                # set_constants.c:117:17
	cvtsi2sdl	%ecx, %xmm2
	.loc	6 53 13 is_stmt 1       # set_constants.c:53:13
	movsd	.LCPI1_22(%rip), %xmm0  # xmm0 = mem[0],zero
	.loc	6 117 15                # set_constants.c:117:15
	movapd	%xmm0, %xmm1
	divsd	%xmm2, %xmm1
	.loc	6 117 9 is_stmt 0       # set_constants.c:117:9
	movsd	%xmm1, dnxm1(%rip)
	.loc	6 118 26 is_stmt 1      # set_constants.c:118:26
	movl	grid_points+4(%rip), %ecx
	.loc	6 118 40 is_stmt 0      # set_constants.c:118:40
	decl	%ecx
	.loc	6 118 17                # set_constants.c:118:17
	xorps	%xmm2, %xmm2
	cvtsi2sdl	%ecx, %xmm2
	.loc	6 118 15                # set_constants.c:118:15
	movapd	%xmm0, %xmm5
	divsd	%xmm2, %xmm5
	.loc	6 118 9                 # set_constants.c:118:9
	movsd	%xmm5, dnym1(%rip)
	.loc	6 119 26 is_stmt 1      # set_constants.c:119:26
	movl	grid_points+8(%rip), %ecx
	.loc	6 119 40 is_stmt 0      # set_constants.c:119:40
	decl	%ecx
	.loc	6 119 17                # set_constants.c:119:17
	xorps	%xmm2, %xmm2
	cvtsi2sdl	%ecx, %xmm2
	.loc	6 119 15                # set_constants.c:119:15
	movapd	%xmm0, %xmm3
	divsd	%xmm2, %xmm3
	.loc	6 119 9                 # set_constants.c:119:9
	movsd	%xmm3, dnzm1(%rip)
	.loc	6 121 8 is_stmt 1       # set_constants.c:121:8
	movabsq	$4603219251127931371, %rcx # imm = 0x3FE1EB851EB851EB
	movq	%rcx, c1c2(%rip)
	.loc	6 122 8                 # set_constants.c:122:8
	movabsq	$4611505874442293083, %rcx # imm = 0x3FFF5C28F5C28F5B
	movq	%rcx, c1c5(%rip)
	.loc	6 123 8                 # set_constants.c:123:8
	movq	%rdx, c3c4(%rip)
	.loc	6 124 9                 # set_constants.c:124:9
	movabsq	$4596229664506252361, %rcx # imm = 0x3FC916872B020C49
	movq	%rcx, c1345(%rip)
	.loc	6 126 9                 # set_constants.c:126:9
	movabsq	$-4616549906024948042, %rcx # imm = 0xBFEEB851EB851EB6
	movq	%rcx, conz1(%rip)
	.loc	6 128 22                # set_constants.c:128:22
	movapd	%xmm1, %xmm4
	mulsd	%xmm4, %xmm4
	.loc	6 128 13 is_stmt 0      # set_constants.c:128:13
	movapd	%xmm0, %xmm10
	divsd	%xmm4, %xmm10
	.loc	6 128 7                 # set_constants.c:128:7
	movsd	%xmm10, tx1(%rip)
	.loc	6 130 13 is_stmt 1      # set_constants.c:130:13
	movapd	%xmm0, %xmm8
	divsd	%xmm1, %xmm8
	.loc	6 129 20                # set_constants.c:129:20
	addsd	%xmm1, %xmm1
	.loc	6 129 13 is_stmt 0      # set_constants.c:129:13
	movapd	%xmm0, %xmm6
	divsd	%xmm1, %xmm6
	.loc	6 129 7                 # set_constants.c:129:7
	movsd	%xmm6, tx2(%rip)
	.loc	6 130 7 is_stmt 1       # set_constants.c:130:7
	movsd	%xmm8, tx3(%rip)
	.loc	6 132 22                # set_constants.c:132:22
	movapd	%xmm5, %xmm1
	mulsd	%xmm1, %xmm1
	.loc	6 132 13 is_stmt 0      # set_constants.c:132:13
	movapd	%xmm0, %xmm4
	divsd	%xmm1, %xmm4
	.loc	6 132 7                 # set_constants.c:132:7
	movsd	%xmm4, ty1(%rip)
	.loc	6 134 13 is_stmt 1      # set_constants.c:134:13
	movapd	%xmm0, %xmm1
	divsd	%xmm5, %xmm1
	.loc	6 133 20                # set_constants.c:133:20
	addsd	%xmm5, %xmm5
	.loc	6 133 13 is_stmt 0      # set_constants.c:133:13
	movapd	%xmm0, %xmm7
	divsd	%xmm5, %xmm7
	.loc	6 133 7                 # set_constants.c:133:7
	movsd	%xmm7, ty2(%rip)
	.loc	6 134 7 is_stmt 1       # set_constants.c:134:7
	movsd	%xmm1, ty3(%rip)
	.loc	6 136 13                # set_constants.c:136:13
	movapd	%xmm0, %xmm9
	.loc	6 137 20                # set_constants.c:137:20
	movapd	%xmm3, %xmm2
	.loc	6 137 13 is_stmt 0      # set_constants.c:137:13
	movapd	%xmm0, %xmm5
	.loc	6 138 13 is_stmt 1      # set_constants.c:138:13
	divsd	%xmm3, %xmm0
	.loc	6 136 22                # set_constants.c:136:22
	mulsd	%xmm3, %xmm3
	.loc	6 136 13 is_stmt 0      # set_constants.c:136:13
	divsd	%xmm3, %xmm9
	.loc	6 136 7                 # set_constants.c:136:7
	movsd	%xmm9, tz1(%rip)
	.loc	6 137 20 is_stmt 1      # set_constants.c:137:20
	addsd	%xmm2, %xmm2
	.loc	6 137 13 is_stmt 0      # set_constants.c:137:13
	divsd	%xmm2, %xmm5
	.loc	6 137 7                 # set_constants.c:137:7
	movsd	%xmm5, tz2(%rip)
	.loc	6 138 7 is_stmt 1       # set_constants.c:138:7
	movsd	%xmm0, tz3(%rip)
	.loc	6 140 7                 # set_constants.c:140:7
	movabsq	$4604930618986332160, %rcx # imm = 0x3FE8000000000000
	movq	%rcx, dx1(%rip)
	.loc	6 141 7                 # set_constants.c:141:7
	movq	%rcx, dx2(%rip)
	.loc	6 142 7                 # set_constants.c:142:7
	movq	%rcx, dx3(%rip)
	.loc	6 143 7                 # set_constants.c:143:7
	movq	%rcx, dx4(%rip)
	.loc	6 144 7                 # set_constants.c:144:7
	movq	%rcx, dx5(%rip)
	.loc	6 146 7                 # set_constants.c:146:7
	movq	%rcx, dy1(%rip)
	.loc	6 147 7                 # set_constants.c:147:7
	movq	%rcx, dy2(%rip)
	.loc	6 148 7                 # set_constants.c:148:7
	movq	%rcx, dy3(%rip)
	.loc	6 149 7                 # set_constants.c:149:7
	movq	%rcx, dy4(%rip)
	.loc	6 150 7                 # set_constants.c:150:7
	movq	%rcx, dy5(%rip)
	.loc	6 152 7                 # set_constants.c:152:7
	movq	%rax, dz1(%rip)
	.loc	6 153 7                 # set_constants.c:153:7
	movq	%rax, dz2(%rip)
	.loc	6 154 7                 # set_constants.c:154:7
	movq	%rax, dz3(%rip)
	.loc	6 155 7                 # set_constants.c:155:7
	movq	%rax, dz4(%rip)
	.loc	6 156 7                 # set_constants.c:156:7
	movq	%rax, dz5(%rip)
	.loc	6 158 9 discriminator 3 # set_constants.c:158:9
	movq	%rcx, dxmax(%rip)
	.loc	6 159 9 discriminator 3 # set_constants.c:159:9
	movq	%rcx, dymax(%rip)
	.loc	6 160 9 discriminator 3 # set_constants.c:160:9
	movq	%rax, dzmax(%rip)
	.loc	6 162 8 discriminator 9 # set_constants.c:162:8
	movabsq	$4598175219545276416, %rcx # imm = 0x3FD0000000000000
	movq	%rcx, dssp(%rip)
	.loc	6 164 10                # set_constants.c:164:10
	movq	%rax, c4dssp(%rip)
	.loc	6 165 10                # set_constants.c:165:10
	movabsq	$4608308318706860032, %rax # imm = 0x3FF4000000000000
	movq	%rax, c5dssp(%rip)
	.loc	6 167 11                # set_constants.c:167:11
	movsd	dt(%rip), %xmm2         # xmm2 = mem[0],zero
	.loc	6 167 13 is_stmt 0      # set_constants.c:167:13
	movapd	%xmm2, %xmm3
	mulsd	%xmm10, %xmm3
	.loc	6 167 9                 # set_constants.c:167:9
	movsd	%xmm3, dttx1(%rip)
	.loc	6 168 13 is_stmt 1      # set_constants.c:168:13
	mulsd	%xmm2, %xmm6
	.loc	6 168 9 is_stmt 0       # set_constants.c:168:9
	movsd	%xmm6, dttx2(%rip)
	.loc	6 169 13 is_stmt 1      # set_constants.c:169:13
	movapd	%xmm2, %xmm6
	mulsd	%xmm4, %xmm6
	.loc	6 169 9 is_stmt 0       # set_constants.c:169:9
	movsd	%xmm6, dtty1(%rip)
	.loc	6 170 13 is_stmt 1      # set_constants.c:170:13
	mulsd	%xmm2, %xmm7
	.loc	6 170 9 is_stmt 0       # set_constants.c:170:9
	movsd	%xmm7, dtty2(%rip)
	.loc	6 171 13 is_stmt 1      # set_constants.c:171:13
	movapd	%xmm2, %xmm7
	mulsd	%xmm9, %xmm7
	.loc	6 171 9 is_stmt 0       # set_constants.c:171:9
	movsd	%xmm7, dttz1(%rip)
	.loc	6 172 13 is_stmt 1      # set_constants.c:172:13
	mulsd	%xmm2, %xmm5
	.loc	6 172 9 is_stmt 0       # set_constants.c:172:9
	movsd	%xmm5, dttz2(%rip)
	.loc	6 174 16 is_stmt 1      # set_constants.c:174:16
	addsd	%xmm3, %xmm3
	.loc	6 174 11 is_stmt 0      # set_constants.c:174:11
	movsd	%xmm3, c2dttx1(%rip)
	.loc	6 175 16 is_stmt 1      # set_constants.c:175:16
	addsd	%xmm6, %xmm6
	.loc	6 175 11 is_stmt 0      # set_constants.c:175:11
	movsd	%xmm6, c2dtty1(%rip)
	.loc	6 176 16 is_stmt 1      # set_constants.c:176:16
	addsd	%xmm7, %xmm7
	.loc	6 176 11 is_stmt 0      # set_constants.c:176:11
	movsd	%xmm7, c2dttz1(%rip)
	.loc	6 178 14 is_stmt 1      # set_constants.c:178:14
	mulsd	.LCPI1_23(%rip), %xmm2
	.loc	6 178 10 is_stmt 0      # set_constants.c:178:10
	movsd	%xmm2, dtdssp(%rip)
	.loc	6 180 10 is_stmt 1      # set_constants.c:180:10
	movsd	%xmm2, comz1(%rip)
	movsd	.LCPI1_24(%rip), %xmm3  # xmm3 = mem[0],zero
	.loc	6 181 15                # set_constants.c:181:15
	mulsd	%xmm2, %xmm3
	.loc	6 181 10 is_stmt 0      # set_constants.c:181:10
	movsd	%xmm3, comz4(%rip)
	movsd	.LCPI1_25(%rip), %xmm3  # xmm3 = mem[0],zero
	.loc	6 182 15 is_stmt 1      # set_constants.c:182:15
	mulsd	%xmm2, %xmm3
	.loc	6 182 10 is_stmt 0      # set_constants.c:182:10
	movsd	%xmm3, comz5(%rip)
	.loc	6 183 15 is_stmt 1      # set_constants.c:183:15
	mulsd	.LCPI1_26(%rip), %xmm2
	.loc	6 183 10 is_stmt 0      # set_constants.c:183:10
	movsd	%xmm2, comz6(%rip)
	.loc	6 92 13 is_stmt 1       # set_constants.c:92:13
	movsd	.LCPI1_27(%rip), %xmm2  # xmm2 = mem[0],zero
	.loc	6 185 17                # set_constants.c:185:17
	movapd	%xmm8, %xmm6
	mulsd	%xmm2, %xmm6
	.loc	6 185 11 is_stmt 0      # set_constants.c:185:11
	movsd	%xmm6, c3c4tx3(%rip)
	.loc	6 186 17 is_stmt 1      # set_constants.c:186:17
	mulsd	%xmm2, %xmm1
	.loc	6 186 11 is_stmt 0      # set_constants.c:186:11
	movsd	%xmm1, c3c4ty3(%rip)
	.loc	6 187 17 is_stmt 1      # set_constants.c:187:17
	mulsd	%xmm2, %xmm0
	.loc	6 187 11 is_stmt 0      # set_constants.c:187:11
	movsd	%xmm0, c3c4tz3(%rip)
	.loc	6 140 7 is_stmt 1       # set_constants.c:140:7
	movsd	.LCPI1_28(%rip), %xmm2  # xmm2 = mem[0],zero
	.loc	6 189 15                # set_constants.c:189:15
	mulsd	%xmm2, %xmm10
	.loc	6 189 10 is_stmt 0      # set_constants.c:189:10
	movsd	%xmm10, dx1tx1(%rip)
	.loc	6 190 10 is_stmt 1      # set_constants.c:190:10
	movsd	%xmm10, dx2tx1(%rip)
	.loc	6 191 10                # set_constants.c:191:10
	movsd	%xmm10, dx3tx1(%rip)
	.loc	6 192 10                # set_constants.c:192:10
	movsd	%xmm10, dx4tx1(%rip)
	.loc	6 193 10                # set_constants.c:193:10
	movsd	%xmm10, dx5tx1(%rip)
	.loc	6 195 15                # set_constants.c:195:15
	mulsd	%xmm2, %xmm4
	.loc	6 195 10 is_stmt 0      # set_constants.c:195:10
	movsd	%xmm4, dy1ty1(%rip)
	.loc	6 196 10 is_stmt 1      # set_constants.c:196:10
	movsd	%xmm4, dy2ty1(%rip)
	.loc	6 197 10                # set_constants.c:197:10
	movsd	%xmm4, dy3ty1(%rip)
	.loc	6 198 10                # set_constants.c:198:10
	movsd	%xmm4, dy4ty1(%rip)
	.loc	6 199 10                # set_constants.c:199:10
	movsd	%xmm4, dy5ty1(%rip)
	.loc	6 201 10                # set_constants.c:201:10
	movsd	%xmm9, dz1tz1(%rip)
	.loc	6 202 10                # set_constants.c:202:10
	movsd	%xmm9, dz2tz1(%rip)
	.loc	6 203 10                # set_constants.c:203:10
	movsd	%xmm9, dz3tz1(%rip)
	.loc	6 204 10                # set_constants.c:204:10
	movsd	%xmm9, dz4tz1(%rip)
	.loc	6 205 10                # set_constants.c:205:10
	movsd	%xmm9, dz5tz1(%rip)
	.loc	6 207 9                 # set_constants.c:207:9
	movabsq	$4612811918334230528, %rax # imm = 0x4004000000000000
	movq	%rax, c2iv(%rip)
	.loc	6 208 9                 # set_constants.c:208:9
	movabsq	$4608683618675807573, %rax # imm = 0x3FF5555555555555
	movq	%rax, con43(%rip)
	.loc	6 209 9                 # set_constants.c:209:9
	movabsq	$4595172819793696085, %rax # imm = 0x3FC5555555555555
	movq	%rax, con16(%rip)
	.loc	6 208 9                 # set_constants.c:208:9
	movsd	.LCPI1_29(%rip), %xmm3  # xmm3 = mem[0],zero
	.loc	6 211 19                # set_constants.c:211:19
	movapd	%xmm6, %xmm2
	mulsd	%xmm3, %xmm2
	.loc	6 211 25 is_stmt 0      # set_constants.c:211:25
	mulsd	%xmm8, %xmm2
	.loc	6 211 10                # set_constants.c:211:10
	movsd	%xmm2, xxcon1(%rip)
	.loc	6 212 19 is_stmt 1      # set_constants.c:212:19
	movapd	%xmm6, %xmm2
	mulsd	%xmm8, %xmm2
	.loc	6 212 10 is_stmt 0      # set_constants.c:212:10
	movsd	%xmm2, xxcon2(%rip)
	.loc	6 213 20 is_stmt 1      # set_constants.c:213:20
	movsd	conz1(%rip), %xmm4      # xmm4 = mem[0],zero
	.loc	6 213 19 is_stmt 0      # set_constants.c:213:19
	movapd	%xmm6, %xmm2
	mulsd	%xmm4, %xmm2
	.loc	6 213 25                # set_constants.c:213:25
	mulsd	%xmm8, %xmm2
	.loc	6 213 10                # set_constants.c:213:10
	movsd	%xmm2, xxcon3(%rip)
	.loc	6 209 9 is_stmt 1       # set_constants.c:209:9
	movsd	.LCPI1_30(%rip), %xmm5  # xmm5 = mem[0],zero
	.loc	6 214 19                # set_constants.c:214:19
	movapd	%xmm6, %xmm2
	mulsd	%xmm5, %xmm2
	.loc	6 214 25 is_stmt 0      # set_constants.c:214:25
	mulsd	%xmm8, %xmm2
	.loc	6 214 10                # set_constants.c:214:10
	movsd	%xmm2, xxcon4(%rip)
	.loc	6 215 20 is_stmt 1      # set_constants.c:215:20
	movsd	c1c5(%rip), %xmm2       # xmm2 = mem[0],zero
	.loc	6 215 19 is_stmt 0      # set_constants.c:215:19
	mulsd	%xmm2, %xmm6
	.loc	6 215 24                # set_constants.c:215:24
	mulsd	tx3(%rip), %xmm6
	.loc	6 215 10                # set_constants.c:215:10
	movsd	%xmm6, xxcon5(%rip)
	.loc	6 217 19 is_stmt 1      # set_constants.c:217:19
	movapd	%xmm1, %xmm6
	mulsd	%xmm3, %xmm6
	.loc	6 217 26 is_stmt 0      # set_constants.c:217:26
	movsd	ty3(%rip), %xmm7        # xmm7 = mem[0],zero
	.loc	6 217 25                # set_constants.c:217:25
	mulsd	%xmm7, %xmm6
	.loc	6 217 10                # set_constants.c:217:10
	movsd	%xmm6, yycon1(%rip)
	.loc	6 218 19 is_stmt 1      # set_constants.c:218:19
	movapd	%xmm1, %xmm6
	mulsd	%xmm7, %xmm6
	.loc	6 218 10 is_stmt 0      # set_constants.c:218:10
	movsd	%xmm6, yycon2(%rip)
	.loc	6 219 19 is_stmt 1      # set_constants.c:219:19
	movapd	%xmm1, %xmm6
	mulsd	%xmm4, %xmm6
	.loc	6 219 25 is_stmt 0      # set_constants.c:219:25
	mulsd	%xmm7, %xmm6
	.loc	6 219 10                # set_constants.c:219:10
	movsd	%xmm6, yycon3(%rip)
	.loc	6 220 19 is_stmt 1      # set_constants.c:220:19
	movapd	%xmm1, %xmm6
	mulsd	%xmm5, %xmm6
	.loc	6 220 25 is_stmt 0      # set_constants.c:220:25
	mulsd	%xmm7, %xmm6
	.loc	6 220 10                # set_constants.c:220:10
	movsd	%xmm6, yycon4(%rip)
	.loc	6 221 19 is_stmt 1      # set_constants.c:221:19
	mulsd	%xmm2, %xmm1
	.loc	6 221 24 is_stmt 0      # set_constants.c:221:24
	mulsd	%xmm7, %xmm1
	.loc	6 221 10                # set_constants.c:221:10
	movsd	%xmm1, yycon5(%rip)
	.loc	6 223 19 is_stmt 1      # set_constants.c:223:19
	mulsd	%xmm0, %xmm3
	.loc	6 223 26 is_stmt 0      # set_constants.c:223:26
	movsd	tz3(%rip), %xmm1        # xmm1 = mem[0],zero
	.loc	6 223 25                # set_constants.c:223:25
	mulsd	%xmm1, %xmm3
	.loc	6 223 10                # set_constants.c:223:10
	movsd	%xmm3, zzcon1(%rip)
	.loc	6 224 19 is_stmt 1      # set_constants.c:224:19
	movapd	%xmm0, %xmm3
	mulsd	%xmm1, %xmm3
	.loc	6 224 10 is_stmt 0      # set_constants.c:224:10
	movsd	%xmm3, zzcon2(%rip)
	.loc	6 225 19 is_stmt 1      # set_constants.c:225:19
	mulsd	%xmm0, %xmm4
	.loc	6 225 25 is_stmt 0      # set_constants.c:225:25
	mulsd	%xmm1, %xmm4
	.loc	6 225 10                # set_constants.c:225:10
	movsd	%xmm4, zzcon3(%rip)
	.loc	6 226 19 is_stmt 1      # set_constants.c:226:19
	mulsd	%xmm0, %xmm5
	.loc	6 226 25 is_stmt 0      # set_constants.c:226:25
	mulsd	%xmm1, %xmm5
	.loc	6 226 10                # set_constants.c:226:10
	movsd	%xmm5, zzcon4(%rip)
	.loc	6 227 19 is_stmt 1      # set_constants.c:227:19
	mulsd	%xmm2, %xmm0
	.loc	6 227 24 is_stmt 0      # set_constants.c:227:24
	mulsd	%xmm1, %xmm0
	.loc	6 227 10                # set_constants.c:227:10
	movsd	%xmm0, zzcon5(%rip)
	.loc	6 228 1 is_stmt 1       # set_constants.c:228:1
	retq
.Ltmp86:
.Lfunc_end1:
	.size	set_constants, .Lfunc_end1-set_constants
	.cfi_endproc

	.section	.rodata.cst8,"aM",@progbits,8
	.p2align	3
.LCPI2_0:
	.quad	4607182418800017408     # double 1
.LCPI2_1:
	.quad	4602678819172646912     # double 0.5
.LCPI2_2:
	.quad	-4611686018427387904    # double -2
.LCPI2_3:
	.quad	4616189618054758400     # double 4
.LCPI2_4:
	.quad	4618441417868443648     # double 6
.LCPI2_8:
	.quad	4617315517961601024     # double 5
	.section	.rodata.cst16,"aM",@progbits,16
	.p2align	4
.LCPI2_5:
	.quad	4617315517961601024     # double 5
	.quad	4617315517961601024     # double 5
.LCPI2_6:
	.quad	4616189618054758400     # double 4
	.quad	4616189618054758400     # double 4
.LCPI2_7:
	.quad	4618441417868443648     # double 6
	.quad	4618441417868443648     # double 6
.LCPI2_9:
	.quad	-9223372036854775808    # 0x8000000000000000
	.quad	-9223372036854775808    # 0x8000000000000000
	.text
	.globl	exact_rhs
	.p2align	4, 0x90
	.type	exact_rhs,@function
exact_rhs:                              # @exact_rhs
.Lfunc_begin2:
	.file	7 "/home/norouzi/Desktop/software/benchmarks/NAS/NPB3.3-SER-C/SP/exact_rhs.c"
	.loc	7 40 0                  # exact_rhs.c:40:0
	.cfi_startproc
# BB#0:                                 # %entry
	.loc	7 60 20 prologue_end discriminator 1 # exact_rhs.c:60:20
	pushq	%rbp
.Ltmp87:
	.cfi_def_cfa_offset 16
	pushq	%r15
.Ltmp88:
	.cfi_def_cfa_offset 24
	pushq	%r14
.Ltmp89:
	.cfi_def_cfa_offset 32
	pushq	%r13
.Ltmp90:
	.cfi_def_cfa_offset 40
	pushq	%r12
.Ltmp91:
	.cfi_def_cfa_offset 48
	pushq	%rbx
.Ltmp92:
	.cfi_def_cfa_offset 56
	subq	$296, %rsp              # imm = 0x128
.Ltmp93:
	.cfi_def_cfa_offset 352
.Ltmp94:
	.cfi_offset %rbx, -56
.Ltmp95:
	.cfi_offset %r12, -48
.Ltmp96:
	.cfi_offset %r13, -40
.Ltmp97:
	.cfi_offset %r14, -32
.Ltmp98:
	.cfi_offset %r15, -24
.Ltmp99:
	.cfi_offset %rbp, -16
.Ltmp100:
	#DEBUG_VALUE: exact_rhs:k <- 0
	movl	grid_points+8(%rip), %r12d
.Ltmp101:
	.loc	7 47 3 discriminator 1  # exact_rhs.c:47:3
	testl	%r12d, %r12d
	jle	.LBB2_10
# BB#1:                                 # %for.cond1.preheader.lr.ph
.Ltmp102:
	.loc	7 48 22 discriminator 1 # exact_rhs.c:48:22
	movl	grid_points+4(%rip), %ecx
	.loc	7 48 5 is_stmt 0 discriminator 1 # exact_rhs.c:48:5
	testl	%ecx, %ecx
	jle	.LBB2_10
# BB#2:                                 # %for.cond5.preheader.lr.ph.us.preheader
.Ltmp103:
	.loc	7 49 24 is_stmt 1 discriminator 1 # exact_rhs.c:49:24
	movl	grid_points(%rip), %eax
.Ltmp104:
	.loc	7 51 11                 # exact_rhs.c:51:11
	movq	%rax, 48(%rsp)          # 8-byte Spill
	leal	-1(%rax), %eax
	leaq	(%rax,%rax,4), %rax
	leaq	40(,%rax,8), %r15
	movq	%rcx, 160(%rsp)         # 8-byte Spill
	leal	-1(%rcx), %eax
.Ltmp105:
	.loc	7 49 7 discriminator 1  # exact_rhs.c:49:7
	movl	%eax, 24(%rsp)          # 4-byte Spill
	andl	$7, %ecx
	movq	%rcx, 176(%rsp)         # 8-byte Spill
	movl	$forcing, %eax
	movq	%rax, 16(%rsp)          # 8-byte Spill
	xorl	%eax, %eax
	movl	$forcing+18200, %ecx
	movq	%rcx, 32(%rsp)          # 8-byte Spill
	.p2align	4, 0x90
.LBB2_3:                                # %for.cond5.preheader.lr.ph.us
                                        # =>This Loop Header: Depth=1
                                        #     Child Loop BB2_5 Depth 2
                                        #     Child Loop BB2_8 Depth 2
	movq	%rax, (%rsp)            # 8-byte Spill
	movq	48(%rsp), %rax          # 8-byte Reload
	testl	%eax, %eax
	jle	.LBB2_9
# BB#4:                                 # %for.cond9.preheader.lr.ph.us.us.preheader
                                        #   in Loop: Header=BB2_3 Depth=1
	movq	176(%rsp), %r14         # 8-byte Reload
	testl	%r14d, %r14d
	movq	16(%rsp), %rbx          # 8-byte Reload
	movl	$0, %ebp
	je	.LBB2_6
	.p2align	4, 0x90
.LBB2_5:                                # %for.cond9.preheader.lr.ph.us.us.prol
                                        #   Parent Loop BB2_3 Depth=1
                                        # =>  This Inner Loop Header: Depth=2
.Ltmp106:
	.loc	7 51 31                 # exact_rhs.c:51:31
	xorl	%esi, %esi
	movq	%rbx, %rdi
	movq	%r15, %rdx
	callq	memset
.Ltmp107:
	.loc	7 48 5 discriminator 1  # exact_rhs.c:48:5
	incq	%rbp
	addq	$2600, %rbx             # imm = 0xA28
	cmpl	%ebp, %r14d
	jne	.LBB2_5
.LBB2_6:                                # %for.cond9.preheader.lr.ph.us.us.preheader.split
                                        #   in Loop: Header=BB2_3 Depth=1
	cmpl	$7, 24(%rsp)            # 4-byte Folded Reload
	jb	.LBB2_9
# BB#7:                                 # %for.cond9.preheader.lr.ph.us.us.preheader.split.split
                                        #   in Loop: Header=BB2_3 Depth=1
.Ltmp108:
	.loc	7 49 7 discriminator 1  # exact_rhs.c:49:7
	movq	160(%rsp), %rax         # 8-byte Reload
	movl	%eax, %ebx
	subl	%ebp, %ebx
	imulq	$2600, %rbp, %rbp       # imm = 0xA28
	movq	32(%rsp), %r13          # 8-byte Reload
	.p2align	4, 0x90
.LBB2_8:                                # %for.cond9.preheader.lr.ph.us.us
                                        #   Parent Loop BB2_3 Depth=1
                                        # =>  This Inner Loop Header: Depth=2
.Ltmp109:
	.loc	7 51 31                 # exact_rhs.c:51:31
	leaq	(%r13,%rbp), %r14
	leaq	-18200(%r13,%rbp), %rdi
	xorl	%esi, %esi
	movq	%r15, %rdx
	callq	memset
	leaq	-15600(%r13,%rbp), %rdi
	xorl	%esi, %esi
	movq	%r15, %rdx
	callq	memset
	leaq	-13000(%r13,%rbp), %rdi
	xorl	%esi, %esi
	movq	%r15, %rdx
	callq	memset
	leaq	-10400(%r13,%rbp), %rdi
	xorl	%esi, %esi
	movq	%r15, %rdx
	callq	memset
	leaq	-7800(%r13,%rbp), %rdi
	xorl	%esi, %esi
	movq	%r15, %rdx
	callq	memset
	leaq	-5200(%r13,%rbp), %rdi
	xorl	%esi, %esi
	movq	%r15, %rdx
	callq	memset
	leaq	-2600(%r13,%rbp), %rdi
	xorl	%esi, %esi
	movq	%r15, %rdx
	callq	memset
	xorl	%esi, %esi
	movq	%r14, %rdi
	movq	%r15, %rdx
	callq	memset
.Ltmp110:
	.loc	7 48 5 discriminator 1  # exact_rhs.c:48:5
	addq	$20800, %r13            # imm = 0x5140
	addl	$-8, %ebx
	jne	.LBB2_8
.Ltmp111:
.LBB2_9:                                # %for.cond1.for.inc24_crit_edge.us
                                        #   in Loop: Header=BB2_3 Depth=1
	movq	(%rsp), %rax            # 8-byte Reload
	.loc	7 47 39 discriminator 2 # exact_rhs.c:47:39
	incl	%eax
.Ltmp112:
	#DEBUG_VALUE: exact_rhs:k <- %EAX
	.loc	7 47 3 is_stmt 0 discriminator 1 # exact_rhs.c:47:3
	addq	$169000, 16(%rsp)       # 8-byte Folded Spill
                                        # imm = 0x29428
	addq	$169000, 32(%rsp)       # 8-byte Folded Spill
                                        # imm = 0x29428
	.loc	7 47 17 discriminator 1 # exact_rhs.c:47:17
	cmpl	%r12d, %eax
	jl	.LBB2_3
.Ltmp113:
.LBB2_10:                               # %for.cond27.preheader
	.loc	7 60 17 is_stmt 1 discriminator 1 # exact_rhs.c:60:17
	movl	%r12d, %eax
	addl	$-2, %eax
	jle	.LBB2_27
# BB#11:                                # %for.body30.lr.ph
.Ltmp114:
	.loc	7 62 22 discriminator 1 # exact_rhs.c:62:22
	movl	grid_points+4(%rip), %eax
	movl	$1, %ecx
	movq	%rcx, 96(%rsp)          # 8-byte Spill
	movl	$forcing+171672, %esi
	movl	$forcing+171752, %edi
	leaq	112(%rsp), %rbx
	.p2align	4, 0x90
.LBB2_12:                               # %for.body30
                                        # =>This Loop Header: Depth=1
                                        #     Child Loop BB2_14 Depth 2
                                        #       Child Loop BB2_16 Depth 3
                                        #       Child Loop BB2_19 Depth 3
                                        #       Child Loop BB2_22 Depth 3
.Ltmp115:
	#DEBUG_VALUE: exact_rhs:j <- 1
	.loc	7 62 19 is_stmt 0 discriminator 1 # exact_rhs.c:62:19
	movl	%eax, %ecx
	addl	$-2, %ecx
	jle	.LBB2_26
.Ltmp116:
# BB#13:                                # %for.body35.lr.ph
                                        #   in Loop: Header=BB2_12 Depth=1
	.loc	7 61 12 is_stmt 1       # exact_rhs.c:61:12
	movq	96(%rsp), %rax          # 8-byte Reload
	cvtsi2sdl	%eax, %xmm5
	.loc	7 61 22 is_stmt 0       # exact_rhs.c:61:22
	mulsd	dnzm1(%rip), %xmm5
.Ltmp117:
	#DEBUG_VALUE: exact_rhs:zeta <- %XMM5
	.loc	7 65 24 is_stmt 1 discriminator 1 # exact_rhs.c:65:24
	movsd	%xmm5, 16(%rsp)         # 8-byte Spill
	movl	grid_points(%rip), %edx
	movq	%rdi, 192(%rsp)         # 8-byte Spill
	movq	%rdi, %r13
	movq	%rsi, %r12
	movq	%rsi, 80(%rsp)          # 8-byte Spill
	movl	$1, %r15d
.Ltmp118:
	.p2align	4, 0x90
.LBB2_14:                               # %for.body35
                                        #   Parent Loop BB2_12 Depth=1
                                        # =>  This Loop Header: Depth=2
                                        #       Child Loop BB2_16 Depth 3
                                        #       Child Loop BB2_19 Depth 3
                                        #       Child Loop BB2_22 Depth 3
	#DEBUG_VALUE: exact_rhs:i <- 0
	.loc	7 65 21 is_stmt 0 discriminator 1 # exact_rhs.c:65:21
	testl	%edx, %edx
	jle	.LBB2_17
.Ltmp119:
# BB#15:                                #   in Loop: Header=BB2_14 Depth=2
	.loc	7 63 13 is_stmt 1       # exact_rhs.c:63:13
	cvtsi2sdl	%r15d, %xmm0
	.loc	7 63 23 is_stmt 0       # exact_rhs.c:63:23
	mulsd	dnym1(%rip), %xmm0
.Ltmp120:
	#DEBUG_VALUE: exact_rhs:eta <- %XMM0
	movsd	%xmm0, (%rsp)           # 8-byte Spill
.Ltmp121:
	#DEBUG_VALUE: exact_rhs:eta <- [%RSP+0]
	xorl	%ebp, %ebp
	xorl	%r14d, %r14d
.Ltmp122:
	.p2align	4, 0x90
.LBB2_16:                               # %for.body42
                                        #   Parent Loop BB2_12 Depth=1
                                        #     Parent Loop BB2_14 Depth=2
                                        # =>    This Inner Loop Header: Depth=3
	.loc	7 66 14 is_stmt 1       # exact_rhs.c:66:14
	xorps	%xmm0, %xmm0
	cvtsi2sdl	%r14d, %xmm0
	.loc	7 66 24 is_stmt 0       # exact_rhs.c:66:24
	mulsd	dnxm1(%rip), %xmm0
.Ltmp123:
	#DEBUG_VALUE: exact_rhs:xi <- %XMM0
	.loc	7 68 9 is_stmt 1        # exact_rhs.c:68:9
	movsd	(%rsp), %xmm1           # 8-byte Reload
                                        # xmm1 = mem[0],zero
	movapd	%xmm5, %xmm2
	movq	%rbx, %rdi
	callq	exact_solution
.Ltmp124:
	#DEBUG_VALUE: exact_rhs:m <- 0
	.loc	7 73 20                 # exact_rhs.c:73:20
	movsd	.LCPI2_0(%rip), %xmm0   # xmm0 = mem[0],zero
.Ltmp125:
	movapd	%xmm0, %xmm2
	movsd	16(%rsp), %xmm5         # 8-byte Reload
                                        # xmm5 = mem[0],zero
.Ltmp126:
	.loc	7 70 20                 # exact_rhs.c:70:20
	movq	144(%rsp), %rax
	movq	%rax, ue+32(%rbp)
	movaps	112(%rsp), %xmm0
	movaps	128(%rsp), %xmm1
	movups	%xmm1, ue+16(%rbp)
	movups	%xmm0, ue(%rbp)
.Ltmp127:
	.loc	7 73 20                 # exact_rhs.c:73:20
	movapd	%xmm2, %xmm0
	divsd	112(%rsp), %xmm0
.Ltmp128:
	#DEBUG_VALUE: exact_rhs:dtpp <- %XMM0
	#DEBUG_VALUE: exact_rhs:m <- 1
	.loc	7 76 30                 # exact_rhs.c:76:30
	movupd	120(%rsp), %xmm1
	.loc	7 76 28 is_stmt 0       # exact_rhs.c:76:28
	movlhps	%xmm0, %xmm0            # xmm0 = xmm0[0,0]
.Ltmp129:
	mulpd	%xmm0, %xmm1
	.loc	7 76 21                 # exact_rhs.c:76:21
	movupd	%xmm1, buf+8(%rbp)
	.loc	7 76 30                 # exact_rhs.c:76:30
	movupd	136(%rsp), %xmm2
	.loc	7 76 28                 # exact_rhs.c:76:28
	mulpd	%xmm0, %xmm2
	.loc	7 76 21                 # exact_rhs.c:76:21
	movupd	%xmm2, buf+24(%rbp)
.Ltmp130:
	.loc	7 80 40 is_stmt 1       # exact_rhs.c:80:40
	movapd	%xmm1, %xmm0
	movsd	ue+8(%rbp), %xmm3       # xmm3 = mem[0],zero
	.loc	7 81 30                 # exact_rhs.c:81:30
	mulsd	%xmm1, %xmm3
	.loc	7 79 31                 # exact_rhs.c:79:31
	mulsd	%xmm1, %xmm1
	.loc	7 79 19 is_stmt 0       # exact_rhs.c:79:19
	movsd	%xmm1, cuf(,%r14,8)
	.loc	7 80 40 is_stmt 1       # exact_rhs.c:80:40
	shufpd	$1, %xmm0, %xmm0        # xmm0 = xmm0[1,0]
	movsd	ue+16(%rbp), %xmm4      # xmm4 = mem[0],zero
	.loc	7 81 51                 # exact_rhs.c:81:51
	mulsd	%xmm0, %xmm4
	.loc	7 80 40                 # exact_rhs.c:80:40
	mulsd	%xmm0, %xmm0
	.loc	7 80 28 is_stmt 0       # exact_rhs.c:80:28
	addsd	%xmm1, %xmm0
	movsd	ue+24(%rbp), %xmm1      # xmm1 = mem[0],zero
	.loc	7 82 30 is_stmt 1       # exact_rhs.c:82:30
	mulsd	%xmm2, %xmm1
	.loc	7 80 64                 # exact_rhs.c:80:64
	mulsd	%xmm2, %xmm2
	.loc	7 80 52 is_stmt 0       # exact_rhs.c:80:52
	addsd	%xmm0, %xmm2
	movsd	.LCPI2_1(%rip), %xmm0   # xmm0 = mem[0],zero
	.loc	7 80 19                 # exact_rhs.c:80:19
	movsd	%xmm2, buf(%rbp)
	.loc	7 81 40 is_stmt 1       # exact_rhs.c:81:40
	addsd	%xmm3, %xmm4
	.loc	7 81 61 is_stmt 0       # exact_rhs.c:81:61
	addsd	%xmm4, %xmm1
	.loc	7 81 19                 # exact_rhs.c:81:19
	mulsd	%xmm0, %xmm1
	.loc	7 81 14                 # exact_rhs.c:81:14
	movsd	%xmm1, q(,%r14,8)
.Ltmp131:
	.loc	7 65 7 is_stmt 1 discriminator 1 # exact_rhs.c:65:7
	incq	%r14
	.loc	7 65 21 is_stmt 0 discriminator 1 # exact_rhs.c:65:21
	movslq	grid_points(%rip), %rdx
	addq	$40, %rbp
	cmpq	%rdx, %r14
	jl	.LBB2_16
.Ltmp132:
.LBB2_17:                               # %for.cond131.preheader
                                        #   in Loop: Header=BB2_14 Depth=2
	.loc	7 85 21 is_stmt 1 discriminator 1 # exact_rhs.c:85:21
	addl	$-2, %edx
	movsd	.LCPI2_2(%rip), %xmm0   # xmm0 = mem[0],zero
	jle	.LBB2_20
# BB#18:                                # %for.body135.lr.ph
                                        #   in Loop: Header=BB2_14 Depth=2
.Ltmp133:
	.loc	7 90 11                 # exact_rhs.c:90:11
	movsd	tx2(%rip), %xmm15       # xmm15 = mem[0],zero
	.loc	7 94 37                 # exact_rhs.c:94:37
	movsd	c2(%rip), %xmm13        # xmm13 = mem[0],zero
	.loc	7 110 26                # exact_rhs.c:110:26
	movsd	c1(%rip), %xmm6         # xmm6 = mem[0],zero
	movsd	xxcon3(%rip), %xmm1     # xmm1 = mem[0],zero
	.loc	7 112 14                # exact_rhs.c:112:14
	mulsd	.LCPI2_1(%rip), %xmm1
	movsd	%xmm1, (%rsp)           # 8-byte Spill
	.loc	7 113 11                # exact_rhs.c:113:11
	movsd	xxcon4(%rip), %xmm1     # xmm1 = mem[0],zero
	.loc	7 114 11                # exact_rhs.c:114:11
	movsd	%xmm1, 32(%rsp)         # 8-byte Spill
	movsd	xxcon5(%rip), %xmm1     # xmm1 = mem[0],zero
	.loc	7 115 11                # exact_rhs.c:115:11
	movsd	%xmm1, 48(%rsp)         # 8-byte Spill
	movsd	dx5tx1(%rip), %xmm1     # xmm1 = mem[0],zero
.Ltmp134:
	.loc	7 85 7 discriminator 1  # exact_rhs.c:85:7
	movsd	%xmm1, 24(%rsp)         # 8-byte Spill
	movslq	%edx, %rax
.Ltmp135:
	.loc	7 95 41                 # exact_rhs.c:95:41
	movsd	ue+32(%rip), %xmm5      # xmm5 = mem[0],zero
	.loc	7 96 35                 # exact_rhs.c:96:35
	movsd	buf+48(%rip), %xmm4     # xmm4 = mem[0],zero
	.loc	7 90 14                 # exact_rhs.c:90:14
	movapd	%xmm15, %xmm1
	movhpd	xxcon1(%rip), %xmm1     # xmm1 = xmm1[0],mem[0]
	movapd	%xmm1, 176(%rsp)        # 16-byte Spill
	.loc	7 91 17                 # exact_rhs.c:91:17
	movsd	dx1tx1(%rip), %xmm1     # xmm1 = mem[0],zero
	movhpd	dx2tx1(%rip), %xmm1     # xmm1 = xmm1[0],mem[0]
	movapd	%xmm1, 160(%rsp)        # 16-byte Spill
	.loc	7 99 57                 # exact_rhs.c:99:57
	movapd	%xmm15, %xmm1
	movlhps	%xmm1, %xmm1            # xmm1 = xmm1[0,0]
	movaps	%xmm1, 240(%rsp)        # 16-byte Spill
	.loc	7 101 17                # exact_rhs.c:101:17
	movsd	xxcon2(%rip), %xmm1     # xmm1 = mem[0],zero
	movlhps	%xmm1, %xmm1            # xmm1 = xmm1[0,0]
	movaps	%xmm1, 224(%rsp)        # 16-byte Spill
	.loc	7 102 17                # exact_rhs.c:102:17
	movsd	dx3tx1(%rip), %xmm1     # xmm1 = mem[0],zero
	movhpd	dx4tx1(%rip), %xmm1     # xmm1 = xmm1[0],mem[0]
	movapd	%xmm1, 208(%rsp)        # 16-byte Spill
	.loc	7 96 35                 # exact_rhs.c:96:35
	movl	$0, %ecx
	movq	%r12, %rdx
	xorl	%esi, %esi
	.p2align	4, 0x90
.LBB2_19:                               # %for.body135
                                        #   Parent Loop BB2_12 Depth=1
                                        #     Parent Loop BB2_14 Depth=2
                                        # =>    This Inner Loop Header: Depth=3
	.loc	7 90 17                 # exact_rhs.c:90:17
	movsd	ue+88(%rcx), %xmm12     # xmm12 = mem[0],zero
	.loc	7 90 28 is_stmt 0       # exact_rhs.c:90:28
	movsd	ue+8(%rcx), %xmm11      # xmm11 = mem[0],zero
	.loc	7 94 25 is_stmt 1       # exact_rhs.c:94:25
	movsd	buf+88(%rcx), %xmm10    # xmm10 = mem[0],zero
	.loc	7 94 24 is_stmt 0       # exact_rhs.c:94:24
	movapd	%xmm12, %xmm3
	mulsd	%xmm10, %xmm3
	.loc	7 94 41                 # exact_rhs.c:94:41
	movsd	ue+112(%rcx), %xmm7     # xmm7 = mem[0],zero
	.loc	7 94 52                 # exact_rhs.c:94:52
	movsd	q+16(,%rsi,8), %xmm14   # xmm14 = mem[0],zero
	.loc	7 94 51                 # exact_rhs.c:94:51
	movapd	%xmm7, %xmm2
	subsd	%xmm14, %xmm2
	.loc	7 94 39                 # exact_rhs.c:94:39
	mulsd	%xmm13, %xmm2
	.loc	7 94 36                 # exact_rhs.c:94:36
	addsd	%xmm3, %xmm2
	.loc	7 95 25 is_stmt 1       # exact_rhs.c:95:25
	movsd	buf+8(%rcx), %xmm8      # xmm8 = mem[0],zero
	.loc	7 95 24 is_stmt 0       # exact_rhs.c:95:24
	movapd	%xmm11, %xmm3
	mulsd	%xmm8, %xmm3
	.loc	7 95 52                 # exact_rhs.c:95:52
	movsd	q(,%rsi,8), %xmm9       # xmm9 = mem[0],zero
	.loc	7 95 51                 # exact_rhs.c:95:51
	subsd	%xmm9, %xmm5
	.loc	7 95 39                 # exact_rhs.c:95:39
	mulsd	%xmm13, %xmm5
	.loc	7 95 36                 # exact_rhs.c:95:36
	addsd	%xmm3, %xmm5
	.loc	7 91 29 is_stmt 1       # exact_rhs.c:91:29
	movsd	ue+80(%rcx), %xmm3      # xmm3 = mem[0],zero
	unpcklpd	%xmm12, %xmm3   # xmm3 = xmm3[0],xmm12[0]
	.loc	7 94 60                 # exact_rhs.c:94:60
	subsd	%xmm5, %xmm2
	.loc	7 93 31                 # exact_rhs.c:93:31
	movsd	-24(%rdx), %xmm5        # xmm5 = mem[0],zero
	.loc	7 93 57 is_stmt 0       # exact_rhs.c:93:57
	mulsd	%xmm15, %xmm2
	.loc	7 93 51                 # exact_rhs.c:93:51
	subsd	%xmm2, %xmm5
	.loc	7 91 42 is_stmt 1       # exact_rhs.c:91:42
	movsd	ue(%rcx), %xmm2         # xmm2 = mem[0],zero
	unpcklpd	%xmm11, %xmm2   # xmm2 = xmm2[0],xmm11[0]
	.loc	7 96 34                 # exact_rhs.c:96:34
	mulsd	%xmm0, %xmm4
	.loc	7 96 30 is_stmt 0       # exact_rhs.c:96:30
	addsd	%xmm10, %xmm4
	.loc	7 90 27 is_stmt 1       # exact_rhs.c:90:27
	unpcklpd	%xmm8, %xmm12   # xmm12 = xmm12[0],xmm8[0]
	unpcklpd	%xmm4, %xmm11   # xmm11 = xmm11[0],xmm4[0]
	movapd	%xmm12, %xmm4
	subpd	%xmm11, %xmm4
	addpd	%xmm12, %xmm11
	movsd	%xmm4, %xmm11           # xmm11 = xmm4[0],xmm11[1]
	.loc	7 89 51                 # exact_rhs.c:89:51
	movsd	-32(%rdx), %xmm4        # xmm4 = mem[0],zero
	.loc	7 90 14                 # exact_rhs.c:90:14
	mulpd	176(%rsp), %xmm11       # 16-byte Folded Reload
	.loc	7 89 51                 # exact_rhs.c:89:51
	unpcklpd	%xmm5, %xmm4    # xmm4 = xmm4[0],xmm5[0]
	movapd	%xmm4, %xmm5
	subpd	%xmm11, %xmm5
	addpd	%xmm11, %xmm4
	movsd	%xmm5, %xmm4            # xmm4 = xmm5[0],xmm4[1]
	.loc	7 91 34                 # exact_rhs.c:91:34
	movupd	ue+40(%rcx), %xmm5
	.loc	7 91 33 is_stmt 0       # exact_rhs.c:91:33
	addpd	%xmm5, %xmm5
	.loc	7 91 29                 # exact_rhs.c:91:29
	subpd	%xmm5, %xmm3
	.loc	7 91 42                 # exact_rhs.c:91:42
	addpd	%xmm3, %xmm2
	.loc	7 91 17                 # exact_rhs.c:91:17
	mulpd	160(%rsp), %xmm2        # 16-byte Folded Reload
	.loc	7 90 40 is_stmt 1       # exact_rhs.c:90:40
	addpd	%xmm4, %xmm2
	.loc	7 89 29                 # exact_rhs.c:89:29
	movupd	%xmm2, -32(%rdx)
	.loc	7 99 31                 # exact_rhs.c:99:31
	movupd	-16(%rdx), %xmm5
	.loc	7 100 13                # exact_rhs.c:100:13
	movupd	ue+96(%rcx), %xmm4
	.loc	7 100 23 is_stmt 0      # exact_rhs.c:100:23
	movapd	%xmm10, %xmm2
	movlhps	%xmm2, %xmm2            # xmm2 = xmm2[0,0]
	mulpd	%xmm4, %xmm2
	.loc	7 111 29 is_stmt 1      # exact_rhs.c:111:29
	movsd	ue+32(%rcx), %xmm12     # xmm12 = mem[0],zero
	movapd	%xmm0, %xmm11
	movapd	%xmm6, %xmm3
	.loc	7 111 28 is_stmt 0      # exact_rhs.c:111:28
	movapd	%xmm3, %xmm0
	mulsd	%xmm12, %xmm0
	.loc	7 111 42                # exact_rhs.c:111:42
	mulsd	%xmm13, %xmm9
	.loc	7 111 39                # exact_rhs.c:111:39
	subsd	%xmm9, %xmm0
	.loc	7 100 36 is_stmt 1      # exact_rhs.c:100:36
	movupd	ue+16(%rcx), %xmm1
	.loc	7 111 24                # exact_rhs.c:111:24
	mulsd	%xmm8, %xmm0
	.loc	7 100 46                # exact_rhs.c:100:46
	movlhps	%xmm8, %xmm8            # xmm8 = xmm8[0,0]
	mulpd	%xmm1, %xmm8
	.loc	7 100 35 is_stmt 0      # exact_rhs.c:100:35
	subpd	%xmm8, %xmm2
	.loc	7 99 57 is_stmt 1       # exact_rhs.c:99:57
	mulpd	240(%rsp), %xmm2        # 16-byte Folded Reload
	.loc	7 99 51 is_stmt 0       # exact_rhs.c:99:51
	subpd	%xmm2, %xmm5
	.loc	7 101 19 is_stmt 1      # exact_rhs.c:101:19
	movupd	buf+96(%rcx), %xmm2
	.loc	7 101 35 is_stmt 0      # exact_rhs.c:101:35
	movupd	buf+56(%rcx), %xmm6
	.loc	7 101 34                # exact_rhs.c:101:34
	addpd	%xmm6, %xmm6
	.loc	7 101 30                # exact_rhs.c:101:30
	subpd	%xmm6, %xmm2
	.loc	7 101 45                # exact_rhs.c:101:45
	movupd	buf+16(%rcx), %xmm6
	.loc	7 101 44                # exact_rhs.c:101:44
	addpd	%xmm2, %xmm6
	.loc	7 101 17                # exact_rhs.c:101:17
	mulpd	224(%rsp), %xmm6        # 16-byte Folded Reload
	.loc	7 100 59 is_stmt 1      # exact_rhs.c:100:59
	addpd	%xmm5, %xmm6
	.loc	7 102 35                # exact_rhs.c:102:35
	movupd	ue+56(%rcx), %xmm2
	.loc	7 102 34 is_stmt 0      # exact_rhs.c:102:34
	addpd	%xmm2, %xmm2
	.loc	7 102 30                # exact_rhs.c:102:30
	subpd	%xmm2, %xmm4
	.loc	7 102 44                # exact_rhs.c:102:44
	addpd	%xmm1, %xmm4
	.loc	7 102 17                # exact_rhs.c:102:17
	mulpd	208(%rsp), %xmm4        # 16-byte Folded Reload
	.loc	7 101 57 is_stmt 1      # exact_rhs.c:101:57
	addpd	%xmm6, %xmm4
	.loc	7 110 28                # exact_rhs.c:110:28
	movapd	%xmm3, %xmm1
	movapd	%xmm3, %xmm6
	mulsd	%xmm7, %xmm1
	.loc	7 110 42 is_stmt 0      # exact_rhs.c:110:42
	mulsd	%xmm13, %xmm14
	.loc	7 110 39                # exact_rhs.c:110:39
	subsd	%xmm14, %xmm1
	.loc	7 110 24                # exact_rhs.c:110:24
	mulsd	%xmm10, %xmm1
	.loc	7 99 29 is_stmt 1       # exact_rhs.c:99:29
	movupd	%xmm4, -16(%rdx)
	.loc	7 109 31                # exact_rhs.c:109:31
	movsd	(%rdx), %xmm2           # xmm2 = mem[0],zero
	.loc	7 110 50                # exact_rhs.c:110:50
	subsd	%xmm0, %xmm1
	.loc	7 109 56                # exact_rhs.c:109:56
	mulsd	%xmm15, %xmm1
	.loc	7 109 51 is_stmt 0      # exact_rhs.c:109:51
	subsd	%xmm1, %xmm2
	.loc	7 112 23 is_stmt 1      # exact_rhs.c:112:23
	movsd	buf+80(%rcx), %xmm0     # xmm0 = mem[0],zero
	.loc	7 112 39 is_stmt 0      # exact_rhs.c:112:39
	movsd	buf+40(%rcx), %xmm1     # xmm1 = mem[0],zero
	.loc	7 112 38                # exact_rhs.c:112:38
	addsd	%xmm1, %xmm1
	.loc	7 112 34                # exact_rhs.c:112:34
	subsd	%xmm1, %xmm0
	.loc	7 112 48                # exact_rhs.c:112:48
	addsd	buf(%rcx), %xmm0
	.loc	7 112 21                # exact_rhs.c:112:21
	mulsd	(%rsp), %xmm0           # 8-byte Folded Reload
	.loc	7 111 51 is_stmt 1      # exact_rhs.c:111:51
	addsd	%xmm2, %xmm0
	.loc	7 113 19                # exact_rhs.c:113:19
	movsd	cuf+16(,%rsi,8), %xmm1  # xmm1 = mem[0],zero
	.loc	7 113 32 is_stmt 0      # exact_rhs.c:113:32
	movsd	cuf+8(,%rsi,8), %xmm2   # xmm2 = mem[0],zero
	.loc	7 113 31                # exact_rhs.c:113:31
	addsd	%xmm2, %xmm2
	.loc	7 113 27                # exact_rhs.c:113:27
	subsd	%xmm2, %xmm1
	.loc	7 113 38                # exact_rhs.c:113:38
	addsd	cuf(,%rsi,8), %xmm1
	.loc	7 113 17                # exact_rhs.c:113:17
	mulsd	32(%rsp), %xmm1         # 8-byte Folded Reload
	.loc	7 112 61 is_stmt 1      # exact_rhs.c:112:61
	addsd	%xmm0, %xmm1
	.loc	7 114 19                # exact_rhs.c:114:19
	movsd	buf+112(%rcx), %xmm0    # xmm0 = mem[0],zero
	.loc	7 114 35 is_stmt 0      # exact_rhs.c:114:35
	movsd	buf+72(%rcx), %xmm2     # xmm2 = mem[0],zero
	.loc	7 114 34                # exact_rhs.c:114:34
	addsd	%xmm2, %xmm2
	.loc	7 114 30                # exact_rhs.c:114:30
	subsd	%xmm2, %xmm0
	.loc	7 114 44                # exact_rhs.c:114:44
	addsd	buf+32(%rcx), %xmm0
	.loc	7 114 17                # exact_rhs.c:114:17
	mulsd	48(%rsp), %xmm0         # 8-byte Folded Reload
	.loc	7 113 48 is_stmt 1      # exact_rhs.c:113:48
	addsd	%xmm1, %xmm0
	.loc	7 115 36                # exact_rhs.c:115:36
	movsd	ue+72(%rcx), %xmm5      # xmm5 = mem[0],zero
	.loc	7 115 34 is_stmt 0      # exact_rhs.c:115:34
	movapd	%xmm5, %xmm1
	addsd	%xmm1, %xmm1
	.loc	7 115 30                # exact_rhs.c:115:30
	subsd	%xmm1, %xmm7
	.loc	7 115 44                # exact_rhs.c:115:44
	addsd	%xmm12, %xmm7
	.loc	7 115 17                # exact_rhs.c:115:17
	mulsd	24(%rsp), %xmm7         # 8-byte Folded Reload
	.loc	7 114 57 is_stmt 1      # exact_rhs.c:114:57
	addsd	%xmm0, %xmm7
	movapd	%xmm11, %xmm0
	.loc	7 109 29                # exact_rhs.c:109:29
	movsd	%xmm7, (%rdx)
	.loc	7 96 35                 # exact_rhs.c:96:35
	movapd	%xmm10, %xmm4
.Ltmp136:
	.loc	7 85 21 discriminator 1 # exact_rhs.c:85:21
	incq	%rsi
	addq	$40, %rdx
	addq	$40, %rcx
	cmpq	%rax, %rsi
	jl	.LBB2_19
.Ltmp137:
.LBB2_20:                               # %for.cond466.preheader
                                        #   in Loop: Header=BB2_14 Depth=2
	#DEBUG_VALUE: exact_rhs:i <- 2
	.loc	7 123 31                # exact_rhs.c:123:31
	imulq	$2600, %r15, %rax       # imm = 0xA28
	imulq	$169000, 96(%rsp), %rcx # 8-byte Folded Reload
                                        # imm = 0x29428
	.loc	7 124 16                # exact_rhs.c:124:16
	movupd	ue+40(%rip), %xmm6
	.loc	7 127 16                # exact_rhs.c:127:16
	movapd	%xmm6, %xmm0
	movsd	.LCPI2_3(%rip), %xmm1   # xmm1 = mem[0],zero
	mulsd	%xmm1, %xmm0
	.loc	7 124 31                # exact_rhs.c:124:31
	movapd	ue+80(%rip), %xmm4
	.loc	7 127 33                # exact_rhs.c:127:33
	movapd	%xmm4, (%rsp)           # 16-byte Spill
	movapd	%xmm4, %xmm14
	movsd	.LCPI2_4(%rip), %xmm1   # xmm1 = mem[0],zero
	mulsd	%xmm1, %xmm14
	.loc	7 127 16 is_stmt 0      # exact_rhs.c:127:16
	subsd	%xmm0, %xmm14
	.loc	7 124 43 is_stmt 1      # exact_rhs.c:124:43
	movupd	ue+120(%rip), %xmm9
.Ltmp138:
	#DEBUG_VALUE: exact_rhs:i <- 1
	.loc	7 123 31                # exact_rhs.c:123:31
	movupd	forcing+40(%rcx,%rax), %xmm1
	.loc	7 124 15                # exact_rhs.c:124:15
	movapd	%xmm6, %xmm3
	movapd	.LCPI2_5(%rip), %xmm0   # xmm0 = [5.000000e+00,5.000000e+00]
	movapd	%xmm0, %xmm15
	mulpd	%xmm15, %xmm3
	.loc	7 124 30 is_stmt 0      # exact_rhs.c:124:30
	movapd	%xmm4, %xmm2
	movapd	.LCPI2_6(%rip), %xmm10  # xmm10 = [4.000000e+00,4.000000e+00]
	mulpd	%xmm10, %xmm2
	.loc	7 124 25                # exact_rhs.c:124:25
	subpd	%xmm2, %xmm3
	.loc	7 124 42                # exact_rhs.c:124:42
	addpd	%xmm9, %xmm3
	.loc	7 123 58 is_stmt 1      # exact_rhs.c:123:58
	movsd	dssp(%rip), %xmm2       # xmm2 = mem[0],zero
	movlhps	%xmm2, %xmm2            # xmm2 = xmm2[0,0]
	mulpd	%xmm2, %xmm3
	.loc	7 123 51 is_stmt 0      # exact_rhs.c:123:51
	subpd	%xmm3, %xmm1
	.loc	7 123 29                # exact_rhs.c:123:29
	movupd	%xmm1, forcing+40(%rcx,%rax)
.Ltmp139:
	#DEBUG_VALUE: exact_rhs:i <- 2
	.loc	7 128 34 is_stmt 1      # exact_rhs.c:128:34
	movsd	ue+168(%rip), %xmm13    # xmm13 = mem[0],zero
.Ltmp140:
	#DEBUG_VALUE: exact_rhs:i <- 1
	.loc	7 124 16                # exact_rhs.c:124:16
	movupd	ue+56(%rip), %xmm5
	.loc	7 124 31 is_stmt 0      # exact_rhs.c:124:31
	movapd	ue+96(%rip), %xmm8
	.loc	7 124 43                # exact_rhs.c:124:43
	movupd	ue+136(%rip), %xmm11
.Ltmp141:
	#DEBUG_VALUE: exact_rhs:i <- 2
	.loc	7 126 31 is_stmt 1      # exact_rhs.c:126:31
	movupd	forcing+88(%rcx,%rax), %xmm1
	.loc	7 127 16                # exact_rhs.c:127:16
	movapd	%xmm6, %xmm3
	shufpd	$1, %xmm5, %xmm3        # xmm3 = xmm3[1],xmm5[0]
	mulpd	%xmm10, %xmm3
	.loc	7 127 33 is_stmt 0      # exact_rhs.c:127:33
	movapd	%xmm4, %xmm7
	shufpd	$1, %xmm8, %xmm7        # xmm7 = xmm7[1],xmm8[0]
	movapd	.LCPI2_7(%rip), %xmm4   # xmm4 = [6.000000e+00,6.000000e+00]
	mulpd	%xmm4, %xmm7
	.loc	7 127 16                # exact_rhs.c:127:16
	subpd	%xmm3, %xmm7
	.loc	7 128 16 is_stmt 1      # exact_rhs.c:128:16
	movapd	%xmm9, %xmm3
	shufpd	$1, %xmm11, %xmm3       # xmm3 = xmm3[1],xmm11[0]
	mulpd	%xmm10, %xmm3
	.loc	7 127 43                # exact_rhs.c:127:43
	subpd	%xmm3, %xmm7
	.loc	7 128 34                # exact_rhs.c:128:34
	movapd	ue+176(%rip), %xmm12
	.loc	7 128 28 is_stmt 0      # exact_rhs.c:128:28
	movapd	%xmm13, %xmm3
	unpcklpd	%xmm12, %xmm3   # xmm3 = xmm3[0],xmm12[0]
	addpd	%xmm7, %xmm3
	.loc	7 126 58 is_stmt 1      # exact_rhs.c:126:58
	mulpd	%xmm2, %xmm3
	.loc	7 126 51 is_stmt 0      # exact_rhs.c:126:51
	subpd	%xmm3, %xmm1
	.loc	7 126 29                # exact_rhs.c:126:29
	movupd	%xmm1, forcing+88(%rcx,%rax)
.Ltmp142:
	#DEBUG_VALUE: exact_rhs:i <- 1
	.loc	7 123 31 is_stmt 1      # exact_rhs.c:123:31
	movupd	forcing+56(%rcx,%rax), %xmm1
	.loc	7 124 15                # exact_rhs.c:124:15
	movapd	%xmm5, %xmm3
	mulpd	%xmm15, %xmm3
	.loc	7 124 30 is_stmt 0      # exact_rhs.c:124:30
	movapd	%xmm8, %xmm7
	mulpd	%xmm10, %xmm7
	.loc	7 124 25                # exact_rhs.c:124:25
	subpd	%xmm7, %xmm3
	.loc	7 124 42                # exact_rhs.c:124:42
	addpd	%xmm11, %xmm3
	.loc	7 123 58 is_stmt 1      # exact_rhs.c:123:58
	mulpd	%xmm2, %xmm3
	.loc	7 123 51 is_stmt 0      # exact_rhs.c:123:51
	subpd	%xmm3, %xmm1
	.loc	7 123 29                # exact_rhs.c:123:29
	movupd	%xmm1, forcing+56(%rcx,%rax)
.Ltmp143:
	#DEBUG_VALUE: exact_rhs:i <- 2
	.loc	7 123 31                # exact_rhs.c:123:31
	movupd	forcing+72(%rcx,%rax), %xmm3
	.loc	7 124 16 is_stmt 1      # exact_rhs.c:124:16
	movsd	ue+72(%rip), %xmm7      # xmm7 = mem[0],zero
	.loc	7 124 15 is_stmt 0      # exact_rhs.c:124:15
	movapd	%xmm7, %xmm4
	movsd	.LCPI2_8(%rip), %xmm0   # xmm0 = mem[0],zero
	mulsd	%xmm0, %xmm4
	.loc	7 124 31                # exact_rhs.c:124:31
	movsd	ue+112(%rip), %xmm15    # xmm15 = mem[0],zero
	.loc	7 124 25                # exact_rhs.c:124:25
	unpcklpd	%xmm14, %xmm4   # xmm4 = xmm4[0],xmm14[0]
	.loc	7 124 30                # exact_rhs.c:124:30
	movapd	%xmm15, %xmm1
	unpcklpd	%xmm9, %xmm1    # xmm1 = xmm1[0],xmm9[0]
	mulpd	%xmm10, %xmm1
	.loc	7 124 25                # exact_rhs.c:124:25
	subpd	%xmm1, %xmm4
	.loc	7 124 43                # exact_rhs.c:124:43
	movupd	ue+152(%rip), %xmm1
	.loc	7 124 42                # exact_rhs.c:124:42
	addpd	%xmm1, %xmm4
	.loc	7 123 58 is_stmt 1      # exact_rhs.c:123:58
	mulpd	%xmm2, %xmm4
	.loc	7 123 51 is_stmt 0      # exact_rhs.c:123:51
	subpd	%xmm4, %xmm3
	.loc	7 127 16 is_stmt 1      # exact_rhs.c:127:16
	movapd	%xmm5, %xmm4
	shufpd	$1, %xmm4, %xmm4        # xmm4 = xmm4[1,0]
	.loc	7 123 29                # exact_rhs.c:123:29
	movupd	%xmm3, forcing+72(%rcx,%rax)
	.loc	7 127 33                # exact_rhs.c:127:33
	movapd	%xmm8, %xmm3
	shufpd	$1, %xmm3, %xmm3        # xmm3 = xmm3[1,0]
	.loc	7 127 16 is_stmt 0      # exact_rhs.c:127:16
	unpcklpd	%xmm7, %xmm4    # xmm4 = xmm4[0],xmm7[0]
	mulpd	%xmm10, %xmm4
	.loc	7 127 33                # exact_rhs.c:127:33
	unpcklpd	%xmm15, %xmm3   # xmm3 = xmm3[0],xmm15[0]
	mulpd	.LCPI2_7(%rip), %xmm3
	.loc	7 127 16                # exact_rhs.c:127:16
	subpd	%xmm4, %xmm3
	.loc	7 128 16 is_stmt 1      # exact_rhs.c:128:16
	movapd	%xmm11, %xmm4
	shufpd	$1, %xmm1, %xmm4        # xmm4 = xmm4[1],xmm1[0]
	mulpd	%xmm10, %xmm4
	.loc	7 127 43                # exact_rhs.c:127:43
	subpd	%xmm4, %xmm3
	.loc	7 128 28                # exact_rhs.c:128:28
	movapd	%xmm12, %xmm1
	shufpd	$1, %xmm1, %xmm1        # xmm1 = xmm1[1,0]
.Ltmp144:
	#DEBUG_VALUE: exact_rhs:i <- 1
	movhpd	ue+192(%rip), %xmm1     # xmm1 = xmm1[0],mem[0]
	addpd	%xmm3, %xmm1
	.loc	7 126 58                # exact_rhs.c:126:58
	mulpd	%xmm2, %xmm1
	.loc	7 126 31 is_stmt 0      # exact_rhs.c:126:31
	movupd	forcing+104(%rcx,%rax), %xmm2
	.loc	7 126 51                # exact_rhs.c:126:51
	subpd	%xmm1, %xmm2
	.loc	7 126 29                # exact_rhs.c:126:29
	movupd	%xmm2, forcing+104(%rcx,%rax)
.Ltmp145:
	.loc	7 131 7 is_stmt 1 discriminator 1 # exact_rhs.c:131:7
	movslq	grid_points(%rip), %rdx
	.loc	7 131 38 is_stmt 0 discriminator 1 # exact_rhs.c:131:38
	movq	%rdx, %rsi
	addq	$-4, %rsi
.Ltmp146:
	#DEBUG_VALUE: exact_rhs:m <- 0
	.loc	7 131 21 discriminator 1 # exact_rhs.c:131:21
	cmpl	$3, %esi
	jl	.LBB2_24
.Ltmp147:
# BB#21:                                # %for.cond557.preheader.lr.ph
                                        #   in Loop: Header=BB2_14 Depth=2
	movapd	(%rsp), %xmm1           # 16-byte Reload
.Ltmp148:
	.loc	7 127 33 is_stmt 1      # exact_rhs.c:127:33
	shufpd	$1, %xmm1, %xmm1        # xmm1 = xmm1[1,0]
	.loc	7 127 16 is_stmt 0      # exact_rhs.c:127:16
	shufpd	$1, %xmm6, %xmm6        # xmm6 = xmm6[1,0]
.Ltmp149:
	.loc	7 133 55 is_stmt 1      # exact_rhs.c:133:55
	movsd	dssp(%rip), %xmm0       # xmm0 = mem[0],zero
	.loc	7 135 33                # exact_rhs.c:135:33
	movapd	%xmm0, 32(%rsp)         # 16-byte Spill
	movsd	ue+160(%rip), %xmm2     # xmm2 = mem[0],zero
	unpcklpd	%xmm13, %xmm2   # xmm2 = xmm2[0],xmm13[0]
	.loc	7 135 18 is_stmt 0      # exact_rhs.c:135:18
	movlpd	ue+120(%rip), %xmm9     # xmm9 = mem[0],xmm9[1]
	.loc	7 133 59 is_stmt 1      # exact_rhs.c:133:59
	movlhps	%xmm0, %xmm0            # xmm0 = xmm0[0,0]
	movapd	%xmm11, %xmm13
	movapd	%xmm8, %xmm11
	movaps	%xmm0, %xmm8
	.loc	7 134 31                # exact_rhs.c:134:31
	movl	$ue+232, %edx
	movq	%r13, %rdi
	movl	$2, %ebp
.Ltmp150:
	.loc	7 124 30                # exact_rhs.c:124:30
	movapd	.LCPI2_6(%rip), %xmm10  # xmm10 = [4.000000e+00,4.000000e+00]
	.loc	7 127 33                # exact_rhs.c:127:33
	movapd	.LCPI2_7(%rip), %xmm0   # xmm0 = [6.000000e+00,6.000000e+00]
	movapd	%xmm12, %xmm14
	movapd	%xmm0, %xmm12
	movapd	%xmm1, %xmm0
.Ltmp151:
	.p2align	4, 0x90
.LBB2_22:                               # %for.cond557.preheader
                                        #   Parent Loop BB2_12 Depth=1
                                        #     Parent Loop BB2_14 Depth=2
                                        # =>    This Inner Loop Header: Depth=3
	.loc	7 134 25                # exact_rhs.c:134:25
	movsd	-192(%rdx), %xmm1       # xmm1 = mem[0],zero
	unpcklpd	%xmm6, %xmm1    # xmm1 = xmm1[0],xmm6[0]
	.loc	7 134 31 is_stmt 0      # exact_rhs.c:134:31
	movapd	%xmm0, (%rsp)           # 16-byte Spill
	movapd	%xmm15, %xmm6
	.loc	7 133 33 is_stmt 1      # exact_rhs.c:133:33
	movupd	-32(%rdi), %xmm4
	.loc	7 134 30                # exact_rhs.c:134:30
	movsd	-152(%rdx), %xmm3       # xmm3 = mem[0],zero
	unpcklpd	%xmm0, %xmm3    # xmm3 = xmm3[0],xmm0[0]
	mulpd	%xmm10, %xmm3
	.loc	7 134 25 is_stmt 0      # exact_rhs.c:134:25
	subpd	%xmm3, %xmm1
	.loc	7 135 17 is_stmt 1      # exact_rhs.c:135:17
	movapd	%xmm9, %xmm0
	mulpd	%xmm12, %xmm0
	.loc	7 134 42                # exact_rhs.c:134:42
	addpd	%xmm1, %xmm0
	.loc	7 135 32                # exact_rhs.c:135:32
	movapd	%xmm2, %xmm1
	mulpd	%xmm10, %xmm1
	.loc	7 135 27 is_stmt 0      # exact_rhs.c:135:27
	subpd	%xmm1, %xmm0
	.loc	7 135 46                # exact_rhs.c:135:46
	movupd	-32(%rdx), %xmm3
	.loc	7 135 44                # exact_rhs.c:135:44
	addpd	%xmm3, %xmm0
	.loc	7 133 59 is_stmt 1      # exact_rhs.c:133:59
	mulpd	%xmm8, %xmm0
	.loc	7 133 53 is_stmt 0      # exact_rhs.c:133:53
	subpd	%xmm0, %xmm4
	.loc	7 133 31                # exact_rhs.c:133:31
	movupd	%xmm4, -32(%rdi)
	.loc	7 133 33                # exact_rhs.c:133:33
	movupd	-16(%rdi), %xmm0
	.loc	7 134 30 is_stmt 1      # exact_rhs.c:134:30
	movapd	%xmm11, %xmm1
	mulpd	%xmm10, %xmm1
	.loc	7 134 25 is_stmt 0      # exact_rhs.c:134:25
	subpd	%xmm1, %xmm5
	.loc	7 135 17 is_stmt 1      # exact_rhs.c:135:17
	movapd	%xmm13, %xmm1
	mulpd	%xmm12, %xmm1
	.loc	7 134 42                # exact_rhs.c:134:42
	addpd	%xmm5, %xmm1
	.loc	7 135 32                # exact_rhs.c:135:32
	movapd	%xmm14, %xmm4
	mulpd	%xmm10, %xmm4
	.loc	7 135 27 is_stmt 0      # exact_rhs.c:135:27
	subpd	%xmm4, %xmm1
	.loc	7 135 46                # exact_rhs.c:135:46
	movupd	-16(%rdx), %xmm4
	.loc	7 135 44                # exact_rhs.c:135:44
	addpd	%xmm4, %xmm1
	.loc	7 133 59 is_stmt 1      # exact_rhs.c:133:59
	mulpd	%xmm8, %xmm1
	.loc	7 133 53 is_stmt 0      # exact_rhs.c:133:53
	subpd	%xmm1, %xmm0
	.loc	7 133 31                # exact_rhs.c:133:31
	movupd	%xmm0, -16(%rdi)
	.loc	7 134 30 is_stmt 1      # exact_rhs.c:134:30
	movapd	%xmm6, %xmm0
	movsd	.LCPI2_3(%rip), %xmm1   # xmm1 = mem[0],zero
	movapd	%xmm1, %xmm5
	mulsd	%xmm5, %xmm0
	.loc	7 134 25 is_stmt 0      # exact_rhs.c:134:25
	subsd	%xmm0, %xmm7
	.loc	7 135 18 is_stmt 1      # exact_rhs.c:135:18
	movsd	-80(%rdx), %xmm15       # xmm15 = mem[0],zero
	.loc	7 135 17 is_stmt 0      # exact_rhs.c:135:17
	movapd	%xmm15, %xmm0
	mulsd	.LCPI2_4(%rip), %xmm0
	.loc	7 134 42 is_stmt 1      # exact_rhs.c:134:42
	addsd	%xmm7, %xmm0
	movsd	-40(%rdx), %xmm1        # xmm1 = mem[0],zero
	.loc	7 135 32                # exact_rhs.c:135:32
	mulsd	%xmm5, %xmm1
	.loc	7 135 27 is_stmt 0      # exact_rhs.c:135:27
	subsd	%xmm1, %xmm0
	.loc	7 133 33 is_stmt 1      # exact_rhs.c:133:33
	movsd	(%rdi), %xmm1           # xmm1 = mem[0],zero
	.loc	7 135 44                # exact_rhs.c:135:44
	addsd	(%rdx), %xmm0
	.loc	7 133 59                # exact_rhs.c:133:59
	mulsd	32(%rsp), %xmm0         # 16-byte Folded Reload
	.loc	7 133 53 is_stmt 0      # exact_rhs.c:133:53
	subsd	%xmm0, %xmm1
	.loc	7 133 31                # exact_rhs.c:133:31
	movsd	%xmm1, (%rdi)
.Ltmp152:
	#DEBUG_VALUE: exact_rhs:m <- 0
	.loc	7 131 7 is_stmt 1 discriminator 1 # exact_rhs.c:131:7
	shufpd	$1, %xmm9, %xmm9        # xmm9 = xmm9[1,0]
.Ltmp153:
	.loc	7 134 31                # exact_rhs.c:134:31
	movapd	%xmm9, %xmm0
	.loc	7 135 18                # exact_rhs.c:135:18
	movapd	%xmm2, %xmm9
	.loc	7 134 14                # exact_rhs.c:134:14
	movapd	%xmm11, %xmm5
	.loc	7 134 31 is_stmt 0      # exact_rhs.c:134:31
	movapd	%xmm13, %xmm11
	.loc	7 135 18 is_stmt 1      # exact_rhs.c:135:18
	movapd	%xmm14, %xmm13
	.loc	7 134 14                # exact_rhs.c:134:14
	movapd	(%rsp), %xmm1           # 16-byte Reload
.Ltmp154:
	.loc	7 131 21 discriminator 1 # exact_rhs.c:131:21
	incq	%rbp
	addq	$40, %rdi
	addq	$40, %rdx
	cmpq	%rsi, %rbp
.Ltmp155:
	.loc	7 134 14                # exact_rhs.c:134:14
	movapd	%xmm6, %xmm7
	movapd	%xmm1, %xmm6
	.loc	7 135 33                # exact_rhs.c:135:33
	movapd	%xmm3, %xmm2
	movapd	%xmm4, %xmm14
.Ltmp156:
	.loc	7 131 7 discriminator 1 # exact_rhs.c:131:7
	jl	.LBB2_22
.Ltmp157:
# BB#23:                                # %for.cond616.preheader.loopexit
                                        #   in Loop: Header=BB2_14 Depth=2
	.loc	7 140 13                # exact_rhs.c:140:13
	movl	grid_points(%rip), %edx
	movsd	.LCPI2_8(%rip), %xmm0   # xmm0 = mem[0],zero
.LBB2_24:                               # %for.body619
                                        #   in Loop: Header=BB2_14 Depth=2
	movapd	%xmm0, %xmm9
	.loc	7 141 53                # exact_rhs.c:141:53
	movsd	dssp(%rip), %xmm0       # xmm0 = mem[0],zero
	.loc	7 143 31                # exact_rhs.c:143:31
	movslq	%edx, %rdi
	.loc	7 143 35 is_stmt 0      # exact_rhs.c:143:35
	shlq	$3, %rdi
	.loc	7 141 31 is_stmt 1      # exact_rhs.c:141:31
	leaq	forcing(%rcx,%rax), %rax
	leaq	-120(%rdi,%rdi,4), %rsi
	movsd	(%rax,%rsi), %xmm1      # xmm1 = mem[0],zero
	.loc	7 142 12                # exact_rhs.c:142:12
	movsd	ue-200(%rdi,%rdi,4), %xmm2 # xmm2 = mem[0],zero
	.loc	7 142 29 is_stmt 0      # exact_rhs.c:142:29
	movsd	ue-160(%rdi,%rdi,4), %xmm3 # xmm3 = mem[0],zero
	.loc	7 142 28                # exact_rhs.c:142:28
	movapd	%xmm3, %xmm4
	movsd	.LCPI2_3(%rip), %xmm7   # xmm7 = mem[0],zero
	mulsd	%xmm7, %xmm4
	.loc	7 142 23                # exact_rhs.c:142:23
	subsd	%xmm4, %xmm2
	.loc	7 143 16 is_stmt 1      # exact_rhs.c:143:16
	movsd	ue-120(%rdi,%rdi,4), %xmm4 # xmm4 = mem[0],zero
	.loc	7 143 15 is_stmt 0      # exact_rhs.c:143:15
	movapd	%xmm4, %xmm5
	movsd	.LCPI2_4(%rip), %xmm8   # xmm8 = mem[0],zero
	mulsd	%xmm8, %xmm5
	.loc	7 142 40 is_stmt 1      # exact_rhs.c:142:40
	addsd	%xmm2, %xmm5
	.loc	7 143 31                # exact_rhs.c:143:31
	leaq	-80(%rdi,%rdi,4), %rcx
	movsd	ue-80(%rdi,%rdi,4), %xmm2 # xmm2 = mem[0],zero
	.loc	7 143 30 is_stmt 0      # exact_rhs.c:143:30
	movapd	%xmm2, %xmm6
	mulsd	%xmm7, %xmm6
	.loc	7 143 25                # exact_rhs.c:143:25
	subsd	%xmm6, %xmm5
	.loc	7 141 58 is_stmt 1      # exact_rhs.c:141:58
	mulsd	%xmm0, %xmm5
	.loc	7 141 51 is_stmt 0      # exact_rhs.c:141:51
	subsd	%xmm5, %xmm1
	.loc	7 141 29                # exact_rhs.c:141:29
	movsd	%xmm1, (%rax,%rsi)
	.loc	7 145 31 is_stmt 1      # exact_rhs.c:145:31
	movsd	(%rax,%rcx), %xmm1      # xmm1 = mem[0],zero
	.loc	7 146 28                # exact_rhs.c:146:28
	mulsd	%xmm7, %xmm4
	.loc	7 146 23 is_stmt 0      # exact_rhs.c:146:23
	subsd	%xmm4, %xmm3
	.loc	7 146 45                # exact_rhs.c:146:45
	mulsd	%xmm9, %xmm2
	.loc	7 146 40                # exact_rhs.c:146:40
	addsd	%xmm3, %xmm2
	.loc	7 145 58 is_stmt 1      # exact_rhs.c:145:58
	mulsd	%xmm0, %xmm2
	.loc	7 145 51 is_stmt 0      # exact_rhs.c:145:51
	subsd	%xmm2, %xmm1
	.loc	7 145 29                # exact_rhs.c:145:29
	movsd	%xmm1, (%rax,%rcx)
	.loc	7 141 31 is_stmt 1      # exact_rhs.c:141:31
	movsd	8(%rax,%rsi), %xmm1     # xmm1 = mem[0],zero
	.loc	7 142 12                # exact_rhs.c:142:12
	movsd	ue-192(%rdi,%rdi,4), %xmm2 # xmm2 = mem[0],zero
	.loc	7 142 29 is_stmt 0      # exact_rhs.c:142:29
	movsd	ue-152(%rdi,%rdi,4), %xmm3 # xmm3 = mem[0],zero
	.loc	7 142 28                # exact_rhs.c:142:28
	movapd	%xmm3, %xmm4
	mulsd	%xmm7, %xmm4
	.loc	7 142 23                # exact_rhs.c:142:23
	subsd	%xmm4, %xmm2
	.loc	7 143 16 is_stmt 1      # exact_rhs.c:143:16
	movsd	ue-112(%rdi,%rdi,4), %xmm4 # xmm4 = mem[0],zero
	.loc	7 143 15 is_stmt 0      # exact_rhs.c:143:15
	movapd	%xmm4, %xmm5
	mulsd	%xmm8, %xmm5
	.loc	7 142 40 is_stmt 1      # exact_rhs.c:142:40
	addsd	%xmm2, %xmm5
	.loc	7 143 31                # exact_rhs.c:143:31
	movsd	ue-72(%rdi,%rdi,4), %xmm2 # xmm2 = mem[0],zero
	.loc	7 143 30 is_stmt 0      # exact_rhs.c:143:30
	movapd	%xmm2, %xmm6
	mulsd	%xmm7, %xmm6
	.loc	7 143 25                # exact_rhs.c:143:25
	subsd	%xmm6, %xmm5
	.loc	7 141 58 is_stmt 1      # exact_rhs.c:141:58
	mulsd	%xmm0, %xmm5
	.loc	7 141 51 is_stmt 0      # exact_rhs.c:141:51
	subsd	%xmm5, %xmm1
	.loc	7 141 29                # exact_rhs.c:141:29
	movsd	%xmm1, 8(%rax,%rsi)
	.loc	7 145 31 is_stmt 1      # exact_rhs.c:145:31
	movsd	8(%rax,%rcx), %xmm1     # xmm1 = mem[0],zero
	.loc	7 146 28                # exact_rhs.c:146:28
	mulsd	%xmm7, %xmm4
	.loc	7 146 23 is_stmt 0      # exact_rhs.c:146:23
	subsd	%xmm4, %xmm3
	.loc	7 146 45                # exact_rhs.c:146:45
	mulsd	%xmm9, %xmm2
	.loc	7 146 40                # exact_rhs.c:146:40
	addsd	%xmm3, %xmm2
	.loc	7 145 58 is_stmt 1      # exact_rhs.c:145:58
	mulsd	%xmm0, %xmm2
	.loc	7 145 51 is_stmt 0      # exact_rhs.c:145:51
	subsd	%xmm2, %xmm1
	.loc	7 145 29                # exact_rhs.c:145:29
	movsd	%xmm1, 8(%rax,%rcx)
	.loc	7 141 31 is_stmt 1      # exact_rhs.c:141:31
	movsd	16(%rax,%rsi), %xmm1    # xmm1 = mem[0],zero
	.loc	7 142 12                # exact_rhs.c:142:12
	movsd	ue-184(%rdi,%rdi,4), %xmm2 # xmm2 = mem[0],zero
	.loc	7 142 29 is_stmt 0      # exact_rhs.c:142:29
	movsd	ue-144(%rdi,%rdi,4), %xmm3 # xmm3 = mem[0],zero
	.loc	7 142 28                # exact_rhs.c:142:28
	movapd	%xmm3, %xmm4
	mulsd	%xmm7, %xmm4
	.loc	7 142 23                # exact_rhs.c:142:23
	subsd	%xmm4, %xmm2
	.loc	7 143 16 is_stmt 1      # exact_rhs.c:143:16
	movsd	ue-104(%rdi,%rdi,4), %xmm4 # xmm4 = mem[0],zero
	.loc	7 143 15 is_stmt 0      # exact_rhs.c:143:15
	movapd	%xmm4, %xmm5
	mulsd	%xmm8, %xmm5
	.loc	7 142 40 is_stmt 1      # exact_rhs.c:142:40
	addsd	%xmm2, %xmm5
	.loc	7 143 31                # exact_rhs.c:143:31
	movsd	ue-64(%rdi,%rdi,4), %xmm2 # xmm2 = mem[0],zero
	.loc	7 143 30 is_stmt 0      # exact_rhs.c:143:30
	movapd	%xmm2, %xmm6
	mulsd	%xmm7, %xmm6
	.loc	7 143 25                # exact_rhs.c:143:25
	subsd	%xmm6, %xmm5
	.loc	7 141 58 is_stmt 1      # exact_rhs.c:141:58
	mulsd	%xmm0, %xmm5
	.loc	7 141 51 is_stmt 0      # exact_rhs.c:141:51
	subsd	%xmm5, %xmm1
	.loc	7 141 29                # exact_rhs.c:141:29
	movsd	%xmm1, 16(%rax,%rsi)
	.loc	7 145 31 is_stmt 1      # exact_rhs.c:145:31
	movsd	16(%rax,%rcx), %xmm1    # xmm1 = mem[0],zero
	.loc	7 146 28                # exact_rhs.c:146:28
	mulsd	%xmm7, %xmm4
	.loc	7 146 23 is_stmt 0      # exact_rhs.c:146:23
	subsd	%xmm4, %xmm3
	.loc	7 146 45                # exact_rhs.c:146:45
	mulsd	%xmm9, %xmm2
	.loc	7 146 40                # exact_rhs.c:146:40
	addsd	%xmm3, %xmm2
	.loc	7 145 58 is_stmt 1      # exact_rhs.c:145:58
	mulsd	%xmm0, %xmm2
	.loc	7 145 51 is_stmt 0      # exact_rhs.c:145:51
	subsd	%xmm2, %xmm1
	.loc	7 145 29                # exact_rhs.c:145:29
	movsd	%xmm1, 16(%rax,%rcx)
	.loc	7 141 31 is_stmt 1      # exact_rhs.c:141:31
	movsd	24(%rax,%rsi), %xmm1    # xmm1 = mem[0],zero
	.loc	7 142 12                # exact_rhs.c:142:12
	movsd	ue-176(%rdi,%rdi,4), %xmm2 # xmm2 = mem[0],zero
	.loc	7 142 29 is_stmt 0      # exact_rhs.c:142:29
	movsd	ue-136(%rdi,%rdi,4), %xmm3 # xmm3 = mem[0],zero
	.loc	7 142 28                # exact_rhs.c:142:28
	movapd	%xmm3, %xmm4
	mulsd	%xmm7, %xmm4
	.loc	7 142 23                # exact_rhs.c:142:23
	subsd	%xmm4, %xmm2
	.loc	7 143 16 is_stmt 1      # exact_rhs.c:143:16
	movsd	ue-96(%rdi,%rdi,4), %xmm4 # xmm4 = mem[0],zero
	.loc	7 143 15 is_stmt 0      # exact_rhs.c:143:15
	movapd	%xmm4, %xmm5
	mulsd	%xmm8, %xmm5
	.loc	7 142 40 is_stmt 1      # exact_rhs.c:142:40
	addsd	%xmm2, %xmm5
	.loc	7 143 31                # exact_rhs.c:143:31
	movsd	ue-56(%rdi,%rdi,4), %xmm2 # xmm2 = mem[0],zero
	.loc	7 143 30 is_stmt 0      # exact_rhs.c:143:30
	movapd	%xmm2, %xmm6
	mulsd	%xmm7, %xmm6
	.loc	7 143 25                # exact_rhs.c:143:25
	subsd	%xmm6, %xmm5
	.loc	7 141 58 is_stmt 1      # exact_rhs.c:141:58
	mulsd	%xmm0, %xmm5
	.loc	7 141 51 is_stmt 0      # exact_rhs.c:141:51
	subsd	%xmm5, %xmm1
	.loc	7 141 29                # exact_rhs.c:141:29
	movsd	%xmm1, 24(%rax,%rsi)
	.loc	7 145 31 is_stmt 1      # exact_rhs.c:145:31
	movsd	24(%rax,%rcx), %xmm1    # xmm1 = mem[0],zero
	.loc	7 146 28                # exact_rhs.c:146:28
	mulsd	%xmm7, %xmm4
	.loc	7 146 23 is_stmt 0      # exact_rhs.c:146:23
	subsd	%xmm4, %xmm3
	.loc	7 146 45                # exact_rhs.c:146:45
	mulsd	%xmm9, %xmm2
	.loc	7 146 40                # exact_rhs.c:146:40
	addsd	%xmm3, %xmm2
	.loc	7 145 58 is_stmt 1      # exact_rhs.c:145:58
	mulsd	%xmm0, %xmm2
	.loc	7 145 51 is_stmt 0      # exact_rhs.c:145:51
	subsd	%xmm2, %xmm1
	.loc	7 145 29                # exact_rhs.c:145:29
	movsd	%xmm1, 24(%rax,%rcx)
	.loc	7 141 31 is_stmt 1      # exact_rhs.c:141:31
	movsd	32(%rax,%rsi), %xmm1    # xmm1 = mem[0],zero
	.loc	7 142 12                # exact_rhs.c:142:12
	movsd	ue-168(%rdi,%rdi,4), %xmm2 # xmm2 = mem[0],zero
	.loc	7 142 29 is_stmt 0      # exact_rhs.c:142:29
	movsd	ue-128(%rdi,%rdi,4), %xmm3 # xmm3 = mem[0],zero
	.loc	7 142 28                # exact_rhs.c:142:28
	movapd	%xmm3, %xmm4
	mulsd	%xmm7, %xmm4
	.loc	7 142 23                # exact_rhs.c:142:23
	subsd	%xmm4, %xmm2
	.loc	7 143 16 is_stmt 1      # exact_rhs.c:143:16
	movsd	ue-88(%rdi,%rdi,4), %xmm4 # xmm4 = mem[0],zero
	.loc	7 143 15 is_stmt 0      # exact_rhs.c:143:15
	movapd	%xmm4, %xmm5
	mulsd	%xmm8, %xmm5
	.loc	7 142 40 is_stmt 1      # exact_rhs.c:142:40
	addsd	%xmm2, %xmm5
	.loc	7 143 31                # exact_rhs.c:143:31
	movsd	ue-48(%rdi,%rdi,4), %xmm2 # xmm2 = mem[0],zero
	.loc	7 143 30 is_stmt 0      # exact_rhs.c:143:30
	movapd	%xmm2, %xmm6
	mulsd	%xmm7, %xmm6
	.loc	7 143 25                # exact_rhs.c:143:25
	subsd	%xmm6, %xmm5
	.loc	7 141 58 is_stmt 1      # exact_rhs.c:141:58
	mulsd	%xmm0, %xmm5
	.loc	7 141 51 is_stmt 0      # exact_rhs.c:141:51
	subsd	%xmm5, %xmm1
	.loc	7 141 29                # exact_rhs.c:141:29
	movsd	%xmm1, 32(%rax,%rsi)
	.loc	7 145 31 is_stmt 1      # exact_rhs.c:145:31
	movsd	32(%rax,%rcx), %xmm1    # xmm1 = mem[0],zero
	.loc	7 146 28                # exact_rhs.c:146:28
	mulsd	%xmm7, %xmm4
	.loc	7 146 23 is_stmt 0      # exact_rhs.c:146:23
	subsd	%xmm4, %xmm3
	.loc	7 146 45                # exact_rhs.c:146:45
	mulsd	%xmm9, %xmm2
	.loc	7 146 40                # exact_rhs.c:146:40
	addsd	%xmm3, %xmm2
	.loc	7 145 58 is_stmt 1      # exact_rhs.c:145:58
	mulsd	%xmm0, %xmm2
	.loc	7 145 51 is_stmt 0      # exact_rhs.c:145:51
	subsd	%xmm2, %xmm1
	.loc	7 145 29                # exact_rhs.c:145:29
	movsd	%xmm1, 32(%rax,%rcx)
.Ltmp158:
	.loc	7 62 19 is_stmt 1 discriminator 1 # exact_rhs.c:62:19
	movslq	grid_points+4(%rip), %rax
	.loc	7 62 36 is_stmt 0 discriminator 1 # exact_rhs.c:62:36
	leaq	-2(%rax), %rcx
	.loc	7 62 5 discriminator 1  # exact_rhs.c:62:5
	addq	$2600, %r12             # imm = 0xA28
	addq	$2600, %r13             # imm = 0xA28
	.loc	7 62 19 discriminator 1 # exact_rhs.c:62:19
	cmpq	%rcx, %r15
	.loc	7 62 5 discriminator 1  # exact_rhs.c:62:5
	leaq	1(%r15), %r15
	movsd	16(%rsp), %xmm5         # 8-byte Reload
                                        # xmm5 = mem[0],zero
	jl	.LBB2_14
.Ltmp159:
# BB#25:                                # %for.inc707.loopexit
                                        #   in Loop: Header=BB2_12 Depth=1
	.loc	7 60 20 is_stmt 1 discriminator 1 # exact_rhs.c:60:20
	movl	grid_points+8(%rip), %r12d
	movq	80(%rsp), %rsi          # 8-byte Reload
	movq	192(%rsp), %rdi         # 8-byte Reload
.LBB2_26:                               # %for.inc707
                                        #   in Loop: Header=BB2_12 Depth=1
	.loc	7 60 34 is_stmt 0 discriminator 1 # exact_rhs.c:60:34
	leal	-2(%r12), %ecx
	.loc	7 60 17 discriminator 1 # exact_rhs.c:60:17
	movslq	%ecx, %rcx
	.loc	7 60 3 discriminator 1  # exact_rhs.c:60:3
	addq	$169000, %rsi           # imm = 0x29428
	addq	$169000, %rdi           # imm = 0x29428
	movq	96(%rsp), %rdx          # 8-byte Reload
	.loc	7 60 17 discriminator 1 # exact_rhs.c:60:17
	cmpq	%rcx, %rdx
	.loc	7 60 3 discriminator 1  # exact_rhs.c:60:3
	leaq	1(%rdx), %rdx
	movq	%rdx, 96(%rsp)          # 8-byte Spill
	jl	.LBB2_12
.Ltmp160:
.LBB2_27:                               # %for.cond710.preheader
	.loc	7 154 17 is_stmt 1 discriminator 1 # exact_rhs.c:154:17
	movl	%r12d, %eax
	addl	$-2, %eax
	jle	.LBB2_44
# BB#28:                                # %for.body714.lr.ph
.Ltmp161:
	.loc	7 156 22 discriminator 1 # exact_rhs.c:156:22
	movl	grid_points(%rip), %eax
	movl	$1, %ecx
	movq	%rcx, 80(%rsp)          # 8-byte Spill
	movl	$forcing+171672, %esi
	movl	$forcing+176872, %edi
	leaq	112(%rsp), %rbx
	.p2align	4, 0x90
.LBB2_29:                               # %for.body714
                                        # =>This Loop Header: Depth=1
                                        #     Child Loop BB2_31 Depth 2
                                        #       Child Loop BB2_33 Depth 3
                                        #       Child Loop BB2_36 Depth 3
                                        #       Child Loop BB2_39 Depth 3
	#DEBUG_VALUE: exact_rhs:i <- 1
	.loc	7 156 19 is_stmt 0 discriminator 1 # exact_rhs.c:156:19
	movl	%eax, %ecx
	addl	$-2, %ecx
	jle	.LBB2_43
.Ltmp162:
# BB#30:                                # %for.body721.lr.ph
                                        #   in Loop: Header=BB2_29 Depth=1
	.loc	7 155 12 is_stmt 1      # exact_rhs.c:155:12
	movq	80(%rsp), %rax          # 8-byte Reload
	cvtsi2sdl	%eax, %xmm5
	.loc	7 155 22 is_stmt 0      # exact_rhs.c:155:22
	mulsd	dnzm1(%rip), %xmm5
.Ltmp163:
	#DEBUG_VALUE: exact_rhs:zeta <- %XMM5
	.loc	7 159 24 is_stmt 1 discriminator 1 # exact_rhs.c:159:24
	movsd	%xmm5, 16(%rsp)         # 8-byte Spill
	movl	grid_points+4(%rip), %ecx
	movq	%rdi, 256(%rsp)         # 8-byte Spill
	movq	%rdi, %r13
	movq	%rsi, %r12
	movq	%rsi, 192(%rsp)         # 8-byte Spill
	movl	$1, %r15d
.Ltmp164:
	.p2align	4, 0x90
.LBB2_31:                               # %for.body721
                                        #   Parent Loop BB2_29 Depth=1
                                        # =>  This Loop Header: Depth=2
                                        #       Child Loop BB2_33 Depth 3
                                        #       Child Loop BB2_36 Depth 3
                                        #       Child Loop BB2_39 Depth 3
	#DEBUG_VALUE: exact_rhs:j <- 0
	.loc	7 159 21 is_stmt 0 discriminator 1 # exact_rhs.c:159:21
	testl	%ecx, %ecx
	jle	.LBB2_34
.Ltmp165:
# BB#32:                                #   in Loop: Header=BB2_31 Depth=2
	.loc	7 157 12 is_stmt 1      # exact_rhs.c:157:12
	cvtsi2sdl	%r15d, %xmm0
	.loc	7 157 22 is_stmt 0      # exact_rhs.c:157:22
	mulsd	dnxm1(%rip), %xmm0
.Ltmp166:
	#DEBUG_VALUE: exact_rhs:xi <- %XMM0
	movsd	%xmm0, (%rsp)           # 8-byte Spill
.Ltmp167:
	#DEBUG_VALUE: exact_rhs:xi <- [%RSP+0]
	xorl	%ebp, %ebp
	xorl	%r14d, %r14d
.Ltmp168:
	.p2align	4, 0x90
.LBB2_33:                               # %for.body728
                                        #   Parent Loop BB2_29 Depth=1
                                        #     Parent Loop BB2_31 Depth=2
                                        # =>    This Inner Loop Header: Depth=3
	.loc	7 160 15 is_stmt 1      # exact_rhs.c:160:15
	xorps	%xmm1, %xmm1
	cvtsi2sdl	%r14d, %xmm1
	.loc	7 160 25 is_stmt 0      # exact_rhs.c:160:25
	mulsd	dnym1(%rip), %xmm1
.Ltmp169:
	#DEBUG_VALUE: exact_rhs:eta <- %XMM1
	.loc	7 162 9 is_stmt 1       # exact_rhs.c:162:9
	movsd	(%rsp), %xmm0           # 8-byte Reload
                                        # xmm0 = mem[0],zero
	movapd	%xmm5, %xmm2
	movq	%rbx, %rdi
	callq	exact_solution
	#DEBUG_VALUE: exact_rhs:m <- 0
	.loc	7 166 19                # exact_rhs.c:166:19
	movsd	.LCPI2_0(%rip), %xmm0   # xmm0 = mem[0],zero
	movapd	%xmm0, %xmm2
	movsd	16(%rsp), %xmm5         # 8-byte Reload
                                        # xmm5 = mem[0],zero
.Ltmp170:
	.loc	7 164 20                # exact_rhs.c:164:20
	movq	144(%rsp), %rax
	movq	%rax, ue+32(%rbp)
	movaps	112(%rsp), %xmm0
	movaps	128(%rsp), %xmm1
.Ltmp171:
	movups	%xmm1, ue+16(%rbp)
	movups	%xmm0, ue(%rbp)
.Ltmp172:
	.loc	7 166 19                # exact_rhs.c:166:19
	movapd	%xmm2, %xmm0
	divsd	112(%rsp), %xmm0
.Ltmp173:
	#DEBUG_VALUE: exact_rhs:dtpp <- %XMM0
	#DEBUG_VALUE: exact_rhs:m <- 1
	.loc	7 169 30                # exact_rhs.c:169:30
	movupd	120(%rsp), %xmm1
	.loc	7 169 28 is_stmt 0      # exact_rhs.c:169:28
	movlhps	%xmm0, %xmm0            # xmm0 = xmm0[0,0]
.Ltmp174:
	mulpd	%xmm0, %xmm1
	.loc	7 169 21                # exact_rhs.c:169:21
	movupd	%xmm1, buf+8(%rbp)
	.loc	7 169 30                # exact_rhs.c:169:30
	movupd	136(%rsp), %xmm2
	.loc	7 169 28                # exact_rhs.c:169:28
	mulpd	%xmm0, %xmm2
	.loc	7 169 21                # exact_rhs.c:169:21
	movupd	%xmm2, buf+24(%rbp)
.Ltmp175:
	.loc	7 173 40 is_stmt 1      # exact_rhs.c:173:40
	movapd	%xmm1, %xmm0
	movsd	ue+8(%rbp), %xmm3       # xmm3 = mem[0],zero
	.loc	7 174 30                # exact_rhs.c:174:30
	mulsd	%xmm1, %xmm3
	.loc	7 172 31                # exact_rhs.c:172:31
	shufpd	$1, %xmm1, %xmm1        # xmm1 = xmm1[1,0]
	movsd	ue+16(%rbp), %xmm4      # xmm4 = mem[0],zero
	.loc	7 174 51                # exact_rhs.c:174:51
	mulsd	%xmm1, %xmm4
	.loc	7 172 31                # exact_rhs.c:172:31
	mulsd	%xmm1, %xmm1
	.loc	7 172 19 is_stmt 0      # exact_rhs.c:172:19
	movsd	%xmm1, cuf(,%r14,8)
	.loc	7 173 40 is_stmt 1      # exact_rhs.c:173:40
	mulsd	%xmm0, %xmm0
	.loc	7 173 28 is_stmt 0      # exact_rhs.c:173:28
	addsd	%xmm1, %xmm0
	movsd	ue+24(%rbp), %xmm1      # xmm1 = mem[0],zero
	.loc	7 175 30 is_stmt 1      # exact_rhs.c:175:30
	mulsd	%xmm2, %xmm1
	.loc	7 173 64                # exact_rhs.c:173:64
	mulsd	%xmm2, %xmm2
	.loc	7 173 52 is_stmt 0      # exact_rhs.c:173:52
	addsd	%xmm0, %xmm2
	movsd	.LCPI2_1(%rip), %xmm0   # xmm0 = mem[0],zero
	.loc	7 173 19                # exact_rhs.c:173:19
	movsd	%xmm2, buf(%rbp)
	.loc	7 174 40 is_stmt 1      # exact_rhs.c:174:40
	addsd	%xmm3, %xmm4
	.loc	7 174 61 is_stmt 0      # exact_rhs.c:174:61
	addsd	%xmm4, %xmm1
	.loc	7 174 19                # exact_rhs.c:174:19
	mulsd	%xmm0, %xmm1
	.loc	7 174 14                # exact_rhs.c:174:14
	movsd	%xmm1, q(,%r14,8)
.Ltmp176:
	.loc	7 159 7 is_stmt 1 discriminator 1 # exact_rhs.c:159:7
	incq	%r14
	.loc	7 159 21 is_stmt 0 discriminator 1 # exact_rhs.c:159:21
	movslq	grid_points+4(%rip), %rcx
	addq	$40, %rbp
	cmpq	%rcx, %r14
	jl	.LBB2_33
.Ltmp177:
.LBB2_34:                               # %for.cond820.preheader
                                        #   in Loop: Header=BB2_31 Depth=2
	.loc	7 178 21 is_stmt 1 discriminator 1 # exact_rhs.c:178:21
	addl	$-2, %ecx
	movsd	.LCPI2_2(%rip), %xmm14  # xmm14 = mem[0],zero
	jle	.LBB2_37
# BB#35:                                # %for.body824.lr.ph
                                        #   in Loop: Header=BB2_31 Depth=2
.Ltmp178:
	.loc	7 183 11                # exact_rhs.c:183:11
	movsd	ty2(%rip), %xmm13       # xmm13 = mem[0],zero
	.loc	7 192 37                # exact_rhs.c:192:37
	movsd	c2(%rip), %xmm15        # xmm15 = mem[0],zero
	.loc	7 203 26                # exact_rhs.c:203:26
	movsd	c1(%rip), %xmm0         # xmm0 = mem[0],zero
	movsd	%xmm0, 32(%rsp)         # 8-byte Spill
	movsd	yycon3(%rip), %xmm0     # xmm0 = mem[0],zero
	.loc	7 205 14                # exact_rhs.c:205:14
	mulsd	.LCPI2_1(%rip), %xmm0
	movsd	%xmm0, (%rsp)           # 8-byte Spill
	.loc	7 207 11                # exact_rhs.c:207:11
	movsd	yycon4(%rip), %xmm0     # xmm0 = mem[0],zero
	.loc	7 208 11                # exact_rhs.c:208:11
	movsd	%xmm0, 48(%rsp)         # 8-byte Spill
	movsd	yycon5(%rip), %xmm0     # xmm0 = mem[0],zero
	.loc	7 209 11                # exact_rhs.c:209:11
	movsd	%xmm0, 24(%rsp)         # 8-byte Spill
	movsd	dy5ty1(%rip), %xmm0     # xmm0 = mem[0],zero
.Ltmp179:
	.loc	7 178 7 discriminator 1 # exact_rhs.c:178:7
	movsd	%xmm0, 176(%rsp)        # 8-byte Spill
	movslq	%ecx, %rax
.Ltmp180:
	.loc	7 193 41                # exact_rhs.c:193:41
	movsd	ue+32(%rip), %xmm7      # xmm7 = mem[0],zero
	.loc	7 194 35                # exact_rhs.c:194:35
	movsd	buf+56(%rip), %xmm4     # xmm4 = mem[0],zero
	.loc	7 183 14                # exact_rhs.c:183:14
	movsd	yycon2(%rip), %xmm0     # xmm0 = mem[0],zero
	movapd	%xmm13, %xmm2
	unpcklpd	%xmm0, %xmm2    # xmm2 = xmm2[0],xmm0[0]
	movapd	%xmm2, 160(%rsp)        # 16-byte Spill
	.loc	7 184 17                # exact_rhs.c:184:17
	movsd	dy1ty1(%rip), %xmm2     # xmm2 = mem[0],zero
	movhpd	dy2ty1(%rip), %xmm2     # xmm2 = xmm2[0],mem[0]
	movapd	%xmm2, 240(%rsp)        # 16-byte Spill
	.loc	7 191 56                # exact_rhs.c:191:56
	movapd	%xmm13, %xmm2
	movlhps	%xmm2, %xmm2            # xmm2 = xmm2[0,0]
	movaps	%xmm2, 224(%rsp)        # 16-byte Spill
	.loc	7 194 17                # exact_rhs.c:194:17
	movsd	yycon1(%rip), %xmm1     # xmm1 = mem[0],zero
	unpcklpd	%xmm0, %xmm1    # xmm1 = xmm1[0],xmm0[0]
	movapd	%xmm1, 208(%rsp)        # 16-byte Spill
	.loc	7 195 17                # exact_rhs.c:195:17
	movsd	dy3ty1(%rip), %xmm0     # xmm0 = mem[0],zero
	movhpd	dy4ty1(%rip), %xmm0     # xmm0 = xmm0[0],mem[0]
	movapd	%xmm0, 96(%rsp)         # 16-byte Spill
	.loc	7 194 35                # exact_rhs.c:194:35
	movl	$0, %ecx
	movq	%r12, %rdx
	xorl	%esi, %esi
	.p2align	4, 0x90
.LBB2_36:                               # %for.body824
                                        #   Parent Loop BB2_29 Depth=1
                                        #     Parent Loop BB2_31 Depth=2
                                        # =>    This Inner Loop Header: Depth=3
	.loc	7 186 31                # exact_rhs.c:186:31
	movsd	-24(%rdx), %xmm3        # xmm3 = mem[0],zero
	.loc	7 184 19                # exact_rhs.c:184:19
	movupd	ue+80(%rcx), %xmm2
	.loc	7 187 23                # exact_rhs.c:187:23
	movapd	%xmm2, %xmm5
	shufpd	$1, %xmm5, %xmm5        # xmm5 = xmm5[1,0]
	.loc	7 187 24 is_stmt 0      # exact_rhs.c:187:24
	movupd	buf+96(%rcx), %xmm6
	.loc	7 187 23                # exact_rhs.c:187:23
	mulsd	%xmm6, %xmm5
	.loc	7 184 43 is_stmt 1      # exact_rhs.c:184:43
	movupd	ue(%rcx), %xmm0
	.loc	7 184 34 is_stmt 0      # exact_rhs.c:184:34
	movupd	ue+40(%rcx), %xmm1
	.loc	7 184 33                # exact_rhs.c:184:33
	addpd	%xmm1, %xmm1
	.loc	7 184 29                # exact_rhs.c:184:29
	subpd	%xmm1, %xmm2
	.loc	7 184 42                # exact_rhs.c:184:42
	addpd	%xmm0, %xmm2
	.loc	7 187 46 is_stmt 1      # exact_rhs.c:187:46
	shufpd	$1, %xmm0, %xmm0        # xmm0 = xmm0[1,0]
	.loc	7 187 47 is_stmt 0      # exact_rhs.c:187:47
	movupd	buf+16(%rcx), %xmm8
	.loc	7 187 46                # exact_rhs.c:187:46
	mulsd	%xmm8, %xmm0
	.loc	7 187 35                # exact_rhs.c:187:35
	subsd	%xmm0, %xmm5
	.loc	7 186 56 is_stmt 1      # exact_rhs.c:186:56
	mulsd	%xmm13, %xmm5
	.loc	7 186 51 is_stmt 0      # exact_rhs.c:186:51
	subsd	%xmm5, %xmm3
	movsd	buf+48(%rcx), %xmm0     # xmm0 = mem[0],zero
	.loc	7 188 34 is_stmt 1      # exact_rhs.c:188:34
	mulsd	%xmm14, %xmm0
	.loc	7 188 30 is_stmt 0      # exact_rhs.c:188:30
	addsd	buf+88(%rcx), %xmm0
	.loc	7 183 17 is_stmt 1      # exact_rhs.c:183:17
	movupd	ue+96(%rcx), %xmm9
	.loc	7 183 27 is_stmt 0      # exact_rhs.c:183:27
	movapd	%xmm9, %xmm1
	movhpd	buf+8(%rcx), %xmm1      # xmm1 = xmm1[0],mem[0]
	.loc	7 183 28                # exact_rhs.c:183:28
	movupd	ue+16(%rcx), %xmm12
	.loc	7 183 27                # exact_rhs.c:183:27
	movapd	%xmm12, %xmm5
	unpcklpd	%xmm0, %xmm5    # xmm5 = xmm5[0],xmm0[0]
	movapd	%xmm1, %xmm0
	subpd	%xmm5, %xmm0
	addpd	%xmm1, %xmm5
	.loc	7 182 51 is_stmt 1      # exact_rhs.c:182:51
	movsd	-32(%rdx), %xmm1        # xmm1 = mem[0],zero
	.loc	7 183 27                # exact_rhs.c:183:27
	movsd	%xmm0, %xmm5            # xmm5 = xmm0[0],xmm5[1]
	.loc	7 183 14 is_stmt 0      # exact_rhs.c:183:14
	mulpd	160(%rsp), %xmm5        # 16-byte Folded Reload
	.loc	7 182 51 is_stmt 1      # exact_rhs.c:182:51
	unpcklpd	%xmm3, %xmm1    # xmm1 = xmm1[0],xmm3[0]
	movapd	%xmm1, %xmm0
	subpd	%xmm5, %xmm0
	addpd	%xmm5, %xmm1
	movsd	%xmm0, %xmm1            # xmm1 = xmm0[0],xmm1[1]
	.loc	7 184 17                # exact_rhs.c:184:17
	mulpd	240(%rsp), %xmm2        # 16-byte Folded Reload
	.loc	7 183 40                # exact_rhs.c:183:40
	addpd	%xmm1, %xmm2
	.loc	7 182 29                # exact_rhs.c:182:29
	movupd	%xmm2, -32(%rdx)
	.loc	7 192 24                # exact_rhs.c:192:24
	movapd	%xmm9, %xmm0
	mulsd	%xmm6, %xmm0
	.loc	7 192 41 is_stmt 0      # exact_rhs.c:192:41
	movsd	ue+112(%rcx), %xmm5     # xmm5 = mem[0],zero
	.loc	7 192 52                # exact_rhs.c:192:52
	movsd	q+16(,%rsi,8), %xmm11   # xmm11 = mem[0],zero
	.loc	7 192 51                # exact_rhs.c:192:51
	movapd	%xmm5, %xmm3
	subsd	%xmm11, %xmm3
	.loc	7 192 39                # exact_rhs.c:192:39
	mulsd	%xmm15, %xmm3
	.loc	7 192 36                # exact_rhs.c:192:36
	addsd	%xmm0, %xmm3
	.loc	7 193 24 is_stmt 1      # exact_rhs.c:193:24
	movapd	%xmm12, %xmm0
	mulsd	%xmm8, %xmm0
	.loc	7 193 52 is_stmt 0      # exact_rhs.c:193:52
	movsd	q(,%rsi,8), %xmm10      # xmm10 = mem[0],zero
	.loc	7 193 51                # exact_rhs.c:193:51
	subsd	%xmm10, %xmm7
	.loc	7 193 39                # exact_rhs.c:193:39
	mulsd	%xmm15, %xmm7
	.loc	7 193 36                # exact_rhs.c:193:36
	addsd	%xmm0, %xmm7
	.loc	7 198 23 is_stmt 1      # exact_rhs.c:198:23
	movapd	%xmm9, %xmm0
	shufpd	$1, %xmm0, %xmm0        # xmm0 = xmm0[1,0]
	mulsd	%xmm6, %xmm0
	.loc	7 192 60                # exact_rhs.c:192:60
	unpcklpd	%xmm0, %xmm3    # xmm3 = xmm3[0],xmm0[0]
	.loc	7 195 35                # exact_rhs.c:195:35
	movupd	ue+56(%rcx), %xmm0
	.loc	7 195 34 is_stmt 0      # exact_rhs.c:195:34
	addpd	%xmm0, %xmm0
	.loc	7 195 30                # exact_rhs.c:195:30
	subpd	%xmm0, %xmm9
	.loc	7 195 44                # exact_rhs.c:195:44
	addpd	%xmm12, %xmm9
	.loc	7 198 46 is_stmt 1      # exact_rhs.c:198:46
	shufpd	$1, %xmm12, %xmm12      # xmm12 = xmm12[1,0]
	mulsd	%xmm8, %xmm12
	.loc	7 192 60                # exact_rhs.c:192:60
	unpcklpd	%xmm12, %xmm7   # xmm7 = xmm7[0],xmm12[0]
	subpd	%xmm7, %xmm3
	.loc	7 191 31                # exact_rhs.c:191:31
	movupd	-16(%rdx), %xmm0
	.loc	7 191 56 is_stmt 0      # exact_rhs.c:191:56
	mulpd	224(%rsp), %xmm3        # 16-byte Folded Reload
	.loc	7 191 51                # exact_rhs.c:191:51
	subpd	%xmm3, %xmm0
	.loc	7 194 34 is_stmt 1      # exact_rhs.c:194:34
	movhpd	buf+64(%rcx), %xmm4     # xmm4 = xmm4[0],mem[0]
	addpd	%xmm4, %xmm4
	.loc	7 194 30 is_stmt 0      # exact_rhs.c:194:30
	movapd	%xmm6, %xmm1
	subpd	%xmm4, %xmm1
	.loc	7 194 44                # exact_rhs.c:194:44
	addpd	%xmm8, %xmm1
	.loc	7 194 17                # exact_rhs.c:194:17
	mulpd	208(%rsp), %xmm1        # 16-byte Folded Reload
	.loc	7 193 61 is_stmt 1      # exact_rhs.c:193:61
	addpd	%xmm0, %xmm1
	.loc	7 195 17                # exact_rhs.c:195:17
	mulpd	96(%rsp), %xmm9         # 16-byte Folded Reload
	.loc	7 194 57                # exact_rhs.c:194:57
	addpd	%xmm1, %xmm9
	.loc	7 191 29                # exact_rhs.c:191:29
	movupd	%xmm9, -16(%rdx)
	movsd	32(%rsp), %xmm1         # 8-byte Reload
                                        # xmm1 = mem[0],zero
	.loc	7 203 28                # exact_rhs.c:203:28
	movapd	%xmm1, %xmm0
	mulsd	%xmm5, %xmm0
	.loc	7 203 42 is_stmt 0      # exact_rhs.c:203:42
	mulsd	%xmm15, %xmm11
	.loc	7 203 39                # exact_rhs.c:203:39
	subsd	%xmm11, %xmm0
	.loc	7 204 29 is_stmt 1      # exact_rhs.c:204:29
	movsd	ue+32(%rcx), %xmm4      # xmm4 = mem[0],zero
	.loc	7 204 28 is_stmt 0      # exact_rhs.c:204:28
	mulsd	%xmm4, %xmm1
	.loc	7 204 42                # exact_rhs.c:204:42
	mulsd	%xmm15, %xmm10
	.loc	7 204 39                # exact_rhs.c:204:39
	subsd	%xmm10, %xmm1
	.loc	7 204 24                # exact_rhs.c:204:24
	mulsd	%xmm8, %xmm1
	.loc	7 202 31 is_stmt 1      # exact_rhs.c:202:31
	movsd	(%rdx), %xmm2           # xmm2 = mem[0],zero
	.loc	7 203 24                # exact_rhs.c:203:24
	mulsd	%xmm6, %xmm0
	.loc	7 203 50 is_stmt 0      # exact_rhs.c:203:50
	subsd	%xmm1, %xmm0
	.loc	7 202 56 is_stmt 1      # exact_rhs.c:202:56
	mulsd	%xmm13, %xmm0
	.loc	7 202 51 is_stmt 0      # exact_rhs.c:202:51
	subsd	%xmm0, %xmm2
	.loc	7 205 23 is_stmt 1      # exact_rhs.c:205:23
	movsd	buf+80(%rcx), %xmm0     # xmm0 = mem[0],zero
	.loc	7 205 39 is_stmt 0      # exact_rhs.c:205:39
	movsd	buf+40(%rcx), %xmm1     # xmm1 = mem[0],zero
	.loc	7 205 38                # exact_rhs.c:205:38
	addsd	%xmm1, %xmm1
	.loc	7 205 34                # exact_rhs.c:205:34
	subsd	%xmm1, %xmm0
	.loc	7 205 48                # exact_rhs.c:205:48
	addsd	buf(%rcx), %xmm0
	.loc	7 205 21                # exact_rhs.c:205:21
	mulsd	(%rsp), %xmm0           # 8-byte Folded Reload
	.loc	7 204 51 is_stmt 1      # exact_rhs.c:204:51
	addsd	%xmm2, %xmm0
	.loc	7 207 19                # exact_rhs.c:207:19
	movsd	cuf+16(,%rsi,8), %xmm1  # xmm1 = mem[0],zero
	.loc	7 207 32 is_stmt 0      # exact_rhs.c:207:32
	movsd	cuf+8(,%rsi,8), %xmm2   # xmm2 = mem[0],zero
	.loc	7 207 31                # exact_rhs.c:207:31
	addsd	%xmm2, %xmm2
	.loc	7 207 27                # exact_rhs.c:207:27
	subsd	%xmm2, %xmm1
	.loc	7 207 38                # exact_rhs.c:207:38
	addsd	cuf(,%rsi,8), %xmm1
	.loc	7 207 17                # exact_rhs.c:207:17
	mulsd	48(%rsp), %xmm1         # 8-byte Folded Reload
	.loc	7 206 27 is_stmt 1      # exact_rhs.c:206:27
	addsd	%xmm0, %xmm1
	.loc	7 208 19                # exact_rhs.c:208:19
	movsd	buf+112(%rcx), %xmm0    # xmm0 = mem[0],zero
	.loc	7 208 35 is_stmt 0      # exact_rhs.c:208:35
	movsd	buf+72(%rcx), %xmm2     # xmm2 = mem[0],zero
	.loc	7 208 34                # exact_rhs.c:208:34
	addsd	%xmm2, %xmm2
	.loc	7 208 30                # exact_rhs.c:208:30
	subsd	%xmm2, %xmm0
	.loc	7 208 44                # exact_rhs.c:208:44
	addsd	buf+32(%rcx), %xmm0
	.loc	7 208 17                # exact_rhs.c:208:17
	mulsd	24(%rsp), %xmm0         # 8-byte Folded Reload
	.loc	7 207 48 is_stmt 1      # exact_rhs.c:207:48
	addsd	%xmm1, %xmm0
	.loc	7 209 34                # exact_rhs.c:209:34
	movsd	ue+72(%rcx), %xmm7      # xmm7 = mem[0],zero
	.loc	7 209 33 is_stmt 0      # exact_rhs.c:209:33
	movapd	%xmm7, %xmm1
	addsd	%xmm1, %xmm1
	.loc	7 209 29                # exact_rhs.c:209:29
	subsd	%xmm1, %xmm5
	.loc	7 209 42                # exact_rhs.c:209:42
	addsd	%xmm4, %xmm5
	.loc	7 209 17                # exact_rhs.c:209:17
	mulsd	176(%rsp), %xmm5        # 8-byte Folded Reload
	.loc	7 208 57 is_stmt 1      # exact_rhs.c:208:57
	addsd	%xmm0, %xmm5
	.loc	7 202 29                # exact_rhs.c:202:29
	movsd	%xmm5, (%rdx)
.Ltmp181:
	.loc	7 178 21 discriminator 1 # exact_rhs.c:178:21
	incq	%rsi
	addq	$2600, %rdx             # imm = 0xA28
	addq	$40, %rcx
	cmpq	%rax, %rsi
.Ltmp182:
	.loc	7 194 35                # exact_rhs.c:194:35
	movapd	%xmm6, %xmm4
	jl	.LBB2_36
.Ltmp183:
.LBB2_37:                               # %for.cond1155.preheader
                                        #   in Loop: Header=BB2_31 Depth=2
	#DEBUG_VALUE: exact_rhs:j <- 1
	.loc	7 217 53                # exact_rhs.c:217:53
	movsd	dssp(%rip), %xmm9       # xmm9 = mem[0],zero
	.loc	7 217 31 is_stmt 0      # exact_rhs.c:217:31
	leaq	(%r15,%r15,4), %rcx
	imulq	$169000, 80(%rsp), %rax # 8-byte Folded Reload
                                        # imm = 0x29428
.Ltmp184:
	#DEBUG_VALUE: exact_rhs:j <- 2
	.loc	7 218 16 is_stmt 1      # exact_rhs.c:218:16
	movupd	ue+40(%rip), %xmm13
	.loc	7 218 31 is_stmt 0      # exact_rhs.c:218:31
	movapd	ue+80(%rip), %xmm1
	.loc	7 218 43                # exact_rhs.c:218:43
	movapd	%xmm1, (%rsp)           # 16-byte Spill
	movupd	ue+120(%rip), %xmm15
.Ltmp185:
	#DEBUG_VALUE: exact_rhs:j <- 1
	.loc	7 217 31 is_stmt 1      # exact_rhs.c:217:31
	movupd	forcing+2600(%rax,%rcx,8), %xmm11
	.loc	7 218 15                # exact_rhs.c:218:15
	movapd	%xmm13, %xmm4
	movapd	.LCPI2_5(%rip), %xmm6   # xmm6 = [5.000000e+00,5.000000e+00]
	mulpd	%xmm6, %xmm4
	.loc	7 218 30 is_stmt 0      # exact_rhs.c:218:30
	movapd	.LCPI2_6(%rip), %xmm10  # xmm10 = [4.000000e+00,4.000000e+00]
	mulpd	%xmm10, %xmm1
	.loc	7 218 25                # exact_rhs.c:218:25
	subpd	%xmm1, %xmm4
	.loc	7 218 42                # exact_rhs.c:218:42
	addpd	%xmm15, %xmm4
	.loc	7 218 16                # exact_rhs.c:218:16
	movsd	ue+72(%rip), %xmm3      # xmm3 = mem[0],zero
	.loc	7 218 15                # exact_rhs.c:218:15
	movapd	%xmm3, %xmm12
	movsd	.LCPI2_8(%rip), %xmm0   # xmm0 = mem[0],zero
	mulsd	%xmm0, %xmm12
	.loc	7 218 31                # exact_rhs.c:218:31
	movsd	ue+112(%rip), %xmm7     # xmm7 = mem[0],zero
	.loc	7 218 30                # exact_rhs.c:218:30
	movapd	%xmm7, %xmm1
	movsd	.LCPI2_3(%rip), %xmm8   # xmm8 = mem[0],zero
	mulsd	%xmm8, %xmm1
	.loc	7 218 25                # exact_rhs.c:218:25
	subsd	%xmm1, %xmm12
	.loc	7 218 43                # exact_rhs.c:218:43
	movsd	ue+152(%rip), %xmm5     # xmm5 = mem[0],zero
	.loc	7 218 42                # exact_rhs.c:218:42
	addsd	%xmm5, %xmm12
	.loc	7 217 58 is_stmt 1      # exact_rhs.c:217:58
	mulsd	%xmm9, %xmm12
	.loc	7 221 16                # exact_rhs.c:221:16
	movapd	%xmm3, %xmm2
	mulsd	%xmm8, %xmm2
	.loc	7 221 33 is_stmt 0      # exact_rhs.c:221:33
	movapd	%xmm7, %xmm0
	movsd	.LCPI2_4(%rip), %xmm1   # xmm1 = mem[0],zero
	mulsd	%xmm1, %xmm0
	.loc	7 221 16                # exact_rhs.c:221:16
	subsd	%xmm2, %xmm0
	.loc	7 222 16 is_stmt 1      # exact_rhs.c:222:16
	mulsd	%xmm8, %xmm5
	.loc	7 221 43                # exact_rhs.c:221:43
	subsd	%xmm5, %xmm0
	.loc	7 222 28                # exact_rhs.c:222:28
	addsd	ue+192(%rip), %xmm0
	.loc	7 220 58                # exact_rhs.c:220:58
	mulsd	%xmm9, %xmm0
	.loc	7 217 58                # exact_rhs.c:217:58
	movlhps	%xmm9, %xmm9            # xmm9 = xmm9[0,0]
	mulpd	%xmm9, %xmm4
	.loc	7 217 51 is_stmt 0      # exact_rhs.c:217:51
	subpd	%xmm4, %xmm11
	.loc	7 217 29                # exact_rhs.c:217:29
	movupd	%xmm11, forcing+2600(%rax,%rcx,8)
.Ltmp186:
	#DEBUG_VALUE: exact_rhs:j <- 2
	.loc	7 220 31 is_stmt 1      # exact_rhs.c:220:31
	movupd	forcing+5200(%rax,%rcx,8), %xmm4
	.loc	7 221 16                # exact_rhs.c:221:16
	movapd	%xmm13, %xmm2
	mulpd	%xmm10, %xmm2
	.loc	7 221 33 is_stmt 0      # exact_rhs.c:221:33
	movapd	(%rsp), %xmm5           # 16-byte Reload
	movapd	.LCPI2_7(%rip), %xmm1   # xmm1 = [6.000000e+00,6.000000e+00]
	mulpd	%xmm1, %xmm5
	.loc	7 221 16                # exact_rhs.c:221:16
	subpd	%xmm2, %xmm5
	.loc	7 222 16 is_stmt 1      # exact_rhs.c:222:16
	movapd	%xmm15, %xmm2
	mulpd	%xmm10, %xmm2
	.loc	7 221 43                # exact_rhs.c:221:43
	subpd	%xmm2, %xmm5
	.loc	7 222 34                # exact_rhs.c:222:34
	movapd	ue+160(%rip), %xmm2
	.loc	7 222 28 is_stmt 0      # exact_rhs.c:222:28
	addpd	%xmm2, %xmm5
	.loc	7 220 58 is_stmt 1      # exact_rhs.c:220:58
	mulpd	%xmm9, %xmm5
	.loc	7 220 51 is_stmt 0      # exact_rhs.c:220:51
	subpd	%xmm5, %xmm4
	.loc	7 220 29                # exact_rhs.c:220:29
	movupd	%xmm4, forcing+5200(%rax,%rcx,8)
.Ltmp187:
	#DEBUG_VALUE: exact_rhs:j <- 1
	.loc	7 218 16 is_stmt 1      # exact_rhs.c:218:16
	movupd	ue+56(%rip), %xmm4
	.loc	7 218 31 is_stmt 0      # exact_rhs.c:218:31
	movapd	ue+96(%rip), %xmm11
	.loc	7 218 43                # exact_rhs.c:218:43
	movupd	ue+136(%rip), %xmm14
.Ltmp188:
	#DEBUG_VALUE: exact_rhs:j <- 2
	.loc	7 218 15                # exact_rhs.c:218:15
	movapd	%xmm4, %xmm5
	mulpd	%xmm6, %xmm5
	.loc	7 218 30                # exact_rhs.c:218:30
	movapd	%xmm11, %xmm6
	mulpd	%xmm10, %xmm6
	.loc	7 218 25                # exact_rhs.c:218:25
	subpd	%xmm6, %xmm5
	.loc	7 217 31 is_stmt 1      # exact_rhs.c:217:31
	movupd	forcing+2616(%rax,%rcx,8), %xmm6
	.loc	7 218 42                # exact_rhs.c:218:42
	addpd	%xmm14, %xmm5
	.loc	7 217 58                # exact_rhs.c:217:58
	mulpd	%xmm9, %xmm5
	.loc	7 217 51 is_stmt 0      # exact_rhs.c:217:51
	subpd	%xmm5, %xmm6
	.loc	7 217 29                # exact_rhs.c:217:29
	movupd	%xmm6, forcing+2616(%rax,%rcx,8)
	.loc	7 221 16 is_stmt 1      # exact_rhs.c:221:16
	movapd	%xmm4, %xmm5
	mulpd	%xmm10, %xmm5
	.loc	7 221 33 is_stmt 0      # exact_rhs.c:221:33
	movapd	%xmm11, %xmm6
	mulpd	%xmm1, %xmm6
	.loc	7 221 16                # exact_rhs.c:221:16
	subpd	%xmm5, %xmm6
	.loc	7 222 16 is_stmt 1      # exact_rhs.c:222:16
	movapd	%xmm14, %xmm5
	mulpd	%xmm10, %xmm5
	.loc	7 221 43                # exact_rhs.c:221:43
	subpd	%xmm5, %xmm6
	.loc	7 222 34                # exact_rhs.c:222:34
	movapd	ue+176(%rip), %xmm5
.Ltmp189:
	#DEBUG_VALUE: exact_rhs:j <- 1
	.loc	7 222 28 is_stmt 0      # exact_rhs.c:222:28
	addpd	%xmm5, %xmm6
	.loc	7 220 58 is_stmt 1      # exact_rhs.c:220:58
	mulpd	%xmm9, %xmm6
	movsd	.LCPI2_8(%rip), %xmm9   # xmm9 = mem[0],zero
	.loc	7 220 31 is_stmt 0      # exact_rhs.c:220:31
	movupd	forcing+5216(%rax,%rcx,8), %xmm1
	.loc	7 220 51                # exact_rhs.c:220:51
	subpd	%xmm6, %xmm1
	.loc	7 220 29                # exact_rhs.c:220:29
	movupd	%xmm1, forcing+5216(%rax,%rcx,8)
	.loc	7 217 31 is_stmt 1      # exact_rhs.c:217:31
	movsd	forcing+2632(%rax,%rcx,8), %xmm1 # xmm1 = mem[0],zero
	.loc	7 217 51 is_stmt 0      # exact_rhs.c:217:51
	subsd	%xmm12, %xmm1
	.loc	7 217 29                # exact_rhs.c:217:29
	movsd	%xmm1, forcing+2632(%rax,%rcx,8)
.Ltmp190:
	#DEBUG_VALUE: exact_rhs:j <- 2
	.loc	7 220 31 is_stmt 1      # exact_rhs.c:220:31
	movsd	forcing+5232(%rax,%rcx,8), %xmm1 # xmm1 = mem[0],zero
	.loc	7 220 51 is_stmt 0      # exact_rhs.c:220:51
	subsd	%xmm0, %xmm1
	.loc	7 220 29                # exact_rhs.c:220:29
	movsd	%xmm1, forcing+5232(%rax,%rcx,8)
.Ltmp191:
	.loc	7 225 7 is_stmt 1 discriminator 1 # exact_rhs.c:225:7
	movslq	grid_points+4(%rip), %rcx
	.loc	7 225 38 is_stmt 0 discriminator 1 # exact_rhs.c:225:38
	movq	%rcx, %rdx
	addq	$-4, %rdx
.Ltmp192:
	#DEBUG_VALUE: exact_rhs:m <- 0
	.loc	7 225 21 discriminator 1 # exact_rhs.c:225:21
	cmpl	$3, %edx
	jl	.LBB2_41
# BB#38:                                # %for.cond1246.preheader.lr.ph
                                        #   in Loop: Header=BB2_31 Depth=2
.Ltmp193:
	.loc	7 227 55 is_stmt 1      # exact_rhs.c:227:55
	movsd	dssp(%rip), %xmm12      # xmm12 = mem[0],zero
	.loc	7 229 33                # exact_rhs.c:229:33
	movapd	%xmm12, 32(%rsp)        # 16-byte Spill
	movlpd	ue+160(%rip), %xmm2     # xmm2 = mem[0],xmm2[1]
	.loc	7 229 18 is_stmt 0      # exact_rhs.c:229:18
	movlpd	ue+120(%rip), %xmm15    # xmm15 = mem[0],xmm15[1]
.Ltmp194:
	.loc	7 225 7 is_stmt 1 discriminator 1 # exact_rhs.c:225:7
	shufpd	$1, %xmm13, %xmm13      # xmm13 = xmm13[1,0]
	movapd	(%rsp), %xmm0           # 16-byte Reload
	shufpd	$1, %xmm0, %xmm0        # xmm0 = xmm0[1,0]
.Ltmp195:
	.loc	7 227 59                # exact_rhs.c:227:59
	movlhps	%xmm12, %xmm12          # xmm12 = xmm12[0,0]
	.loc	7 228 31                # exact_rhs.c:228:31
	movl	$ue+232, %ecx
	movq	%r13, %rsi
	movl	$2, %edi
.Ltmp196:
	.loc	7 218 30                # exact_rhs.c:218:30
	movapd	.LCPI2_6(%rip), %xmm9   # xmm9 = [4.000000e+00,4.000000e+00]
	.loc	7 221 33                # exact_rhs.c:221:33
	movapd	.LCPI2_7(%rip), %xmm10  # xmm10 = [6.000000e+00,6.000000e+00]
.Ltmp197:
	.p2align	4, 0x90
.LBB2_39:                               # %for.cond1246.preheader
                                        #   Parent Loop BB2_29 Depth=1
                                        #     Parent Loop BB2_31 Depth=2
                                        # =>    This Inner Loop Header: Depth=3
	.loc	7 228 25                # exact_rhs.c:228:25
	movsd	-192(%rcx), %xmm1       # xmm1 = mem[0],zero
	unpcklpd	%xmm13, %xmm1   # xmm1 = xmm1[0],xmm13[0]
	.loc	7 228 31 is_stmt 0      # exact_rhs.c:228:31
	movapd	%xmm0, (%rsp)           # 16-byte Spill
	movapd	%xmm7, %xmm13
	.loc	7 227 33 is_stmt 1      # exact_rhs.c:227:33
	movupd	-32(%rsi), %xmm7
	.loc	7 228 30                # exact_rhs.c:228:30
	movsd	-152(%rcx), %xmm6       # xmm6 = mem[0],zero
	unpcklpd	%xmm0, %xmm6    # xmm6 = xmm6[0],xmm0[0]
	mulpd	%xmm9, %xmm6
	.loc	7 228 25 is_stmt 0      # exact_rhs.c:228:25
	subpd	%xmm6, %xmm1
	.loc	7 229 17 is_stmt 1      # exact_rhs.c:229:17
	movapd	%xmm15, %xmm0
	mulpd	%xmm10, %xmm0
	.loc	7 228 42                # exact_rhs.c:228:42
	addpd	%xmm1, %xmm0
	.loc	7 229 32                # exact_rhs.c:229:32
	movapd	%xmm2, %xmm1
	mulpd	%xmm9, %xmm1
	.loc	7 229 27 is_stmt 0      # exact_rhs.c:229:27
	subpd	%xmm1, %xmm0
	.loc	7 229 46                # exact_rhs.c:229:46
	movupd	-32(%rcx), %xmm6
	.loc	7 229 44                # exact_rhs.c:229:44
	addpd	%xmm6, %xmm0
	.loc	7 227 59 is_stmt 1      # exact_rhs.c:227:59
	mulpd	%xmm12, %xmm0
	.loc	7 227 53 is_stmt 0      # exact_rhs.c:227:53
	subpd	%xmm0, %xmm7
	.loc	7 227 31                # exact_rhs.c:227:31
	movupd	%xmm7, -32(%rsi)
	.loc	7 227 33                # exact_rhs.c:227:33
	movupd	-16(%rsi), %xmm0
	.loc	7 228 30 is_stmt 1      # exact_rhs.c:228:30
	movapd	%xmm11, %xmm1
	mulpd	%xmm9, %xmm1
	.loc	7 228 25 is_stmt 0      # exact_rhs.c:228:25
	subpd	%xmm1, %xmm4
	.loc	7 229 17 is_stmt 1      # exact_rhs.c:229:17
	movapd	%xmm14, %xmm7
	mulpd	%xmm10, %xmm7
	.loc	7 228 42                # exact_rhs.c:228:42
	addpd	%xmm4, %xmm7
	.loc	7 229 32                # exact_rhs.c:229:32
	movapd	%xmm5, %xmm1
	mulpd	%xmm9, %xmm1
	.loc	7 229 27 is_stmt 0      # exact_rhs.c:229:27
	subpd	%xmm1, %xmm7
	.loc	7 229 46                # exact_rhs.c:229:46
	movupd	-16(%rcx), %xmm1
	.loc	7 229 44                # exact_rhs.c:229:44
	addpd	%xmm1, %xmm7
	.loc	7 227 59 is_stmt 1      # exact_rhs.c:227:59
	mulpd	%xmm12, %xmm7
	.loc	7 227 53 is_stmt 0      # exact_rhs.c:227:53
	subpd	%xmm7, %xmm0
	.loc	7 227 31                # exact_rhs.c:227:31
	movupd	%xmm0, -16(%rsi)
	.loc	7 228 30 is_stmt 1      # exact_rhs.c:228:30
	movapd	%xmm13, %xmm0
	mulsd	%xmm8, %xmm0
	.loc	7 228 25 is_stmt 0      # exact_rhs.c:228:25
	subsd	%xmm0, %xmm3
	.loc	7 229 18 is_stmt 1      # exact_rhs.c:229:18
	movsd	-80(%rcx), %xmm7        # xmm7 = mem[0],zero
	.loc	7 229 17 is_stmt 0      # exact_rhs.c:229:17
	movapd	%xmm7, %xmm0
	mulsd	.LCPI2_4(%rip), %xmm0
	.loc	7 228 42 is_stmt 1      # exact_rhs.c:228:42
	addsd	%xmm3, %xmm0
	movsd	-40(%rcx), %xmm3        # xmm3 = mem[0],zero
	.loc	7 229 32                # exact_rhs.c:229:32
	mulsd	%xmm8, %xmm3
	.loc	7 229 27 is_stmt 0      # exact_rhs.c:229:27
	subsd	%xmm3, %xmm0
	.loc	7 227 33 is_stmt 1      # exact_rhs.c:227:33
	movsd	(%rsi), %xmm3           # xmm3 = mem[0],zero
	.loc	7 229 44                # exact_rhs.c:229:44
	addsd	(%rcx), %xmm0
	.loc	7 227 59                # exact_rhs.c:227:59
	mulsd	32(%rsp), %xmm0         # 16-byte Folded Reload
	.loc	7 227 53 is_stmt 0      # exact_rhs.c:227:53
	subsd	%xmm0, %xmm3
	.loc	7 227 31                # exact_rhs.c:227:31
	movsd	%xmm3, (%rsi)
.Ltmp198:
	#DEBUG_VALUE: exact_rhs:m <- 0
	.loc	7 225 7 is_stmt 1 discriminator 1 # exact_rhs.c:225:7
	shufpd	$1, %xmm15, %xmm15      # xmm15 = xmm15[1,0]
.Ltmp199:
	.loc	7 228 31                # exact_rhs.c:228:31
	movapd	%xmm15, %xmm0
	.loc	7 229 18                # exact_rhs.c:229:18
	movapd	%xmm2, %xmm15
	.loc	7 228 14                # exact_rhs.c:228:14
	movapd	%xmm11, %xmm4
	.loc	7 228 31 is_stmt 0      # exact_rhs.c:228:31
	movapd	%xmm14, %xmm11
	.loc	7 229 18 is_stmt 1      # exact_rhs.c:229:18
	movapd	%xmm5, %xmm14
	.loc	7 228 14                # exact_rhs.c:228:14
	movapd	(%rsp), %xmm2           # 16-byte Reload
.Ltmp200:
	.loc	7 225 21 discriminator 1 # exact_rhs.c:225:21
	incq	%rdi
	addq	$2600, %rsi             # imm = 0xA28
	addq	$40, %rcx
	cmpq	%rdx, %rdi
.Ltmp201:
	.loc	7 228 14                # exact_rhs.c:228:14
	movapd	%xmm13, %xmm3
	movapd	%xmm2, %xmm13
	.loc	7 229 33                # exact_rhs.c:229:33
	movapd	%xmm6, %xmm2
	movapd	%xmm1, %xmm5
.Ltmp202:
	.loc	7 225 7 discriminator 1 # exact_rhs.c:225:7
	jl	.LBB2_39
.Ltmp203:
# BB#40:                                # %for.cond1305.preheader.loopexit
                                        #   in Loop: Header=BB2_31 Depth=2
	.loc	7 234 13                # exact_rhs.c:234:13
	movl	grid_points+4(%rip), %ecx
	movsd	.LCPI2_8(%rip), %xmm0   # xmm0 = mem[0],zero
	movapd	%xmm0, %xmm9
.LBB2_41:                               # %for.body1308
                                        #   in Loop: Header=BB2_31 Depth=2
	.loc	7 237 31                # exact_rhs.c:237:31
	movslq	%ecx, %rdi
	.loc	7 234 27                # exact_rhs.c:234:27
	imulq	$2600, %rdi, %rdx       # imm = 0xA28
	.loc	7 235 53                # exact_rhs.c:235:53
	movsd	dssp(%rip), %xmm0       # xmm0 = mem[0],zero
	.loc	7 236 33                # exact_rhs.c:236:33
	leaq	(,%rdi,8), %rsi
	.loc	7 235 31                # exact_rhs.c:235:31
	leaq	forcing(%rdx,%rax), %rax
	leaq	(,%r15,8), %rdx
	leaq	(%rdx,%rdx,4), %rdx
	movsd	-7800(%rax,%rdx), %xmm1 # xmm1 = mem[0],zero
	.loc	7 236 12                # exact_rhs.c:236:12
	movsd	ue-200(%rsi,%rsi,4), %xmm2 # xmm2 = mem[0],zero
	.loc	7 236 29 is_stmt 0      # exact_rhs.c:236:29
	movsd	ue-160(%rsi,%rsi,4), %xmm3 # xmm3 = mem[0],zero
	.loc	7 236 28                # exact_rhs.c:236:28
	movapd	%xmm3, %xmm4
	mulsd	%xmm8, %xmm4
	.loc	7 236 23                # exact_rhs.c:236:23
	subsd	%xmm4, %xmm2
	.loc	7 237 16 is_stmt 1      # exact_rhs.c:237:16
	movsd	ue-120(%rsi,%rsi,4), %xmm4 # xmm4 = mem[0],zero
	.loc	7 237 15 is_stmt 0      # exact_rhs.c:237:15
	movapd	%xmm4, %xmm5
	movsd	.LCPI2_4(%rip), %xmm7   # xmm7 = mem[0],zero
	mulsd	%xmm7, %xmm5
	.loc	7 236 40 is_stmt 1      # exact_rhs.c:236:40
	addsd	%xmm2, %xmm5
	.loc	7 237 31                # exact_rhs.c:237:31
	leaq	-16(,%rdi,8), %rdi
	movsd	ue(%rdi,%rdi,4), %xmm2  # xmm2 = mem[0],zero
	.loc	7 237 30 is_stmt 0      # exact_rhs.c:237:30
	movapd	%xmm2, %xmm6
	mulsd	%xmm8, %xmm6
	.loc	7 237 25                # exact_rhs.c:237:25
	subsd	%xmm6, %xmm5
	.loc	7 235 58 is_stmt 1      # exact_rhs.c:235:58
	mulsd	%xmm0, %xmm5
	.loc	7 235 51 is_stmt 0      # exact_rhs.c:235:51
	subsd	%xmm5, %xmm1
	.loc	7 235 29                # exact_rhs.c:235:29
	movsd	%xmm1, -7800(%rax,%rdx)
	.loc	7 239 31 is_stmt 1      # exact_rhs.c:239:31
	movsd	-5200(%rax,%rdx), %xmm1 # xmm1 = mem[0],zero
	.loc	7 240 28                # exact_rhs.c:240:28
	mulsd	%xmm8, %xmm4
	.loc	7 240 23 is_stmt 0      # exact_rhs.c:240:23
	subsd	%xmm4, %xmm3
	.loc	7 240 45                # exact_rhs.c:240:45
	mulsd	%xmm9, %xmm2
	.loc	7 240 40                # exact_rhs.c:240:40
	addsd	%xmm3, %xmm2
	.loc	7 239 58 is_stmt 1      # exact_rhs.c:239:58
	mulsd	%xmm0, %xmm2
	.loc	7 239 51 is_stmt 0      # exact_rhs.c:239:51
	subsd	%xmm2, %xmm1
	.loc	7 239 29                # exact_rhs.c:239:29
	movsd	%xmm1, -5200(%rax,%rdx)
	.loc	7 235 31 is_stmt 1      # exact_rhs.c:235:31
	movsd	-7792(%rax,%rdx), %xmm1 # xmm1 = mem[0],zero
	.loc	7 236 12                # exact_rhs.c:236:12
	movsd	ue-192(%rsi,%rsi,4), %xmm2 # xmm2 = mem[0],zero
	.loc	7 236 29 is_stmt 0      # exact_rhs.c:236:29
	movsd	ue-152(%rsi,%rsi,4), %xmm3 # xmm3 = mem[0],zero
	.loc	7 236 28                # exact_rhs.c:236:28
	movapd	%xmm3, %xmm4
	mulsd	%xmm8, %xmm4
	.loc	7 236 23                # exact_rhs.c:236:23
	subsd	%xmm4, %xmm2
	.loc	7 237 16 is_stmt 1      # exact_rhs.c:237:16
	movsd	ue-112(%rsi,%rsi,4), %xmm4 # xmm4 = mem[0],zero
	.loc	7 237 15 is_stmt 0      # exact_rhs.c:237:15
	movapd	%xmm4, %xmm5
	mulsd	%xmm7, %xmm5
	.loc	7 236 40 is_stmt 1      # exact_rhs.c:236:40
	addsd	%xmm2, %xmm5
	.loc	7 237 31                # exact_rhs.c:237:31
	movsd	ue+8(%rdi,%rdi,4), %xmm2 # xmm2 = mem[0],zero
	.loc	7 237 30 is_stmt 0      # exact_rhs.c:237:30
	movapd	%xmm2, %xmm6
	mulsd	%xmm8, %xmm6
	.loc	7 237 25                # exact_rhs.c:237:25
	subsd	%xmm6, %xmm5
	.loc	7 235 58 is_stmt 1      # exact_rhs.c:235:58
	mulsd	%xmm0, %xmm5
	.loc	7 235 51 is_stmt 0      # exact_rhs.c:235:51
	subsd	%xmm5, %xmm1
	.loc	7 235 29                # exact_rhs.c:235:29
	movsd	%xmm1, -7792(%rax,%rdx)
	.loc	7 239 31 is_stmt 1      # exact_rhs.c:239:31
	movsd	-5192(%rax,%rdx), %xmm1 # xmm1 = mem[0],zero
	.loc	7 240 28                # exact_rhs.c:240:28
	mulsd	%xmm8, %xmm4
	.loc	7 240 23 is_stmt 0      # exact_rhs.c:240:23
	subsd	%xmm4, %xmm3
	.loc	7 240 45                # exact_rhs.c:240:45
	mulsd	%xmm9, %xmm2
	.loc	7 240 40                # exact_rhs.c:240:40
	addsd	%xmm3, %xmm2
	.loc	7 239 58 is_stmt 1      # exact_rhs.c:239:58
	mulsd	%xmm0, %xmm2
	.loc	7 239 51 is_stmt 0      # exact_rhs.c:239:51
	subsd	%xmm2, %xmm1
	.loc	7 239 29                # exact_rhs.c:239:29
	movsd	%xmm1, -5192(%rax,%rdx)
	.loc	7 235 31 is_stmt 1      # exact_rhs.c:235:31
	movsd	-7784(%rax,%rdx), %xmm1 # xmm1 = mem[0],zero
	.loc	7 236 12                # exact_rhs.c:236:12
	movsd	ue-184(%rsi,%rsi,4), %xmm2 # xmm2 = mem[0],zero
	.loc	7 236 29 is_stmt 0      # exact_rhs.c:236:29
	movsd	ue-144(%rsi,%rsi,4), %xmm3 # xmm3 = mem[0],zero
	.loc	7 236 28                # exact_rhs.c:236:28
	movapd	%xmm3, %xmm4
	mulsd	%xmm8, %xmm4
	.loc	7 236 23                # exact_rhs.c:236:23
	subsd	%xmm4, %xmm2
	.loc	7 237 16 is_stmt 1      # exact_rhs.c:237:16
	movsd	ue-104(%rsi,%rsi,4), %xmm4 # xmm4 = mem[0],zero
	.loc	7 237 15 is_stmt 0      # exact_rhs.c:237:15
	movapd	%xmm4, %xmm5
	mulsd	%xmm7, %xmm5
	.loc	7 236 40 is_stmt 1      # exact_rhs.c:236:40
	addsd	%xmm2, %xmm5
	.loc	7 237 31                # exact_rhs.c:237:31
	movsd	ue+16(%rdi,%rdi,4), %xmm2 # xmm2 = mem[0],zero
	.loc	7 237 30 is_stmt 0      # exact_rhs.c:237:30
	movapd	%xmm2, %xmm6
	mulsd	%xmm8, %xmm6
	.loc	7 237 25                # exact_rhs.c:237:25
	subsd	%xmm6, %xmm5
	.loc	7 235 58 is_stmt 1      # exact_rhs.c:235:58
	mulsd	%xmm0, %xmm5
	.loc	7 235 51 is_stmt 0      # exact_rhs.c:235:51
	subsd	%xmm5, %xmm1
	.loc	7 235 29                # exact_rhs.c:235:29
	movsd	%xmm1, -7784(%rax,%rdx)
	.loc	7 239 31 is_stmt 1      # exact_rhs.c:239:31
	movsd	-5184(%rax,%rdx), %xmm1 # xmm1 = mem[0],zero
	.loc	7 240 28                # exact_rhs.c:240:28
	mulsd	%xmm8, %xmm4
	.loc	7 240 23 is_stmt 0      # exact_rhs.c:240:23
	subsd	%xmm4, %xmm3
	.loc	7 240 45                # exact_rhs.c:240:45
	mulsd	%xmm9, %xmm2
	.loc	7 240 40                # exact_rhs.c:240:40
	addsd	%xmm3, %xmm2
	.loc	7 239 58 is_stmt 1      # exact_rhs.c:239:58
	mulsd	%xmm0, %xmm2
	.loc	7 239 51 is_stmt 0      # exact_rhs.c:239:51
	subsd	%xmm2, %xmm1
	.loc	7 239 29                # exact_rhs.c:239:29
	movsd	%xmm1, -5184(%rax,%rdx)
	.loc	7 235 31 is_stmt 1      # exact_rhs.c:235:31
	movsd	-7776(%rax,%rdx), %xmm1 # xmm1 = mem[0],zero
	.loc	7 236 12                # exact_rhs.c:236:12
	movsd	ue-176(%rsi,%rsi,4), %xmm2 # xmm2 = mem[0],zero
	.loc	7 236 29 is_stmt 0      # exact_rhs.c:236:29
	movsd	ue-136(%rsi,%rsi,4), %xmm3 # xmm3 = mem[0],zero
	.loc	7 236 28                # exact_rhs.c:236:28
	movapd	%xmm3, %xmm4
	mulsd	%xmm8, %xmm4
	.loc	7 236 23                # exact_rhs.c:236:23
	subsd	%xmm4, %xmm2
	.loc	7 237 16 is_stmt 1      # exact_rhs.c:237:16
	movsd	ue-96(%rsi,%rsi,4), %xmm4 # xmm4 = mem[0],zero
	.loc	7 237 15 is_stmt 0      # exact_rhs.c:237:15
	movapd	%xmm4, %xmm5
	mulsd	%xmm7, %xmm5
	.loc	7 236 40 is_stmt 1      # exact_rhs.c:236:40
	addsd	%xmm2, %xmm5
	.loc	7 237 31                # exact_rhs.c:237:31
	movsd	ue+24(%rdi,%rdi,4), %xmm2 # xmm2 = mem[0],zero
	.loc	7 237 30 is_stmt 0      # exact_rhs.c:237:30
	movapd	%xmm2, %xmm6
	mulsd	%xmm8, %xmm6
	.loc	7 237 25                # exact_rhs.c:237:25
	subsd	%xmm6, %xmm5
	.loc	7 235 58 is_stmt 1      # exact_rhs.c:235:58
	mulsd	%xmm0, %xmm5
	.loc	7 235 51 is_stmt 0      # exact_rhs.c:235:51
	subsd	%xmm5, %xmm1
	.loc	7 235 29                # exact_rhs.c:235:29
	movsd	%xmm1, -7776(%rax,%rdx)
	.loc	7 239 31 is_stmt 1      # exact_rhs.c:239:31
	movsd	-5176(%rax,%rdx), %xmm1 # xmm1 = mem[0],zero
	.loc	7 240 28                # exact_rhs.c:240:28
	mulsd	%xmm8, %xmm4
	.loc	7 240 23 is_stmt 0      # exact_rhs.c:240:23
	subsd	%xmm4, %xmm3
	.loc	7 240 45                # exact_rhs.c:240:45
	mulsd	%xmm9, %xmm2
	.loc	7 240 40                # exact_rhs.c:240:40
	addsd	%xmm3, %xmm2
	.loc	7 239 58 is_stmt 1      # exact_rhs.c:239:58
	mulsd	%xmm0, %xmm2
	.loc	7 239 51 is_stmt 0      # exact_rhs.c:239:51
	subsd	%xmm2, %xmm1
	.loc	7 239 29                # exact_rhs.c:239:29
	movsd	%xmm1, -5176(%rax,%rdx)
	.loc	7 235 31 is_stmt 1      # exact_rhs.c:235:31
	movsd	-7768(%rax,%rdx), %xmm1 # xmm1 = mem[0],zero
	.loc	7 236 12                # exact_rhs.c:236:12
	movsd	ue-168(%rsi,%rsi,4), %xmm2 # xmm2 = mem[0],zero
	.loc	7 236 29 is_stmt 0      # exact_rhs.c:236:29
	movsd	ue-128(%rsi,%rsi,4), %xmm3 # xmm3 = mem[0],zero
	.loc	7 236 28                # exact_rhs.c:236:28
	movapd	%xmm3, %xmm4
	mulsd	%xmm8, %xmm4
	.loc	7 236 23                # exact_rhs.c:236:23
	subsd	%xmm4, %xmm2
	.loc	7 237 16 is_stmt 1      # exact_rhs.c:237:16
	movsd	ue-88(%rsi,%rsi,4), %xmm4 # xmm4 = mem[0],zero
	.loc	7 237 15 is_stmt 0      # exact_rhs.c:237:15
	movapd	%xmm4, %xmm5
	mulsd	%xmm7, %xmm5
	.loc	7 236 40 is_stmt 1      # exact_rhs.c:236:40
	addsd	%xmm2, %xmm5
	.loc	7 237 31                # exact_rhs.c:237:31
	movsd	ue+32(%rdi,%rdi,4), %xmm2 # xmm2 = mem[0],zero
	.loc	7 237 30 is_stmt 0      # exact_rhs.c:237:30
	movapd	%xmm2, %xmm6
	mulsd	%xmm8, %xmm6
	.loc	7 237 25                # exact_rhs.c:237:25
	subsd	%xmm6, %xmm5
	.loc	7 235 58 is_stmt 1      # exact_rhs.c:235:58
	mulsd	%xmm0, %xmm5
	.loc	7 235 51 is_stmt 0      # exact_rhs.c:235:51
	subsd	%xmm5, %xmm1
	.loc	7 235 29                # exact_rhs.c:235:29
	movsd	%xmm1, -7768(%rax,%rdx)
	.loc	7 239 31 is_stmt 1      # exact_rhs.c:239:31
	movsd	-5168(%rax,%rdx), %xmm1 # xmm1 = mem[0],zero
	.loc	7 240 28                # exact_rhs.c:240:28
	mulsd	%xmm8, %xmm4
	.loc	7 240 23 is_stmt 0      # exact_rhs.c:240:23
	subsd	%xmm4, %xmm3
	.loc	7 240 45                # exact_rhs.c:240:45
	mulsd	%xmm9, %xmm2
	.loc	7 240 40                # exact_rhs.c:240:40
	addsd	%xmm3, %xmm2
	.loc	7 239 58 is_stmt 1      # exact_rhs.c:239:58
	mulsd	%xmm0, %xmm2
	.loc	7 239 51 is_stmt 0      # exact_rhs.c:239:51
	subsd	%xmm2, %xmm1
	.loc	7 239 29                # exact_rhs.c:239:29
	movsd	%xmm1, -5168(%rax,%rdx)
.Ltmp204:
	.loc	7 156 19 is_stmt 1 discriminator 1 # exact_rhs.c:156:19
	movslq	grid_points(%rip), %rax
	.loc	7 156 36 is_stmt 0 discriminator 1 # exact_rhs.c:156:36
	leaq	-2(%rax), %rdx
	.loc	7 156 5 discriminator 1 # exact_rhs.c:156:5
	addq	$40, %r12
	addq	$40, %r13
	.loc	7 156 19 discriminator 1 # exact_rhs.c:156:19
	cmpq	%rdx, %r15
	.loc	7 156 5 discriminator 1 # exact_rhs.c:156:5
	leaq	1(%r15), %r15
	movsd	16(%rsp), %xmm5         # 8-byte Reload
                                        # xmm5 = mem[0],zero
	jl	.LBB2_31
.Ltmp205:
# BB#42:                                # %for.inc1396.loopexit
                                        #   in Loop: Header=BB2_29 Depth=1
	.loc	7 154 20 is_stmt 1 discriminator 1 # exact_rhs.c:154:20
	movl	grid_points+8(%rip), %r12d
	movq	192(%rsp), %rsi         # 8-byte Reload
	movq	256(%rsp), %rdi         # 8-byte Reload
.LBB2_43:                               # %for.inc1396
                                        #   in Loop: Header=BB2_29 Depth=1
	.loc	7 154 34 is_stmt 0 discriminator 1 # exact_rhs.c:154:34
	leal	-2(%r12), %ecx
	.loc	7 154 17 discriminator 1 # exact_rhs.c:154:17
	movslq	%ecx, %rcx
	.loc	7 154 3 discriminator 1 # exact_rhs.c:154:3
	addq	$169000, %rsi           # imm = 0x29428
	addq	$169000, %rdi           # imm = 0x29428
	movq	80(%rsp), %rdx          # 8-byte Reload
	.loc	7 154 17 discriminator 1 # exact_rhs.c:154:17
	cmpq	%rcx, %rdx
	.loc	7 154 3 discriminator 1 # exact_rhs.c:154:3
	leaq	1(%rdx), %rdx
	movq	%rdx, 80(%rsp)          # 8-byte Spill
	jl	.LBB2_29
.Ltmp206:
.LBB2_44:                               # %for.cond1399.preheader
	.loc	7 248 20 is_stmt 1 discriminator 1 # exact_rhs.c:248:20
	movl	grid_points+4(%rip), %ebp
	.loc	7 248 17 is_stmt 0 discriminator 1 # exact_rhs.c:248:17
	movl	%ebp, %eax
	addl	$-2, %eax
	jle	.LBB2_61
# BB#45:                                # %for.body1403.lr.ph
.Ltmp207:
	.loc	7 250 22 is_stmt 1 discriminator 1 # exact_rhs.c:250:22
	movl	grid_points(%rip), %eax
	movl	$1, %edx
	movq	%rdx, 72(%rsp)          # 8-byte Spill
	movl	$forcing+171672, %edi
	movl	$forcing+509672, %ecx
	leaq	112(%rsp), %r8
	.p2align	4, 0x90
.LBB2_46:                               # %for.body1403
                                        # =>This Loop Header: Depth=1
                                        #     Child Loop BB2_48 Depth 2
                                        #       Child Loop BB2_50 Depth 3
                                        #       Child Loop BB2_53 Depth 3
                                        #       Child Loop BB2_56 Depth 3
	#DEBUG_VALUE: exact_rhs:i <- 1
	.loc	7 250 19 is_stmt 0 discriminator 1 # exact_rhs.c:250:19
	movl	%eax, %edx
	addl	$-2, %edx
	jle	.LBB2_60
.Ltmp208:
# BB#47:                                #   in Loop: Header=BB2_46 Depth=1
	.loc	7 249 11 is_stmt 1      # exact_rhs.c:249:11
	movq	72(%rsp), %rax          # 8-byte Reload
	cvtsi2sdl	%eax, %xmm1
	.loc	7 249 21 is_stmt 0      # exact_rhs.c:249:21
	mulsd	dnym1(%rip), %xmm1
.Ltmp209:
	#DEBUG_VALUE: exact_rhs:eta <- %XMM1
	.loc	7 253 24 is_stmt 1 discriminator 1 # exact_rhs.c:253:24
	movsd	%xmm1, 16(%rsp)         # 8-byte Spill
	movq	%rcx, %rbp
	movq	%rcx, 272(%rsp)         # 8-byte Spill
	movq	%rdi, 280(%rsp)         # 8-byte Spill
	movq	%rdi, %rbx
	movl	$1, %r15d
.Ltmp210:
	.p2align	4, 0x90
.LBB2_48:                               # %for.body1410
                                        #   Parent Loop BB2_46 Depth=1
                                        # =>  This Loop Header: Depth=2
                                        #       Child Loop BB2_50 Depth 3
                                        #       Child Loop BB2_53 Depth 3
                                        #       Child Loop BB2_56 Depth 3
	#DEBUG_VALUE: exact_rhs:k <- 0
	movq	%rbp, 288(%rsp)         # 8-byte Spill
	.loc	7 253 21 is_stmt 0 discriminator 1 # exact_rhs.c:253:21
	testl	%r12d, %r12d
	movq	%r8, %rbp
	jle	.LBB2_51
.Ltmp211:
# BB#49:                                #   in Loop: Header=BB2_48 Depth=2
	.loc	7 251 12 is_stmt 1      # exact_rhs.c:251:12
	cvtsi2sdl	%r15d, %xmm0
	.loc	7 251 22 is_stmt 0      # exact_rhs.c:251:22
	mulsd	dnxm1(%rip), %xmm0
.Ltmp212:
	#DEBUG_VALUE: exact_rhs:xi <- %XMM0
	movsd	%xmm0, (%rsp)           # 8-byte Spill
.Ltmp213:
	#DEBUG_VALUE: exact_rhs:xi <- [%RSP+0]
	xorl	%r14d, %r14d
	xorl	%r13d, %r13d
.Ltmp214:
	.p2align	4, 0x90
.LBB2_50:                               # %for.body1417
                                        #   Parent Loop BB2_46 Depth=1
                                        #     Parent Loop BB2_48 Depth=2
                                        # =>    This Inner Loop Header: Depth=3
	.loc	7 254 16 is_stmt 1      # exact_rhs.c:254:16
	xorps	%xmm2, %xmm2
	cvtsi2sdl	%r13d, %xmm2
	.loc	7 254 26 is_stmt 0      # exact_rhs.c:254:26
	mulsd	dnzm1(%rip), %xmm2
.Ltmp215:
	#DEBUG_VALUE: exact_rhs:zeta <- %XMM2
	.loc	7 256 9 is_stmt 1       # exact_rhs.c:256:9
	movsd	(%rsp), %xmm0           # 8-byte Reload
                                        # xmm0 = mem[0],zero
	movq	%rbp, %rdi
	callq	exact_solution
	#DEBUG_VALUE: exact_rhs:m <- 0
	.loc	7 261 19                # exact_rhs.c:261:19
	movsd	.LCPI2_0(%rip), %xmm0   # xmm0 = mem[0],zero
	movapd	%xmm0, %xmm3
	movsd	16(%rsp), %xmm1         # 8-byte Reload
                                        # xmm1 = mem[0],zero
.Ltmp216:
	.loc	7 258 20                # exact_rhs.c:258:20
	movq	144(%rsp), %rax
	movq	%rax, ue+32(%r14)
	movaps	112(%rsp), %xmm0
	movaps	128(%rsp), %xmm2
.Ltmp217:
	movups	%xmm2, ue+16(%r14)
	movups	%xmm0, ue(%r14)
.Ltmp218:
	.loc	7 261 19                # exact_rhs.c:261:19
	divsd	112(%rsp), %xmm3
.Ltmp219:
	#DEBUG_VALUE: exact_rhs:dtpp <- %XMM3
	#DEBUG_VALUE: exact_rhs:m <- 1
	.loc	7 264 30                # exact_rhs.c:264:30
	movupd	120(%rsp), %xmm0
	.loc	7 264 28 is_stmt 0      # exact_rhs.c:264:28
	movlhps	%xmm3, %xmm3            # xmm3 = xmm3[0,0]
.Ltmp220:
	mulpd	%xmm3, %xmm0
	.loc	7 264 21                # exact_rhs.c:264:21
	movupd	%xmm0, buf+8(%r14)
	.loc	7 264 30                # exact_rhs.c:264:30
	movupd	136(%rsp), %xmm2
	.loc	7 264 28                # exact_rhs.c:264:28
	mulpd	%xmm3, %xmm2
	.loc	7 264 21                # exact_rhs.c:264:21
	movupd	%xmm2, buf+24(%r14)
	movsd	ue+24(%r14), %xmm5      # xmm5 = mem[0],zero
.Ltmp221:
	.loc	7 270 30 is_stmt 1      # exact_rhs.c:270:30
	mulsd	%xmm2, %xmm5
	.loc	7 267 31                # exact_rhs.c:267:31
	mulsd	%xmm2, %xmm2
	.loc	7 267 19 is_stmt 0      # exact_rhs.c:267:19
	movsd	%xmm2, cuf(,%r13,8)
	.loc	7 268 64 is_stmt 1      # exact_rhs.c:268:64
	movapd	%xmm0, %xmm3
	movsd	ue+8(%r14), %xmm4       # xmm4 = mem[0],zero
	.loc	7 269 30                # exact_rhs.c:269:30
	mulsd	%xmm0, %xmm4
	.loc	7 268 40                # exact_rhs.c:268:40
	mulsd	%xmm0, %xmm0
	.loc	7 268 28 is_stmt 0      # exact_rhs.c:268:28
	addsd	%xmm2, %xmm0
	.loc	7 268 64                # exact_rhs.c:268:64
	shufpd	$1, %xmm3, %xmm3        # xmm3 = xmm3[1,0]
	movsd	ue+16(%r14), %xmm2      # xmm2 = mem[0],zero
	.loc	7 269 51 is_stmt 1      # exact_rhs.c:269:51
	mulsd	%xmm3, %xmm2
	.loc	7 268 64                # exact_rhs.c:268:64
	mulsd	%xmm3, %xmm3
	.loc	7 268 52 is_stmt 0      # exact_rhs.c:268:52
	addsd	%xmm0, %xmm3
	movsd	.LCPI2_1(%rip), %xmm0   # xmm0 = mem[0],zero
	.loc	7 268 19                # exact_rhs.c:268:19
	movsd	%xmm3, buf(%r14)
	.loc	7 269 40 is_stmt 1      # exact_rhs.c:269:40
	addsd	%xmm4, %xmm2
	.loc	7 269 61 is_stmt 0      # exact_rhs.c:269:61
	addsd	%xmm2, %xmm5
	.loc	7 269 19                # exact_rhs.c:269:19
	mulsd	%xmm0, %xmm5
	.loc	7 269 14                # exact_rhs.c:269:14
	movsd	%xmm5, q(,%r13,8)
.Ltmp222:
	.loc	7 253 7 is_stmt 1 discriminator 1 # exact_rhs.c:253:7
	incq	%r13
	.loc	7 253 21 is_stmt 0 discriminator 1 # exact_rhs.c:253:21
	movslq	grid_points+8(%rip), %r12
	addq	$40, %r14
	cmpq	%r12, %r13
	jl	.LBB2_50
.Ltmp223:
.LBB2_51:                               # %for.cond1509.preheader
                                        #   in Loop: Header=BB2_48 Depth=2
	movq	%rbp, %r8
.Ltmp224:
	.loc	7 273 21 is_stmt 1 discriminator 1 # exact_rhs.c:273:21
	addl	$-2, %r12d
	movsd	.LCPI2_2(%rip), %xmm0   # xmm0 = mem[0],zero
	movapd	%xmm0, %xmm3
	jle	.LBB2_54
# BB#52:                                # %for.body1513.lr.ph
                                        #   in Loop: Header=BB2_48 Depth=2
.Ltmp225:
	.loc	7 278 11                # exact_rhs.c:278:11
	movsd	tz2(%rip), %xmm0        # xmm0 = mem[0],zero
	.loc	7 292 37                # exact_rhs.c:292:37
	movapd	%xmm0, 256(%rsp)        # 16-byte Spill
	movsd	c2(%rip), %xmm1         # xmm1 = mem[0],zero
	.loc	7 298 26                # exact_rhs.c:298:26
	movsd	%xmm1, 32(%rsp)         # 8-byte Spill
	movsd	c1(%rip), %xmm1         # xmm1 = mem[0],zero
	movsd	%xmm1, 48(%rsp)         # 8-byte Spill
	movsd	zzcon3(%rip), %xmm1     # xmm1 = mem[0],zero
	.loc	7 300 14                # exact_rhs.c:300:14
	mulsd	.LCPI2_1(%rip), %xmm1
	movsd	%xmm1, 24(%rsp)         # 8-byte Spill
	.loc	7 301 11                # exact_rhs.c:301:11
	movsd	zzcon4(%rip), %xmm1     # xmm1 = mem[0],zero
	.loc	7 302 11                # exact_rhs.c:302:11
	movsd	%xmm1, 176(%rsp)        # 8-byte Spill
	movsd	zzcon5(%rip), %xmm1     # xmm1 = mem[0],zero
	.loc	7 303 11                # exact_rhs.c:303:11
	movsd	%xmm1, 160(%rsp)        # 8-byte Spill
	movsd	dz5tz1(%rip), %xmm1     # xmm1 = mem[0],zero
.Ltmp226:
	.loc	7 273 7 discriminator 1 # exact_rhs.c:273:7
	movsd	%xmm1, 240(%rsp)        # 8-byte Spill
	movslq	%r12d, %rax
.Ltmp227:
	.loc	7 278 28                # exact_rhs.c:278:28
	movsd	ue+24(%rip), %xmm9      # xmm9 = mem[0],zero
	.loc	7 282 47                # exact_rhs.c:282:47
	movsd	buf+24(%rip), %xmm4     # xmm4 = mem[0],zero
	.loc	7 278 14                # exact_rhs.c:278:14
	movsd	zzcon2(%rip), %xmm1     # xmm1 = mem[0],zero
	movapd	%xmm0, %xmm2
	unpcklpd	%xmm1, %xmm2    # xmm2 = xmm2[0],xmm1[0]
	movapd	%xmm2, 208(%rsp)        # 16-byte Spill
	.loc	7 279 17                # exact_rhs.c:279:17
	movsd	dz1tz1(%rip), %xmm2     # xmm2 = mem[0],zero
	movhpd	dz2tz1(%rip), %xmm2     # xmm2 = xmm2[0],mem[0]
	movapd	%xmm2, 96(%rsp)         # 16-byte Spill
	.loc	7 286 57                # exact_rhs.c:286:57
	movapd	%xmm0, %xmm2
	movapd	%xmm0, %xmm5
	movlhps	%xmm2, %xmm2            # xmm2 = xmm2[0,0]
	movaps	%xmm2, 80(%rsp)         # 16-byte Spill
	.loc	7 288 17                # exact_rhs.c:288:17
	movhpd	zzcon1(%rip), %xmm1     # xmm1 = xmm1[0],mem[0]
	movapd	%xmm1, 224(%rsp)        # 16-byte Spill
	.loc	7 289 17                # exact_rhs.c:289:17
	movsd	dz3tz1(%rip), %xmm0     # xmm0 = mem[0],zero
	movhpd	dz4tz1(%rip), %xmm0     # xmm0 = xmm0[0],mem[0]
	movapd	%xmm0, 192(%rsp)        # 16-byte Spill
	.loc	7 293 25                # exact_rhs.c:293:25
	movl	$0, %ecx
	movq	%rbx, %rdx
	xorl	%esi, %esi
	.p2align	4, 0x90
.LBB2_53:                               # %for.body1513
                                        #   Parent Loop BB2_46 Depth=1
                                        #     Parent Loop BB2_48 Depth=2
                                        # =>    This Inner Loop Header: Depth=3
	.loc	7 277 51                # exact_rhs.c:277:51
	movsd	-32(%rdx), %xmm12       # xmm12 = mem[0],zero
	.loc	7 281 31                # exact_rhs.c:281:31
	movsd	-24(%rdx), %xmm14       # xmm14 = mem[0],zero
	.loc	7 279 19                # exact_rhs.c:279:19
	movupd	ue+80(%rcx), %xmm13
	.loc	7 282 23                # exact_rhs.c:282:23
	movapd	%xmm13, %xmm0
	shufpd	$1, %xmm0, %xmm0        # xmm0 = xmm0[1,0]
	.loc	7 288 19                # exact_rhs.c:288:19
	movupd	buf+96(%rcx), %xmm11
	.loc	7 282 23                # exact_rhs.c:282:23
	movapd	%xmm11, (%rsp)          # 16-byte Spill
	shufpd	$1, %xmm11, %xmm11      # xmm11 = xmm11[1,0]
	mulsd	%xmm11, %xmm0
	.loc	7 279 43                # exact_rhs.c:279:43
	movupd	ue(%rcx), %xmm1
	.loc	7 279 34 is_stmt 0      # exact_rhs.c:279:34
	movupd	ue+40(%rcx), %xmm2
	.loc	7 279 33                # exact_rhs.c:279:33
	addpd	%xmm2, %xmm2
	.loc	7 279 29                # exact_rhs.c:279:29
	subpd	%xmm2, %xmm13
	.loc	7 279 42                # exact_rhs.c:279:42
	addpd	%xmm1, %xmm13
	.loc	7 282 46 is_stmt 1      # exact_rhs.c:282:46
	shufpd	$1, %xmm1, %xmm1        # xmm1 = xmm1[1,0]
	mulsd	%xmm4, %xmm1
	.loc	7 282 35 is_stmt 0      # exact_rhs.c:282:35
	subsd	%xmm1, %xmm0
	.loc	7 281 57 is_stmt 1      # exact_rhs.c:281:57
	mulsd	%xmm5, %xmm0
	.loc	7 281 51 is_stmt 0      # exact_rhs.c:281:51
	subsd	%xmm0, %xmm14
	movsd	buf+48(%rcx), %xmm1     # xmm1 = mem[0],zero
	.loc	7 283 34 is_stmt 1      # exact_rhs.c:283:34
	mulsd	%xmm3, %xmm1
	.loc	7 283 30 is_stmt 0      # exact_rhs.c:283:30
	addsd	buf+88(%rcx), %xmm1
	.loc	7 287 13 is_stmt 1      # exact_rhs.c:287:13
	movupd	ue+96(%rcx), %xmm6
	.loc	7 278 27                # exact_rhs.c:278:27
	movapd	%xmm6, %xmm0
	shufpd	$1, %xmm0, %xmm0        # xmm0 = xmm0[1,0]
	movapd	%xmm0, %xmm2
	movhpd	buf+8(%rcx), %xmm2      # xmm2 = xmm2[0],mem[0]
	.loc	7 287 36                # exact_rhs.c:287:36
	movsd	ue+16(%rcx), %xmm8      # xmm8 = mem[0],zero
	.loc	7 287 46 is_stmt 0      # exact_rhs.c:287:46
	movapd	%xmm8, %xmm10
	.loc	7 293 24 is_stmt 1      # exact_rhs.c:293:24
	movapd	%xmm9, %xmm7
	.loc	7 289 42                # exact_rhs.c:289:42
	unpcklpd	%xmm9, %xmm8    # xmm8 = xmm8[0],xmm9[0]
	.loc	7 278 27                # exact_rhs.c:278:27
	unpcklpd	%xmm1, %xmm9    # xmm9 = xmm9[0],xmm1[0]
	movapd	%xmm2, %xmm1
	subpd	%xmm9, %xmm1
	addpd	%xmm2, %xmm9
	movsd	%xmm1, %xmm9            # xmm9 = xmm1[0],xmm9[1]
	.loc	7 278 14 is_stmt 0      # exact_rhs.c:278:14
	mulpd	208(%rsp), %xmm9        # 16-byte Folded Reload
	.loc	7 277 51 is_stmt 1      # exact_rhs.c:277:51
	unpcklpd	%xmm14, %xmm12  # xmm12 = xmm12[0],xmm14[0]
	movapd	%xmm12, %xmm1
	subpd	%xmm9, %xmm1
	addpd	%xmm9, %xmm12
	movsd	%xmm1, %xmm12           # xmm12 = xmm1[0],xmm12[1]
	.loc	7 279 17                # exact_rhs.c:279:17
	mulpd	96(%rsp), %xmm13        # 16-byte Folded Reload
	.loc	7 278 40                # exact_rhs.c:278:40
	addpd	%xmm12, %xmm13
	.loc	7 277 29                # exact_rhs.c:277:29
	movupd	%xmm13, -32(%rdx)
	.loc	7 292 24                # exact_rhs.c:292:24
	mulsd	%xmm11, %xmm0
	movapd	%xmm3, %xmm14
	.loc	7 292 41 is_stmt 0      # exact_rhs.c:292:41
	movsd	ue+112(%rcx), %xmm3     # xmm3 = mem[0],zero
	.loc	7 292 52                # exact_rhs.c:292:52
	movsd	q+16(,%rsi,8), %xmm12   # xmm12 = mem[0],zero
	.loc	7 292 51                # exact_rhs.c:292:51
	movapd	%xmm3, %xmm5
	subsd	%xmm12, %xmm5
	movsd	32(%rsp), %xmm15        # 8-byte Reload
                                        # xmm15 = mem[0],zero
	.loc	7 292 39                # exact_rhs.c:292:39
	mulsd	%xmm15, %xmm5
	.loc	7 292 36                # exact_rhs.c:292:36
	addsd	%xmm0, %xmm5
	.loc	7 293 24 is_stmt 1      # exact_rhs.c:293:24
	mulsd	%xmm4, %xmm7
	movapd	%xmm7, %xmm2
	.loc	7 293 41 is_stmt 0      # exact_rhs.c:293:41
	movsd	ue+32(%rcx), %xmm9      # xmm9 = mem[0],zero
	.loc	7 293 52                # exact_rhs.c:293:52
	movsd	q(,%rsi,8), %xmm13      # xmm13 = mem[0],zero
	movsd	48(%rsp), %xmm0         # 8-byte Reload
                                        # xmm0 = mem[0],zero
	.loc	7 298 28 is_stmt 1      # exact_rhs.c:298:28
	movapd	%xmm0, %xmm1
	mulsd	%xmm3, %xmm1
	.loc	7 303 35                # exact_rhs.c:303:35
	movsd	ue+72(%rcx), %xmm7      # xmm7 = mem[0],zero
	.loc	7 303 34 is_stmt 0      # exact_rhs.c:303:34
	addsd	%xmm7, %xmm7
	.loc	7 303 30                # exact_rhs.c:303:30
	subsd	%xmm7, %xmm3
	.loc	7 299 28 is_stmt 1      # exact_rhs.c:299:28
	movapd	%xmm0, %xmm7
	mulsd	%xmm9, %xmm7
	.loc	7 303 43                # exact_rhs.c:303:43
	addsd	%xmm9, %xmm3
	.loc	7 293 51                # exact_rhs.c:293:51
	subsd	%xmm13, %xmm9
	.loc	7 293 39 is_stmt 0      # exact_rhs.c:293:39
	mulsd	%xmm15, %xmm9
	.loc	7 293 36                # exact_rhs.c:293:36
	addsd	%xmm2, %xmm9
	.loc	7 287 23 is_stmt 1      # exact_rhs.c:287:23
	movapd	%xmm6, %xmm2
	mulsd	%xmm11, %xmm2
	.loc	7 287 35 is_stmt 0      # exact_rhs.c:287:35
	unpcklpd	%xmm5, %xmm2    # xmm2 = xmm2[0],xmm5[0]
	.loc	7 287 46                # exact_rhs.c:287:46
	mulsd	%xmm4, %xmm10
	.loc	7 287 35                # exact_rhs.c:287:35
	unpcklpd	%xmm9, %xmm10   # xmm10 = xmm10[0],xmm9[0]
	.loc	7 286 31 is_stmt 1      # exact_rhs.c:286:31
	movupd	-16(%rdx), %xmm0
	.loc	7 287 35                # exact_rhs.c:287:35
	subpd	%xmm10, %xmm2
	.loc	7 286 57                # exact_rhs.c:286:57
	mulpd	80(%rsp), %xmm2         # 16-byte Folded Reload
	.loc	7 286 51 is_stmt 0      # exact_rhs.c:286:51
	subpd	%xmm2, %xmm0
	.loc	7 288 44 is_stmt 1      # exact_rhs.c:288:44
	movsd	buf+16(%rcx), %xmm2     # xmm2 = mem[0],zero
	unpcklpd	%xmm4, %xmm2    # xmm2 = xmm2[0],xmm4[0]
	.loc	7 288 35 is_stmt 0      # exact_rhs.c:288:35
	movupd	buf+56(%rcx), %xmm9
	.loc	7 288 34                # exact_rhs.c:288:34
	movapd	%xmm9, %xmm5
	addpd	%xmm5, %xmm5
	movapd	(%rsp), %xmm4           # 16-byte Reload
	.loc	7 288 30                # exact_rhs.c:288:30
	subpd	%xmm5, %xmm4
	.loc	7 288 44                # exact_rhs.c:288:44
	addpd	%xmm4, %xmm2
	.loc	7 288 17                # exact_rhs.c:288:17
	mulpd	224(%rsp), %xmm2        # 16-byte Folded Reload
	.loc	7 287 59 is_stmt 1      # exact_rhs.c:287:59
	addpd	%xmm0, %xmm2
	.loc	7 289 34                # exact_rhs.c:289:34
	movupd	ue+56(%rcx), %xmm0
	.loc	7 289 33 is_stmt 0      # exact_rhs.c:289:33
	movapd	%xmm0, %xmm5
	addpd	%xmm5, %xmm5
	.loc	7 289 29                # exact_rhs.c:289:29
	subpd	%xmm5, %xmm6
	.loc	7 289 42                # exact_rhs.c:289:42
	addpd	%xmm6, %xmm8
	.loc	7 289 17                # exact_rhs.c:289:17
	mulpd	192(%rsp), %xmm8        # 16-byte Folded Reload
	.loc	7 288 57 is_stmt 1      # exact_rhs.c:288:57
	addpd	%xmm2, %xmm8
	.loc	7 286 29                # exact_rhs.c:286:29
	movupd	%xmm8, -16(%rdx)
	.loc	7 298 42                # exact_rhs.c:298:42
	mulsd	%xmm15, %xmm12
	.loc	7 298 39 is_stmt 0      # exact_rhs.c:298:39
	subsd	%xmm12, %xmm1
	.loc	7 298 24                # exact_rhs.c:298:24
	mulsd	%xmm11, %xmm1
	.loc	7 299 42 is_stmt 1      # exact_rhs.c:299:42
	mulsd	%xmm15, %xmm13
	.loc	7 299 39 is_stmt 0      # exact_rhs.c:299:39
	subsd	%xmm13, %xmm7
	.loc	7 297 31 is_stmt 1      # exact_rhs.c:297:31
	movsd	(%rdx), %xmm2           # xmm2 = mem[0],zero
	.loc	7 299 24                # exact_rhs.c:299:24
	mulsd	buf+24(%rcx), %xmm7
	.loc	7 298 50                # exact_rhs.c:298:50
	subsd	%xmm7, %xmm1
	movapd	256(%rsp), %xmm4        # 16-byte Reload
	.loc	7 297 57                # exact_rhs.c:297:57
	mulsd	%xmm4, %xmm1
	movapd	%xmm4, %xmm5
	.loc	7 297 51 is_stmt 0      # exact_rhs.c:297:51
	subsd	%xmm1, %xmm2
	.loc	7 300 23 is_stmt 1      # exact_rhs.c:300:23
	movsd	buf+80(%rcx), %xmm1     # xmm1 = mem[0],zero
	.loc	7 300 39 is_stmt 0      # exact_rhs.c:300:39
	movsd	buf+40(%rcx), %xmm4     # xmm4 = mem[0],zero
	.loc	7 300 38                # exact_rhs.c:300:38
	addsd	%xmm4, %xmm4
	.loc	7 300 34                # exact_rhs.c:300:34
	subsd	%xmm4, %xmm1
	.loc	7 300 48                # exact_rhs.c:300:48
	addsd	buf(%rcx), %xmm1
	.loc	7 300 21                # exact_rhs.c:300:21
	mulsd	24(%rsp), %xmm1         # 8-byte Folded Reload
	.loc	7 299 51 is_stmt 1      # exact_rhs.c:299:51
	addsd	%xmm2, %xmm1
	.loc	7 301 19                # exact_rhs.c:301:19
	movsd	cuf+16(,%rsi,8), %xmm2  # xmm2 = mem[0],zero
	.loc	7 301 32 is_stmt 0      # exact_rhs.c:301:32
	movsd	cuf+8(,%rsi,8), %xmm4   # xmm4 = mem[0],zero
	.loc	7 301 31                # exact_rhs.c:301:31
	addsd	%xmm4, %xmm4
	.loc	7 301 27                # exact_rhs.c:301:27
	subsd	%xmm4, %xmm2
	.loc	7 301 38                # exact_rhs.c:301:38
	addsd	cuf(,%rsi,8), %xmm2
	.loc	7 301 17                # exact_rhs.c:301:17
	mulsd	176(%rsp), %xmm2        # 8-byte Folded Reload
	.loc	7 300 61 is_stmt 1      # exact_rhs.c:300:61
	addsd	%xmm1, %xmm2
	.loc	7 302 19                # exact_rhs.c:302:19
	movsd	buf+112(%rcx), %xmm1    # xmm1 = mem[0],zero
	.loc	7 302 35 is_stmt 0      # exact_rhs.c:302:35
	movsd	buf+72(%rcx), %xmm4     # xmm4 = mem[0],zero
	.loc	7 302 34                # exact_rhs.c:302:34
	addsd	%xmm4, %xmm4
	.loc	7 302 30                # exact_rhs.c:302:30
	subsd	%xmm4, %xmm1
	.loc	7 302 44                # exact_rhs.c:302:44
	addsd	buf+32(%rcx), %xmm1
	.loc	7 302 17                # exact_rhs.c:302:17
	mulsd	160(%rsp), %xmm1        # 8-byte Folded Reload
	.loc	7 301 48 is_stmt 1      # exact_rhs.c:301:48
	addsd	%xmm2, %xmm1
	.loc	7 303 17                # exact_rhs.c:303:17
	mulsd	240(%rsp), %xmm3        # 8-byte Folded Reload
	.loc	7 302 57                # exact_rhs.c:302:57
	addsd	%xmm1, %xmm3
	.loc	7 297 29                # exact_rhs.c:297:29
	movsd	%xmm3, (%rdx)
	movapd	%xmm14, %xmm3
.Ltmp228:
	.loc	7 273 7 discriminator 1 # exact_rhs.c:273:7
	shufpd	$1, %xmm9, %xmm9        # xmm9 = xmm9[1,0]
	shufpd	$1, %xmm0, %xmm0        # xmm0 = xmm0[1,0]
	.loc	7 273 21 is_stmt 0 discriminator 1 # exact_rhs.c:273:21
	incq	%rsi
	addq	$169000, %rdx           # imm = 0x29428
	addq	$40, %rcx
	cmpq	%rax, %rsi
.Ltmp229:
	.loc	7 293 25 is_stmt 1      # exact_rhs.c:293:25
	movapd	%xmm9, %xmm4
	.loc	7 293 14 is_stmt 0      # exact_rhs.c:293:14
	movapd	%xmm0, %xmm9
	jl	.LBB2_53
.Ltmp230:
.LBB2_54:                               # %for.cond1844.preheader
                                        #   in Loop: Header=BB2_48 Depth=2
	#DEBUG_VALUE: exact_rhs:k <- 1
	.loc	7 311 53 is_stmt 1      # exact_rhs.c:311:53
	movsd	dssp(%rip), %xmm10      # xmm10 = mem[0],zero
	.loc	7 311 31 is_stmt 0      # exact_rhs.c:311:31
	leaq	(%r15,%r15,4), %rcx
	imulq	$2600, 72(%rsp), %rax   # 8-byte Folded Reload
                                        # imm = 0xA28
.Ltmp231:
	#DEBUG_VALUE: exact_rhs:k <- 2
	.loc	7 312 16 is_stmt 1      # exact_rhs.c:312:16
	movupd	ue+40(%rip), %xmm11
	.loc	7 312 31 is_stmt 0      # exact_rhs.c:312:31
	movapd	%xmm11, 48(%rsp)        # 16-byte Spill
	movapd	ue+80(%rip), %xmm15
	.loc	7 312 43                # exact_rhs.c:312:43
	movapd	%xmm15, (%rsp)          # 16-byte Spill
	movupd	ue+120(%rip), %xmm0
.Ltmp232:
	#DEBUG_VALUE: exact_rhs:k <- 1
	.loc	7 311 31 is_stmt 1      # exact_rhs.c:311:31
	movupd	forcing+169000(%rax,%rcx,8), %xmm14
	.loc	7 312 15                # exact_rhs.c:312:15
	movapd	%xmm11, %xmm5
	movapd	.LCPI2_5(%rip), %xmm13  # xmm13 = [5.000000e+00,5.000000e+00]
	mulpd	%xmm13, %xmm5
	.loc	7 312 30 is_stmt 0      # exact_rhs.c:312:30
	movapd	%xmm15, %xmm1
	movapd	.LCPI2_6(%rip), %xmm2   # xmm2 = [4.000000e+00,4.000000e+00]
	mulpd	%xmm2, %xmm1
	.loc	7 312 25                # exact_rhs.c:312:25
	subpd	%xmm1, %xmm5
	.loc	7 312 42                # exact_rhs.c:312:42
	addpd	%xmm0, %xmm5
	.loc	7 312 16                # exact_rhs.c:312:16
	movsd	ue+72(%rip), %xmm3      # xmm3 = mem[0],zero
	.loc	7 312 15                # exact_rhs.c:312:15
	movapd	%xmm3, %xmm9
	movsd	.LCPI2_8(%rip), %xmm1   # xmm1 = mem[0],zero
	mulsd	%xmm1, %xmm9
	.loc	7 312 31                # exact_rhs.c:312:31
	movsd	ue+112(%rip), %xmm7     # xmm7 = mem[0],zero
	.loc	7 312 30                # exact_rhs.c:312:30
	movapd	%xmm7, %xmm1
	movsd	.LCPI2_3(%rip), %xmm8   # xmm8 = mem[0],zero
	mulsd	%xmm8, %xmm1
	.loc	7 312 25                # exact_rhs.c:312:25
	subsd	%xmm1, %xmm9
	.loc	7 312 43                # exact_rhs.c:312:43
	movsd	ue+152(%rip), %xmm6     # xmm6 = mem[0],zero
	.loc	7 312 42                # exact_rhs.c:312:42
	addsd	%xmm6, %xmm9
	.loc	7 311 58 is_stmt 1      # exact_rhs.c:311:58
	mulsd	%xmm10, %xmm9
	.loc	7 315 16                # exact_rhs.c:315:16
	movapd	%xmm3, %xmm2
	mulsd	%xmm8, %xmm2
	.loc	7 315 33 is_stmt 0      # exact_rhs.c:315:33
	movapd	%xmm7, %xmm12
	movsd	.LCPI2_4(%rip), %xmm1   # xmm1 = mem[0],zero
	mulsd	%xmm1, %xmm12
	.loc	7 315 16                # exact_rhs.c:315:16
	subsd	%xmm2, %xmm12
	.loc	7 316 16 is_stmt 1      # exact_rhs.c:316:16
	mulsd	%xmm8, %xmm6
	.loc	7 315 43                # exact_rhs.c:315:43
	subsd	%xmm6, %xmm12
	.loc	7 316 28                # exact_rhs.c:316:28
	addsd	ue+192(%rip), %xmm12
	.loc	7 314 58                # exact_rhs.c:314:58
	mulsd	%xmm10, %xmm12
	.loc	7 311 58                # exact_rhs.c:311:58
	movlhps	%xmm10, %xmm10          # xmm10 = xmm10[0,0]
	mulpd	%xmm10, %xmm5
	.loc	7 311 51 is_stmt 0      # exact_rhs.c:311:51
	subpd	%xmm5, %xmm14
	.loc	7 311 29                # exact_rhs.c:311:29
	movupd	%xmm14, forcing+169000(%rax,%rcx,8)
.Ltmp233:
	#DEBUG_VALUE: exact_rhs:k <- 2
	.loc	7 314 31 is_stmt 1      # exact_rhs.c:314:31
	movupd	forcing+338000(%rax,%rcx,8), %xmm2
	.loc	7 315 16                # exact_rhs.c:315:16
	movapd	%xmm11, %xmm4
	.loc	7 312 30                # exact_rhs.c:312:30
	movapd	.LCPI2_6(%rip), %xmm11  # xmm11 = [4.000000e+00,4.000000e+00]
	.loc	7 315 16                # exact_rhs.c:315:16
	mulpd	%xmm11, %xmm4
	.loc	7 315 33 is_stmt 0      # exact_rhs.c:315:33
	movapd	%xmm15, %xmm5
	movapd	.LCPI2_7(%rip), %xmm1   # xmm1 = [6.000000e+00,6.000000e+00]
	mulpd	%xmm1, %xmm5
	.loc	7 315 16                # exact_rhs.c:315:16
	subpd	%xmm4, %xmm5
	.loc	7 316 16 is_stmt 1      # exact_rhs.c:316:16
	movapd	%xmm0, %xmm4
	mulpd	%xmm11, %xmm4
	.loc	7 315 43                # exact_rhs.c:315:43
	subpd	%xmm4, %xmm5
	.loc	7 316 34                # exact_rhs.c:316:34
	movapd	ue+160(%rip), %xmm6
	.loc	7 316 28 is_stmt 0      # exact_rhs.c:316:28
	addpd	%xmm6, %xmm5
	.loc	7 314 58 is_stmt 1      # exact_rhs.c:314:58
	mulpd	%xmm10, %xmm5
	.loc	7 314 51 is_stmt 0      # exact_rhs.c:314:51
	subpd	%xmm5, %xmm2
	.loc	7 314 29                # exact_rhs.c:314:29
	movupd	%xmm2, forcing+338000(%rax,%rcx,8)
.Ltmp234:
	#DEBUG_VALUE: exact_rhs:k <- 1
	.loc	7 312 16 is_stmt 1      # exact_rhs.c:312:16
	movupd	ue+56(%rip), %xmm4
	.loc	7 312 31 is_stmt 0      # exact_rhs.c:312:31
	movapd	ue+96(%rip), %xmm14
	.loc	7 312 43                # exact_rhs.c:312:43
	movupd	ue+136(%rip), %xmm15
.Ltmp235:
	#DEBUG_VALUE: exact_rhs:k <- 2
	.loc	7 312 15                # exact_rhs.c:312:15
	movapd	%xmm4, %xmm2
	mulpd	%xmm13, %xmm2
	.loc	7 312 30                # exact_rhs.c:312:30
	movapd	%xmm14, %xmm1
	mulpd	%xmm11, %xmm1
	.loc	7 312 25                # exact_rhs.c:312:25
	subpd	%xmm1, %xmm2
	.loc	7 311 31 is_stmt 1      # exact_rhs.c:311:31
	movupd	forcing+169016(%rax,%rcx,8), %xmm1
	.loc	7 312 42                # exact_rhs.c:312:42
	addpd	%xmm15, %xmm2
	.loc	7 311 58                # exact_rhs.c:311:58
	mulpd	%xmm10, %xmm2
	.loc	7 311 51 is_stmt 0      # exact_rhs.c:311:51
	subpd	%xmm2, %xmm1
	.loc	7 311 29                # exact_rhs.c:311:29
	movupd	%xmm1, forcing+169016(%rax,%rcx,8)
	.loc	7 315 16 is_stmt 1      # exact_rhs.c:315:16
	movapd	%xmm4, %xmm2
	mulpd	%xmm11, %xmm2
	.loc	7 315 33 is_stmt 0      # exact_rhs.c:315:33
	movapd	%xmm14, %xmm13
	mulpd	.LCPI2_7(%rip), %xmm13
	.loc	7 315 16                # exact_rhs.c:315:16
	subpd	%xmm2, %xmm13
	.loc	7 316 16 is_stmt 1      # exact_rhs.c:316:16
	movapd	%xmm15, %xmm2
	mulpd	%xmm11, %xmm2
	.loc	7 315 43                # exact_rhs.c:315:43
	subpd	%xmm2, %xmm13
	.loc	7 316 34                # exact_rhs.c:316:34
	movapd	ue+176(%rip), %xmm2
.Ltmp236:
	#DEBUG_VALUE: exact_rhs:k <- 1
	.loc	7 316 28 is_stmt 0      # exact_rhs.c:316:28
	addpd	%xmm2, %xmm13
	.loc	7 314 58 is_stmt 1      # exact_rhs.c:314:58
	mulpd	%xmm10, %xmm13
	.loc	7 314 31 is_stmt 0      # exact_rhs.c:314:31
	movupd	forcing+338016(%rax,%rcx,8), %xmm1
	.loc	7 314 51                # exact_rhs.c:314:51
	subpd	%xmm13, %xmm1
	.loc	7 314 29                # exact_rhs.c:314:29
	movupd	%xmm1, forcing+338016(%rax,%rcx,8)
	.loc	7 311 31 is_stmt 1      # exact_rhs.c:311:31
	movsd	forcing+169032(%rax,%rcx,8), %xmm1 # xmm1 = mem[0],zero
	.loc	7 311 51 is_stmt 0      # exact_rhs.c:311:51
	subsd	%xmm9, %xmm1
	movsd	.LCPI2_8(%rip), %xmm9   # xmm9 = mem[0],zero
	.loc	7 311 29                # exact_rhs.c:311:29
	movsd	%xmm1, forcing+169032(%rax,%rcx,8)
.Ltmp237:
	#DEBUG_VALUE: exact_rhs:k <- 2
	.loc	7 314 31 is_stmt 1      # exact_rhs.c:314:31
	movsd	forcing+338032(%rax,%rcx,8), %xmm1 # xmm1 = mem[0],zero
	.loc	7 314 51 is_stmt 0      # exact_rhs.c:314:51
	subsd	%xmm12, %xmm1
	.loc	7 314 29                # exact_rhs.c:314:29
	movsd	%xmm1, forcing+338032(%rax,%rcx,8)
.Ltmp238:
	.loc	7 319 7 is_stmt 1 discriminator 1 # exact_rhs.c:319:7
	movslq	grid_points+8(%rip), %r12
	.loc	7 319 38 is_stmt 0 discriminator 1 # exact_rhs.c:319:38
	movq	%r12, %rcx
	addq	$-4, %rcx
.Ltmp239:
	#DEBUG_VALUE: exact_rhs:m <- 0
	.loc	7 319 21 discriminator 1 # exact_rhs.c:319:21
	cmpl	$3, %ecx
	movq	288(%rsp), %rbp         # 8-byte Reload
	jl	.LBB2_58
# BB#55:                                # %for.cond1935.preheader.lr.ph
                                        #   in Loop: Header=BB2_48 Depth=2
.Ltmp240:
	.loc	7 321 55 is_stmt 1      # exact_rhs.c:321:55
	movsd	dssp(%rip), %xmm12      # xmm12 = mem[0],zero
	.loc	7 323 33                # exact_rhs.c:323:33
	movapd	%xmm12, 32(%rsp)        # 16-byte Spill
	movlpd	ue+160(%rip), %xmm6     # xmm6 = mem[0],xmm6[1]
	.loc	7 323 18 is_stmt 0      # exact_rhs.c:323:18
	movlpd	ue+120(%rip), %xmm0     # xmm0 = mem[0],xmm0[1]
	movapd	48(%rsp), %xmm11        # 16-byte Reload
.Ltmp241:
	.loc	7 319 7 is_stmt 1 discriminator 1 # exact_rhs.c:319:7
	shufpd	$1, %xmm11, %xmm11      # xmm11 = xmm11[1,0]
	movapd	(%rsp), %xmm5           # 16-byte Reload
	shufpd	$1, %xmm5, %xmm5        # xmm5 = xmm5[1,0]
.Ltmp242:
	.loc	7 321 59                # exact_rhs.c:321:59
	movlhps	%xmm12, %xmm12          # xmm12 = xmm12[0,0]
	.loc	7 322 31                # exact_rhs.c:322:31
	movl	$ue+232, %edx
	movq	%rbp, %rsi
	movl	$2, %edi
.Ltmp243:
	.loc	7 312 30                # exact_rhs.c:312:30
	movapd	.LCPI2_6(%rip), %xmm13  # xmm13 = [4.000000e+00,4.000000e+00]
	.loc	7 315 33                # exact_rhs.c:315:33
	movapd	.LCPI2_7(%rip), %xmm10  # xmm10 = [6.000000e+00,6.000000e+00]
.Ltmp244:
	.p2align	4, 0x90
.LBB2_56:                               # %for.cond1935.preheader
                                        #   Parent Loop BB2_46 Depth=1
                                        #     Parent Loop BB2_48 Depth=2
                                        # =>    This Inner Loop Header: Depth=3
	.loc	7 322 25                # exact_rhs.c:322:25
	movsd	-192(%rdx), %xmm1       # xmm1 = mem[0],zero
	unpcklpd	%xmm11, %xmm1   # xmm1 = xmm1[0],xmm11[0]
	.loc	7 322 31 is_stmt 0      # exact_rhs.c:322:31
	movapd	%xmm5, %xmm11
	movapd	%xmm7, %xmm9
	.loc	7 321 33 is_stmt 1      # exact_rhs.c:321:33
	movupd	-32(%rsi), %xmm7
	.loc	7 322 30                # exact_rhs.c:322:30
	movsd	-152(%rdx), %xmm5       # xmm5 = mem[0],zero
	unpcklpd	%xmm11, %xmm5   # xmm5 = xmm5[0],xmm11[0]
	mulpd	%xmm13, %xmm5
	.loc	7 322 25 is_stmt 0      # exact_rhs.c:322:25
	subpd	%xmm5, %xmm1
	.loc	7 323 17 is_stmt 1      # exact_rhs.c:323:17
	movapd	%xmm0, %xmm5
	mulpd	%xmm10, %xmm5
	.loc	7 322 42                # exact_rhs.c:322:42
	addpd	%xmm1, %xmm5
	.loc	7 323 32                # exact_rhs.c:323:32
	movapd	%xmm6, %xmm1
	mulpd	%xmm13, %xmm1
	.loc	7 323 27 is_stmt 0      # exact_rhs.c:323:27
	subpd	%xmm1, %xmm5
	.loc	7 323 46                # exact_rhs.c:323:46
	movupd	-32(%rdx), %xmm1
	.loc	7 323 44                # exact_rhs.c:323:44
	movapd	%xmm1, (%rsp)           # 16-byte Spill
	addpd	%xmm1, %xmm5
	.loc	7 321 59 is_stmt 1      # exact_rhs.c:321:59
	mulpd	%xmm12, %xmm5
	.loc	7 321 53 is_stmt 0      # exact_rhs.c:321:53
	subpd	%xmm5, %xmm7
	.loc	7 321 31                # exact_rhs.c:321:31
	movupd	%xmm7, -32(%rsi)
	.loc	7 321 33                # exact_rhs.c:321:33
	movupd	-16(%rsi), %xmm5
	.loc	7 322 30 is_stmt 1      # exact_rhs.c:322:30
	movapd	%xmm14, %xmm1
	mulpd	%xmm13, %xmm1
	.loc	7 322 25 is_stmt 0      # exact_rhs.c:322:25
	subpd	%xmm1, %xmm4
	.loc	7 323 17 is_stmt 1      # exact_rhs.c:323:17
	movapd	%xmm15, %xmm7
	mulpd	%xmm10, %xmm7
	.loc	7 322 42                # exact_rhs.c:322:42
	addpd	%xmm4, %xmm7
	.loc	7 323 32                # exact_rhs.c:323:32
	movapd	%xmm2, %xmm1
	mulpd	%xmm13, %xmm1
	.loc	7 323 27 is_stmt 0      # exact_rhs.c:323:27
	subpd	%xmm1, %xmm7
	.loc	7 323 46                # exact_rhs.c:323:46
	movupd	-16(%rdx), %xmm1
	.loc	7 323 44                # exact_rhs.c:323:44
	addpd	%xmm1, %xmm7
	.loc	7 321 59 is_stmt 1      # exact_rhs.c:321:59
	mulpd	%xmm12, %xmm7
	.loc	7 321 53 is_stmt 0      # exact_rhs.c:321:53
	subpd	%xmm7, %xmm5
	.loc	7 321 31                # exact_rhs.c:321:31
	movupd	%xmm5, -16(%rsi)
	.loc	7 322 30 is_stmt 1      # exact_rhs.c:322:30
	movapd	%xmm9, %xmm4
	mulsd	%xmm8, %xmm4
	.loc	7 322 25 is_stmt 0      # exact_rhs.c:322:25
	subsd	%xmm4, %xmm3
	.loc	7 323 18 is_stmt 1      # exact_rhs.c:323:18
	movsd	-80(%rdx), %xmm7        # xmm7 = mem[0],zero
	.loc	7 323 17 is_stmt 0      # exact_rhs.c:323:17
	movapd	%xmm7, %xmm4
	mulsd	.LCPI2_4(%rip), %xmm4
	.loc	7 322 42 is_stmt 1      # exact_rhs.c:322:42
	addsd	%xmm3, %xmm4
	movsd	-40(%rdx), %xmm3        # xmm3 = mem[0],zero
	.loc	7 323 32                # exact_rhs.c:323:32
	mulsd	%xmm8, %xmm3
	.loc	7 323 27 is_stmt 0      # exact_rhs.c:323:27
	subsd	%xmm3, %xmm4
	.loc	7 321 33 is_stmt 1      # exact_rhs.c:321:33
	movsd	(%rsi), %xmm3           # xmm3 = mem[0],zero
	.loc	7 323 44                # exact_rhs.c:323:44
	addsd	(%rdx), %xmm4
	.loc	7 321 59                # exact_rhs.c:321:59
	mulsd	32(%rsp), %xmm4         # 16-byte Folded Reload
	.loc	7 321 53 is_stmt 0      # exact_rhs.c:321:53
	subsd	%xmm4, %xmm3
	.loc	7 321 31                # exact_rhs.c:321:31
	movsd	%xmm3, (%rsi)
.Ltmp245:
	#DEBUG_VALUE: exact_rhs:m <- 0
	.loc	7 319 7 is_stmt 1 discriminator 1 # exact_rhs.c:319:7
	shufpd	$1, %xmm0, %xmm0        # xmm0 = xmm0[1,0]
.Ltmp246:
	.loc	7 322 31                # exact_rhs.c:322:31
	movapd	%xmm0, %xmm5
	.loc	7 323 18                # exact_rhs.c:323:18
	movapd	%xmm6, %xmm0
	.loc	7 322 14                # exact_rhs.c:322:14
	movapd	%xmm14, %xmm4
	.loc	7 322 31 is_stmt 0      # exact_rhs.c:322:31
	movapd	%xmm15, %xmm14
	.loc	7 323 18 is_stmt 1      # exact_rhs.c:323:18
	movapd	%xmm2, %xmm15
.Ltmp247:
	.loc	7 319 21 discriminator 1 # exact_rhs.c:319:21
	incq	%rdi
	addq	$169000, %rsi           # imm = 0x29428
	addq	$40, %rdx
	cmpq	%rcx, %rdi
.Ltmp248:
	.loc	7 322 14                # exact_rhs.c:322:14
	movapd	%xmm9, %xmm3
	.loc	7 323 33                # exact_rhs.c:323:33
	movapd	(%rsp), %xmm6           # 16-byte Reload
	movapd	%xmm1, %xmm2
.Ltmp249:
	.loc	7 319 7 discriminator 1 # exact_rhs.c:319:7
	jl	.LBB2_56
.Ltmp250:
# BB#57:                                # %for.cond1994.preheader.loopexit
                                        #   in Loop: Header=BB2_48 Depth=2
	.loc	7 328 13                # exact_rhs.c:328:13
	movl	grid_points+8(%rip), %r12d
	movsd	.LCPI2_8(%rip), %xmm0   # xmm0 = mem[0],zero
	movapd	%xmm0, %xmm9
.LBB2_58:                               # %for.body1997
                                        #   in Loop: Header=BB2_48 Depth=2
	.loc	7 331 31                # exact_rhs.c:331:31
	movslq	%r12d, %rsi
	.loc	7 328 27                # exact_rhs.c:328:27
	imulq	$169000, %rsi, %rcx     # imm = 0x29428
	.loc	7 329 53                # exact_rhs.c:329:53
	movsd	dssp(%rip), %xmm0       # xmm0 = mem[0],zero
	.loc	7 330 33                # exact_rhs.c:330:33
	leaq	(,%rsi,8), %rdx
	.loc	7 329 31                # exact_rhs.c:329:31
	addq	%rax, %rcx
	leaq	(,%r15,8), %rax
	leaq	(%rax,%rax,4), %rax
	movsd	forcing-507000(%rcx,%rax), %xmm1 # xmm1 = mem[0],zero
	.loc	7 330 12                # exact_rhs.c:330:12
	movsd	ue-200(%rdx,%rdx,4), %xmm2 # xmm2 = mem[0],zero
	.loc	7 330 29 is_stmt 0      # exact_rhs.c:330:29
	movsd	ue-160(%rdx,%rdx,4), %xmm3 # xmm3 = mem[0],zero
	.loc	7 330 28                # exact_rhs.c:330:28
	movapd	%xmm3, %xmm4
	mulsd	%xmm8, %xmm4
	.loc	7 330 23                # exact_rhs.c:330:23
	subsd	%xmm4, %xmm2
	.loc	7 331 16 is_stmt 1      # exact_rhs.c:331:16
	movsd	ue-120(%rdx,%rdx,4), %xmm4 # xmm4 = mem[0],zero
	.loc	7 331 15 is_stmt 0      # exact_rhs.c:331:15
	movapd	%xmm4, %xmm5
	movsd	.LCPI2_4(%rip), %xmm7   # xmm7 = mem[0],zero
	mulsd	%xmm7, %xmm5
	.loc	7 330 40 is_stmt 1      # exact_rhs.c:330:40
	addsd	%xmm2, %xmm5
	.loc	7 331 31                # exact_rhs.c:331:31
	leaq	-16(,%rsi,8), %rsi
	movsd	ue(%rsi,%rsi,4), %xmm2  # xmm2 = mem[0],zero
	.loc	7 331 30 is_stmt 0      # exact_rhs.c:331:30
	movapd	%xmm2, %xmm6
	mulsd	%xmm8, %xmm6
	.loc	7 331 25                # exact_rhs.c:331:25
	subsd	%xmm6, %xmm5
	.loc	7 329 58 is_stmt 1      # exact_rhs.c:329:58
	mulsd	%xmm0, %xmm5
	.loc	7 329 51 is_stmt 0      # exact_rhs.c:329:51
	subsd	%xmm5, %xmm1
	.loc	7 329 29                # exact_rhs.c:329:29
	movsd	%xmm1, forcing-507000(%rcx,%rax)
	.loc	7 333 31 is_stmt 1      # exact_rhs.c:333:31
	movsd	forcing-338000(%rcx,%rax), %xmm1 # xmm1 = mem[0],zero
	.loc	7 334 28                # exact_rhs.c:334:28
	mulsd	%xmm8, %xmm4
	.loc	7 334 23 is_stmt 0      # exact_rhs.c:334:23
	subsd	%xmm4, %xmm3
	.loc	7 334 45                # exact_rhs.c:334:45
	mulsd	%xmm9, %xmm2
	.loc	7 334 40                # exact_rhs.c:334:40
	addsd	%xmm3, %xmm2
	.loc	7 333 58 is_stmt 1      # exact_rhs.c:333:58
	mulsd	%xmm0, %xmm2
	.loc	7 333 51 is_stmt 0      # exact_rhs.c:333:51
	subsd	%xmm2, %xmm1
	.loc	7 333 29                # exact_rhs.c:333:29
	movsd	%xmm1, forcing-338000(%rcx,%rax)
	.loc	7 329 31 is_stmt 1      # exact_rhs.c:329:31
	movsd	forcing-506992(%rcx,%rax), %xmm1 # xmm1 = mem[0],zero
	.loc	7 330 12                # exact_rhs.c:330:12
	movsd	ue-192(%rdx,%rdx,4), %xmm2 # xmm2 = mem[0],zero
	.loc	7 330 29 is_stmt 0      # exact_rhs.c:330:29
	movsd	ue-152(%rdx,%rdx,4), %xmm3 # xmm3 = mem[0],zero
	.loc	7 330 28                # exact_rhs.c:330:28
	movapd	%xmm3, %xmm4
	mulsd	%xmm8, %xmm4
	.loc	7 330 23                # exact_rhs.c:330:23
	subsd	%xmm4, %xmm2
	.loc	7 331 16 is_stmt 1      # exact_rhs.c:331:16
	movsd	ue-112(%rdx,%rdx,4), %xmm4 # xmm4 = mem[0],zero
	.loc	7 331 15 is_stmt 0      # exact_rhs.c:331:15
	movapd	%xmm4, %xmm5
	mulsd	%xmm7, %xmm5
	.loc	7 330 40 is_stmt 1      # exact_rhs.c:330:40
	addsd	%xmm2, %xmm5
	.loc	7 331 31                # exact_rhs.c:331:31
	movsd	ue+8(%rsi,%rsi,4), %xmm2 # xmm2 = mem[0],zero
	.loc	7 331 30 is_stmt 0      # exact_rhs.c:331:30
	movapd	%xmm2, %xmm6
	mulsd	%xmm8, %xmm6
	.loc	7 331 25                # exact_rhs.c:331:25
	subsd	%xmm6, %xmm5
	.loc	7 329 58 is_stmt 1      # exact_rhs.c:329:58
	mulsd	%xmm0, %xmm5
	.loc	7 329 51 is_stmt 0      # exact_rhs.c:329:51
	subsd	%xmm5, %xmm1
	.loc	7 329 29                # exact_rhs.c:329:29
	movsd	%xmm1, forcing-506992(%rcx,%rax)
	.loc	7 333 31 is_stmt 1      # exact_rhs.c:333:31
	movsd	forcing-337992(%rcx,%rax), %xmm1 # xmm1 = mem[0],zero
	.loc	7 334 28                # exact_rhs.c:334:28
	mulsd	%xmm8, %xmm4
	.loc	7 334 23 is_stmt 0      # exact_rhs.c:334:23
	subsd	%xmm4, %xmm3
	.loc	7 334 45                # exact_rhs.c:334:45
	mulsd	%xmm9, %xmm2
	.loc	7 334 40                # exact_rhs.c:334:40
	addsd	%xmm3, %xmm2
	.loc	7 333 58 is_stmt 1      # exact_rhs.c:333:58
	mulsd	%xmm0, %xmm2
	.loc	7 333 51 is_stmt 0      # exact_rhs.c:333:51
	subsd	%xmm2, %xmm1
	.loc	7 333 29                # exact_rhs.c:333:29
	movsd	%xmm1, forcing-337992(%rcx,%rax)
	.loc	7 329 31 is_stmt 1      # exact_rhs.c:329:31
	movsd	forcing-506984(%rcx,%rax), %xmm1 # xmm1 = mem[0],zero
	.loc	7 330 12                # exact_rhs.c:330:12
	movsd	ue-184(%rdx,%rdx,4), %xmm2 # xmm2 = mem[0],zero
	.loc	7 330 29 is_stmt 0      # exact_rhs.c:330:29
	movsd	ue-144(%rdx,%rdx,4), %xmm3 # xmm3 = mem[0],zero
	.loc	7 330 28                # exact_rhs.c:330:28
	movapd	%xmm3, %xmm4
	mulsd	%xmm8, %xmm4
	.loc	7 330 23                # exact_rhs.c:330:23
	subsd	%xmm4, %xmm2
	.loc	7 331 16 is_stmt 1      # exact_rhs.c:331:16
	movsd	ue-104(%rdx,%rdx,4), %xmm4 # xmm4 = mem[0],zero
	.loc	7 331 15 is_stmt 0      # exact_rhs.c:331:15
	movapd	%xmm4, %xmm5
	mulsd	%xmm7, %xmm5
	.loc	7 330 40 is_stmt 1      # exact_rhs.c:330:40
	addsd	%xmm2, %xmm5
	.loc	7 331 31                # exact_rhs.c:331:31
	movsd	ue+16(%rsi,%rsi,4), %xmm2 # xmm2 = mem[0],zero
	.loc	7 331 30 is_stmt 0      # exact_rhs.c:331:30
	movapd	%xmm2, %xmm6
	mulsd	%xmm8, %xmm6
	.loc	7 331 25                # exact_rhs.c:331:25
	subsd	%xmm6, %xmm5
	.loc	7 329 58 is_stmt 1      # exact_rhs.c:329:58
	mulsd	%xmm0, %xmm5
	.loc	7 329 51 is_stmt 0      # exact_rhs.c:329:51
	subsd	%xmm5, %xmm1
	.loc	7 329 29                # exact_rhs.c:329:29
	movsd	%xmm1, forcing-506984(%rcx,%rax)
	.loc	7 333 31 is_stmt 1      # exact_rhs.c:333:31
	movsd	forcing-337984(%rcx,%rax), %xmm1 # xmm1 = mem[0],zero
	.loc	7 334 28                # exact_rhs.c:334:28
	mulsd	%xmm8, %xmm4
	.loc	7 334 23 is_stmt 0      # exact_rhs.c:334:23
	subsd	%xmm4, %xmm3
	.loc	7 334 45                # exact_rhs.c:334:45
	mulsd	%xmm9, %xmm2
	.loc	7 334 40                # exact_rhs.c:334:40
	addsd	%xmm3, %xmm2
	.loc	7 333 58 is_stmt 1      # exact_rhs.c:333:58
	mulsd	%xmm0, %xmm2
	.loc	7 333 51 is_stmt 0      # exact_rhs.c:333:51
	subsd	%xmm2, %xmm1
	.loc	7 333 29                # exact_rhs.c:333:29
	movsd	%xmm1, forcing-337984(%rcx,%rax)
	.loc	7 329 31 is_stmt 1      # exact_rhs.c:329:31
	movsd	forcing-506976(%rcx,%rax), %xmm1 # xmm1 = mem[0],zero
	.loc	7 330 12                # exact_rhs.c:330:12
	movsd	ue-176(%rdx,%rdx,4), %xmm2 # xmm2 = mem[0],zero
	.loc	7 330 29 is_stmt 0      # exact_rhs.c:330:29
	movsd	ue-136(%rdx,%rdx,4), %xmm3 # xmm3 = mem[0],zero
	.loc	7 330 28                # exact_rhs.c:330:28
	movapd	%xmm3, %xmm4
	mulsd	%xmm8, %xmm4
	.loc	7 330 23                # exact_rhs.c:330:23
	subsd	%xmm4, %xmm2
	.loc	7 331 16 is_stmt 1      # exact_rhs.c:331:16
	movsd	ue-96(%rdx,%rdx,4), %xmm4 # xmm4 = mem[0],zero
	.loc	7 331 15 is_stmt 0      # exact_rhs.c:331:15
	movapd	%xmm4, %xmm5
	mulsd	%xmm7, %xmm5
	.loc	7 330 40 is_stmt 1      # exact_rhs.c:330:40
	addsd	%xmm2, %xmm5
	.loc	7 331 31                # exact_rhs.c:331:31
	movsd	ue+24(%rsi,%rsi,4), %xmm2 # xmm2 = mem[0],zero
	.loc	7 331 30 is_stmt 0      # exact_rhs.c:331:30
	movapd	%xmm2, %xmm6
	mulsd	%xmm8, %xmm6
	.loc	7 331 25                # exact_rhs.c:331:25
	subsd	%xmm6, %xmm5
	.loc	7 329 58 is_stmt 1      # exact_rhs.c:329:58
	mulsd	%xmm0, %xmm5
	.loc	7 329 51 is_stmt 0      # exact_rhs.c:329:51
	subsd	%xmm5, %xmm1
	.loc	7 329 29                # exact_rhs.c:329:29
	movsd	%xmm1, forcing-506976(%rcx,%rax)
	.loc	7 333 31 is_stmt 1      # exact_rhs.c:333:31
	movsd	forcing-337976(%rcx,%rax), %xmm1 # xmm1 = mem[0],zero
	.loc	7 334 28                # exact_rhs.c:334:28
	mulsd	%xmm8, %xmm4
	.loc	7 334 23 is_stmt 0      # exact_rhs.c:334:23
	subsd	%xmm4, %xmm3
	.loc	7 334 45                # exact_rhs.c:334:45
	mulsd	%xmm9, %xmm2
	.loc	7 334 40                # exact_rhs.c:334:40
	addsd	%xmm3, %xmm2
	.loc	7 333 58 is_stmt 1      # exact_rhs.c:333:58
	mulsd	%xmm0, %xmm2
	.loc	7 333 51 is_stmt 0      # exact_rhs.c:333:51
	subsd	%xmm2, %xmm1
	.loc	7 333 29                # exact_rhs.c:333:29
	movsd	%xmm1, forcing-337976(%rcx,%rax)
	.loc	7 329 31 is_stmt 1      # exact_rhs.c:329:31
	movsd	forcing-506968(%rcx,%rax), %xmm1 # xmm1 = mem[0],zero
	.loc	7 330 12                # exact_rhs.c:330:12
	movsd	ue-168(%rdx,%rdx,4), %xmm2 # xmm2 = mem[0],zero
	.loc	7 330 29 is_stmt 0      # exact_rhs.c:330:29
	movsd	ue-128(%rdx,%rdx,4), %xmm3 # xmm3 = mem[0],zero
	.loc	7 330 28                # exact_rhs.c:330:28
	movapd	%xmm3, %xmm4
	mulsd	%xmm8, %xmm4
	.loc	7 330 23                # exact_rhs.c:330:23
	subsd	%xmm4, %xmm2
	.loc	7 331 16 is_stmt 1      # exact_rhs.c:331:16
	movsd	ue-88(%rdx,%rdx,4), %xmm4 # xmm4 = mem[0],zero
	.loc	7 331 15 is_stmt 0      # exact_rhs.c:331:15
	movapd	%xmm4, %xmm5
	mulsd	%xmm7, %xmm5
	.loc	7 330 40 is_stmt 1      # exact_rhs.c:330:40
	addsd	%xmm2, %xmm5
	.loc	7 331 31                # exact_rhs.c:331:31
	movsd	ue+32(%rsi,%rsi,4), %xmm2 # xmm2 = mem[0],zero
	.loc	7 331 30 is_stmt 0      # exact_rhs.c:331:30
	movapd	%xmm2, %xmm6
	mulsd	%xmm8, %xmm6
	.loc	7 331 25                # exact_rhs.c:331:25
	subsd	%xmm6, %xmm5
	.loc	7 329 58 is_stmt 1      # exact_rhs.c:329:58
	mulsd	%xmm0, %xmm5
	.loc	7 329 51 is_stmt 0      # exact_rhs.c:329:51
	subsd	%xmm5, %xmm1
	.loc	7 329 29                # exact_rhs.c:329:29
	movsd	%xmm1, forcing-506968(%rcx,%rax)
	.loc	7 333 31 is_stmt 1      # exact_rhs.c:333:31
	movsd	forcing-337968(%rcx,%rax), %xmm1 # xmm1 = mem[0],zero
	.loc	7 334 28                # exact_rhs.c:334:28
	mulsd	%xmm8, %xmm4
	.loc	7 334 23 is_stmt 0      # exact_rhs.c:334:23
	subsd	%xmm4, %xmm3
	.loc	7 334 45                # exact_rhs.c:334:45
	mulsd	%xmm9, %xmm2
	.loc	7 334 40                # exact_rhs.c:334:40
	addsd	%xmm3, %xmm2
	.loc	7 333 58 is_stmt 1      # exact_rhs.c:333:58
	mulsd	%xmm0, %xmm2
	.loc	7 333 51 is_stmt 0      # exact_rhs.c:333:51
	subsd	%xmm2, %xmm1
	.loc	7 333 29                # exact_rhs.c:333:29
	movsd	%xmm1, forcing-337968(%rcx,%rax)
.Ltmp251:
	.loc	7 250 19 is_stmt 1 discriminator 1 # exact_rhs.c:250:19
	movslq	grid_points(%rip), %rax
	.loc	7 250 36 is_stmt 0 discriminator 1 # exact_rhs.c:250:36
	leaq	-2(%rax), %rcx
	.loc	7 250 5 discriminator 1 # exact_rhs.c:250:5
	addq	$40, %rbx
	addq	$40, %rbp
	.loc	7 250 19 discriminator 1 # exact_rhs.c:250:19
	cmpq	%rcx, %r15
	.loc	7 250 5 discriminator 1 # exact_rhs.c:250:5
	leaq	1(%r15), %r15
	movsd	16(%rsp), %xmm1         # 8-byte Reload
                                        # xmm1 = mem[0],zero
	jl	.LBB2_48
.Ltmp252:
# BB#59:                                # %for.inc2085.loopexit
                                        #   in Loop: Header=BB2_46 Depth=1
	.loc	7 248 20 is_stmt 1 discriminator 1 # exact_rhs.c:248:20
	movl	grid_points+4(%rip), %ebp
	movq	280(%rsp), %rdi         # 8-byte Reload
	movq	272(%rsp), %rcx         # 8-byte Reload
.LBB2_60:                               # %for.inc2085
                                        #   in Loop: Header=BB2_46 Depth=1
	.loc	7 248 34 is_stmt 0 discriminator 1 # exact_rhs.c:248:34
	leal	-2(%rbp), %edx
	.loc	7 248 17 discriminator 1 # exact_rhs.c:248:17
	movslq	%edx, %rdx
	.loc	7 248 3 discriminator 1 # exact_rhs.c:248:3
	addq	$2600, %rdi             # imm = 0xA28
	addq	$2600, %rcx             # imm = 0xA28
	movq	72(%rsp), %rsi          # 8-byte Reload
	.loc	7 248 17 discriminator 1 # exact_rhs.c:248:17
	cmpq	%rdx, %rsi
	.loc	7 248 3 discriminator 1 # exact_rhs.c:248:3
	leaq	1(%rsi), %rsi
	movq	%rsi, 72(%rsp)          # 8-byte Spill
	jl	.LBB2_46
.Ltmp253:
.LBB2_61:                               # %for.cond2088.preheader
	.loc	7 343 17 is_stmt 1 discriminator 1 # exact_rhs.c:343:17
	addl	$-2, %r12d
	jle	.LBB2_72
# BB#62:                                # %for.cond2093.preheader.lr.ph
.Ltmp254:
	.loc	7 344 19 discriminator 1 # exact_rhs.c:344:19
	addl	$-2, %ebp
	jle	.LBB2_72
# BB#63:                                # %for.cond2098.preheader.lr.ph.preheader
.Ltmp255:
	.loc	7 345 24 discriminator 1 # exact_rhs.c:345:24
	movl	grid_points(%rip), %r15d
	.loc	7 345 38 is_stmt 0 discriminator 1 # exact_rhs.c:345:38
	leal	-2(%r15), %r8d
.Ltmp256:
	.loc	7 347 40 is_stmt 1      # exact_rhs.c:347:40
	movslq	%ebp, %rdx
	movslq	%r12d, %r9
.Ltmp257:
	.loc	7 345 7 discriminator 1 # exact_rhs.c:345:7
	movl	%r15d, %edi
	andl	$1, %edi
	leal	-1(%r15), %r11d
	movl	$1, %r14d
	movl	$forcing+171672, %r10d
.Ltmp258:
	.loc	7 347 38                # exact_rhs.c:347:38
	movapd	.LCPI2_9(%rip), %xmm0   # xmm0 = [9223372036854775808,9223372036854775808]
	.p2align	4, 0x90
.LBB2_64:                               # %for.cond2098.preheader.lr.ph
                                        # =>This Loop Header: Depth=1
                                        #     Child Loop BB2_65 Depth 2
                                        #       Child Loop BB2_69 Depth 3
	testl	%r8d, %r8d
	movq	%r10, %rax
	movl	$1, %ecx
	jle	.LBB2_71
	.p2align	4, 0x90
.LBB2_65:                               # %for.cond2103.preheader.lr.ph
                                        #   Parent Loop BB2_64 Depth=1
                                        # =>  This Loop Header: Depth=2
                                        #       Child Loop BB2_69 Depth 3
	testl	%edi, %edi
	movl	$1, %esi
	je	.LBB2_67
# BB#66:                                # %for.cond2103.preheader.prol
                                        #   in Loop: Header=BB2_65 Depth=2
	.loc	7 347 40 is_stmt 0      # exact_rhs.c:347:40
	imulq	$2600, %rcx, %rsi       # imm = 0xA28
	imulq	$169000, %r14, %rbx     # imm = 0x29428
	movupd	forcing+40(%rbx,%rsi), %xmm1
	.loc	7 347 38                # exact_rhs.c:347:38
	xorpd	%xmm0, %xmm1
	.loc	7 347 31                # exact_rhs.c:347:31
	movupd	%xmm1, forcing+40(%rbx,%rsi)
	.loc	7 347 40                # exact_rhs.c:347:40
	movupd	forcing+56(%rbx,%rsi), %xmm1
	.loc	7 347 38                # exact_rhs.c:347:38
	xorpd	%xmm0, %xmm1
	.loc	7 347 31                # exact_rhs.c:347:31
	movupd	%xmm1, forcing+56(%rbx,%rsi)
	.loc	7 347 38                # exact_rhs.c:347:38
	movsd	forcing+72(%rbx,%rsi), %xmm1 # xmm1 = mem[0],zero
	xorpd	%xmm0, %xmm1
	.loc	7 347 31                # exact_rhs.c:347:31
	movlpd	%xmm1, forcing+72(%rbx,%rsi)
	movl	$2, %esi
.Ltmp259:
.LBB2_67:                               # %for.cond2103.preheader.lr.ph.split
                                        #   in Loop: Header=BB2_65 Depth=2
	cmpl	$3, %r15d
	je	.LBB2_70
# BB#68:                                # %for.cond2103.preheader.lr.ph.split.split
                                        #   in Loop: Header=BB2_65 Depth=2
	.loc	7 345 7 is_stmt 1 discriminator 1 # exact_rhs.c:345:7
	movl	%r11d, %ebp
	subl	%esi, %ebp
	shlq	$3, %rsi
	leaq	(%rsi,%rsi,4), %rbx
	movq	%rax, %rsi
	.p2align	4, 0x90
.LBB2_69:                               # %for.cond2103.preheader
                                        #   Parent Loop BB2_64 Depth=1
                                        #     Parent Loop BB2_65 Depth=2
                                        # =>    This Inner Loop Header: Depth=3
.Ltmp260:
	.loc	7 347 40                # exact_rhs.c:347:40
	movupd	-72(%rbx,%rsi), %xmm1
	.loc	7 347 38 is_stmt 0      # exact_rhs.c:347:38
	xorpd	%xmm0, %xmm1
	.loc	7 347 31                # exact_rhs.c:347:31
	movupd	%xmm1, -72(%rbx,%rsi)
	.loc	7 347 40                # exact_rhs.c:347:40
	movupd	-56(%rbx,%rsi), %xmm1
	.loc	7 347 38                # exact_rhs.c:347:38
	xorpd	%xmm0, %xmm1
	.loc	7 347 31                # exact_rhs.c:347:31
	movupd	%xmm1, -56(%rbx,%rsi)
	.loc	7 347 38                # exact_rhs.c:347:38
	movsd	-40(%rbx,%rsi), %xmm1   # xmm1 = mem[0],zero
	xorpd	%xmm0, %xmm1
	.loc	7 347 31                # exact_rhs.c:347:31
	movlpd	%xmm1, -40(%rbx,%rsi)
	.loc	7 347 40                # exact_rhs.c:347:40
	movupd	-32(%rbx,%rsi), %xmm1
	.loc	7 347 38                # exact_rhs.c:347:38
	xorpd	%xmm0, %xmm1
	.loc	7 347 31                # exact_rhs.c:347:31
	movupd	%xmm1, -32(%rbx,%rsi)
	.loc	7 347 40                # exact_rhs.c:347:40
	movupd	-16(%rbx,%rsi), %xmm1
	.loc	7 347 38                # exact_rhs.c:347:38
	xorpd	%xmm0, %xmm1
	.loc	7 347 31                # exact_rhs.c:347:31
	movupd	%xmm1, -16(%rbx,%rsi)
	.loc	7 347 38                # exact_rhs.c:347:38
	movsd	(%rbx,%rsi), %xmm1      # xmm1 = mem[0],zero
	xorpd	%xmm0, %xmm1
	.loc	7 347 31                # exact_rhs.c:347:31
	movlpd	%xmm1, (%rbx,%rsi)
.Ltmp261:
	.loc	7 345 7 is_stmt 1 discriminator 1 # exact_rhs.c:345:7
	addq	$80, %rsi
	addl	$-2, %ebp
	jne	.LBB2_69
.Ltmp262:
.LBB2_70:                               # %for.inc2130
                                        #   in Loop: Header=BB2_65 Depth=2
	.loc	7 344 5 discriminator 1 # exact_rhs.c:344:5
	addq	$2600, %rax             # imm = 0xA28
	.loc	7 344 19 is_stmt 0 discriminator 1 # exact_rhs.c:344:19
	cmpq	%rdx, %rcx
	.loc	7 344 5 discriminator 1 # exact_rhs.c:344:5
	leaq	1(%rcx), %rcx
	jl	.LBB2_65
.Ltmp263:
.LBB2_71:                               # %for.inc2133
                                        #   in Loop: Header=BB2_64 Depth=1
	.loc	7 343 3 is_stmt 1 discriminator 1 # exact_rhs.c:343:3
	addq	$169000, %r10           # imm = 0x29428
	.loc	7 343 17 is_stmt 0 discriminator 1 # exact_rhs.c:343:17
	cmpq	%r9, %r14
	.loc	7 343 3 discriminator 1 # exact_rhs.c:343:3
	leaq	1(%r14), %r14
	jl	.LBB2_64
.Ltmp264:
.LBB2_72:                               # %for.end2135
	.loc	7 352 1 is_stmt 1       # exact_rhs.c:352:1
	addq	$296, %rsp              # imm = 0x128
	popq	%rbx
	popq	%r12
	popq	%r13
	popq	%r14
	popq	%r15
	popq	%rbp
	retq
.Ltmp265:
.Lfunc_end2:
	.size	exact_rhs, .Lfunc_end2-exact_rhs
	.cfi_endproc

	.globl	exact_solution
	.p2align	4, 0x90
	.type	exact_solution,@function
exact_solution:                         # @exact_solution
.Lfunc_begin3:
	.file	8 "/home/norouzi/Desktop/software/benchmarks/NAS/NPB3.3-SER-C/SP/exact_solution.c"
	.loc	8 40 0                  # exact_solution.c:40:0
	.cfi_startproc
# BB#0:                                 # %entry
	#DEBUG_VALUE: exact_solution:xi <- %XMM0
	#DEBUG_VALUE: exact_solution:eta <- %XMM1
	#DEBUG_VALUE: exact_solution:zeta <- %XMM2
	#DEBUG_VALUE: exact_solution:dtemp <- %RDI
	movq	$-520, %rax             # imm = 0xFFFFFFFFFFFFFDF8
.Ltmp266:
	#DEBUG_VALUE: exact_solution:m <- 0
	.p2align	4, 0x90
.LBB3_1:                                # %for.body
                                        # =>This Inner Loop Header: Depth=1
	movsd	ce+600(%rax), %xmm3     # xmm3 = mem[0],zero
.Ltmp267:
	.loc	8 45 62 prologue_end    # exact_solution.c:45:62
	mulsd	%xmm0, %xmm3
	.loc	8 45 56 is_stmt 0       # exact_solution.c:45:56
	addsd	ce+576(%rax), %xmm3
	.loc	8 45 45                 # exact_solution.c:45:45
	mulsd	%xmm0, %xmm3
	.loc	8 45 39                 # exact_solution.c:45:39
	addsd	ce+552(%rax), %xmm3
	.loc	8 45 28                 # exact_solution.c:45:28
	mulsd	%xmm0, %xmm3
	.loc	8 45 22                 # exact_solution.c:45:22
	addsd	ce+528(%rax), %xmm3
	.loc	8 45 11                 # exact_solution.c:45:11
	mulsd	%xmm0, %xmm3
	.loc	8 44 25 is_stmt 1       # exact_solution.c:44:25
	addsd	ce+520(%rax), %xmm3
	movsd	ce+608(%rax), %xmm4     # xmm4 = mem[0],zero
	.loc	8 46 62                 # exact_solution.c:46:62
	mulsd	%xmm1, %xmm4
	.loc	8 46 56 is_stmt 0       # exact_solution.c:46:56
	addsd	ce+584(%rax), %xmm4
	.loc	8 46 45                 # exact_solution.c:46:45
	mulsd	%xmm1, %xmm4
	.loc	8 46 39                 # exact_solution.c:46:39
	addsd	ce+560(%rax), %xmm4
	.loc	8 46 28                 # exact_solution.c:46:28
	mulsd	%xmm1, %xmm4
	.loc	8 46 22                 # exact_solution.c:46:22
	addsd	ce+536(%rax), %xmm4
	.loc	8 46 11                 # exact_solution.c:46:11
	mulsd	%xmm1, %xmm4
	.loc	8 45 76 is_stmt 1       # exact_solution.c:45:76
	addsd	%xmm3, %xmm4
	movsd	ce+616(%rax), %xmm3     # xmm3 = mem[0],zero
	.loc	8 47 62                 # exact_solution.c:47:62
	mulsd	%xmm2, %xmm3
	.loc	8 47 56 is_stmt 0       # exact_solution.c:47:56
	addsd	ce+592(%rax), %xmm3
	.loc	8 47 45                 # exact_solution.c:47:45
	mulsd	%xmm2, %xmm3
	.loc	8 47 39                 # exact_solution.c:47:39
	addsd	ce+568(%rax), %xmm3
	.loc	8 47 28                 # exact_solution.c:47:28
	mulsd	%xmm2, %xmm3
	.loc	8 47 22                 # exact_solution.c:47:22
	addsd	ce+544(%rax), %xmm3
	.loc	8 47 11                 # exact_solution.c:47:11
	mulsd	%xmm2, %xmm3
	.loc	8 46 76 is_stmt 1       # exact_solution.c:46:76
	addsd	%xmm4, %xmm3
	.loc	8 44 14                 # exact_solution.c:44:14
	movsd	%xmm3, (%rdi)
.Ltmp268:
	.loc	8 43 3 discriminator 1  # exact_solution.c:43:3
	addq	$8, %rdi
	addq	$104, %rax
	jne	.LBB3_1
.Ltmp269:
# BB#2:                                 # %for.end
	.loc	8 49 1                  # exact_solution.c:49:1
	retq
.Ltmp270:
.Lfunc_end3:
	.size	exact_solution, .Lfunc_end3-exact_solution
	.cfi_endproc

	.section	.rodata.cst8,"aM",@progbits,8
	.p2align	3
.LCPI4_0:
	.quad	4607182418800017408     # double 1
	.text
	.globl	initialize
	.p2align	4, 0x90
	.type	initialize,@function
initialize:                             # @initialize
.Lfunc_begin4:
	.file	9 "/home/norouzi/Desktop/software/benchmarks/NAS/NPB3.3-SER-C/SP/initialize.c"
	.loc	9 41 0                  # initialize.c:41:0
	.cfi_startproc
# BB#0:                                 # %entry
	.loc	9 54 9 prologue_end     # initialize.c:54:9
	pushq	%rbp
.Ltmp271:
	.cfi_def_cfa_offset 16
	pushq	%r15
.Ltmp272:
	.cfi_def_cfa_offset 24
	pushq	%r14
.Ltmp273:
	.cfi_def_cfa_offset 32
	pushq	%r13
.Ltmp274:
	.cfi_def_cfa_offset 40
	pushq	%r12
.Ltmp275:
	.cfi_def_cfa_offset 48
	pushq	%rbx
.Ltmp276:
	.cfi_def_cfa_offset 56
	subq	$472, %rsp              # imm = 0x1D8
.Ltmp277:
	.cfi_def_cfa_offset 528
.Ltmp278:
	.cfi_offset %rbx, -56
.Ltmp279:
	.cfi_offset %r12, -48
.Ltmp280:
	.cfi_offset %r13, -40
.Ltmp281:
	.cfi_offset %r14, -32
.Ltmp282:
	.cfi_offset %r15, -24
.Ltmp283:
	.cfi_offset %rbp, -16
	movslq	grid_points+8(%rip), %r8
.Ltmp284:
	#DEBUG_VALUE: initialize:k <- 0
	.loc	9 66 20 discriminator 1 # initialize.c:66:20
	testq	%r8, %r8
	jle	.LBB4_44
.Ltmp285:
# BB#1:                                 # %for.cond1.preheader.lr.ph
	.loc	9 52 22 discriminator 1 # initialize.c:52:22
	movl	grid_points+4(%rip), %r11d
	.loc	9 52 5 is_stmt 0 discriminator 1 # initialize.c:52:5
	testl	%r11d, %r11d
	jle	.LBB4_6
# BB#2:                                 # %for.cond5.preheader.lr.ph.us.preheader
.Ltmp286:
	.loc	9 53 24 is_stmt 1 discriminator 1 # initialize.c:53:24
	movl	grid_points(%rip), %edi
	.loc	9 53 7 is_stmt 0 discriminator 1 # initialize.c:53:7
	movl	%edi, %r14d
	andl	$1, %r14d
	xorl	%r10d, %r10d
	movl	$u+40, %r9d
.Ltmp287:
	.loc	9 54 23 is_stmt 1       # initialize.c:54:23
	movabsq	$4607182418800017408, %rbx # imm = 0x3FF0000000000000
	.loc	9 56 23                 # initialize.c:56:23
	xorpd	%xmm0, %xmm0
	.p2align	4, 0x90
.LBB4_3:                                # %for.cond5.preheader.lr.ph.us
                                        # =>This Loop Header: Depth=1
                                        #     Child Loop BB4_59 Depth 2
                                        #       Child Loop BB4_63 Depth 3
	testl	%edi, %edi
	movq	%r9, %rsi
	movl	$0, %ebp
	jle	.LBB4_4
	.p2align	4, 0x90
.LBB4_59:                               # %for.body8.lr.ph.us.us
                                        #   Parent Loop BB4_3 Depth=1
                                        # =>  This Loop Header: Depth=2
                                        #       Child Loop BB4_63 Depth 3
	testl	%r14d, %r14d
	movl	$0, %eax
	je	.LBB4_61
# BB#60:                                # %for.body8.us.us.prol
                                        #   in Loop: Header=BB4_59 Depth=2
	.loc	9 54 9                  # initialize.c:54:9
	imulq	$2600, %rbp, %rax       # imm = 0xA28
	imulq	$169000, %r10, %rcx     # imm = 0x29428
	.loc	9 54 23 is_stmt 0       # initialize.c:54:23
	movq	%rbx, u(%rcx,%rax)
	.loc	9 56 23 is_stmt 1       # initialize.c:56:23
	movupd	%xmm0, u+8(%rcx,%rax)
	movq	$0, u+24(%rcx,%rax)
	.loc	9 58 23                 # initialize.c:58:23
	movq	%rbx, u+32(%rcx,%rax)
	movl	$1, %eax
.Ltmp288:
.LBB4_61:                               # %for.body8.lr.ph.us.us.split
                                        #   in Loop: Header=BB4_59 Depth=2
	cmpl	$1, %edi
	je	.LBB4_64
# BB#62:                                # %for.body8.lr.ph.us.us.split.split
                                        #   in Loop: Header=BB4_59 Depth=2
	.loc	9 53 7 discriminator 1  # initialize.c:53:7
	movl	%edi, %edx
	subl	%eax, %edx
	shlq	$3, %rax
	leaq	(%rax,%rax,4), %rcx
	movq	%rsi, %rax
	.p2align	4, 0x90
.LBB4_63:                               # %for.body8.us.us
                                        #   Parent Loop BB4_3 Depth=1
                                        #     Parent Loop BB4_59 Depth=2
                                        # =>    This Inner Loop Header: Depth=3
.Ltmp289:
	.loc	9 54 23                 # initialize.c:54:23
	movq	%rbx, -40(%rcx,%rax)
	.loc	9 56 23                 # initialize.c:56:23
	movupd	%xmm0, -32(%rcx,%rax)
	movq	$0, -16(%rcx,%rax)
	.loc	9 58 23                 # initialize.c:58:23
	movq	%rbx, -8(%rcx,%rax)
	.loc	9 54 23                 # initialize.c:54:23
	movq	%rbx, (%rcx,%rax)
	.loc	9 56 23                 # initialize.c:56:23
	movupd	%xmm0, 8(%rcx,%rax)
	movq	$0, 24(%rcx,%rax)
	.loc	9 58 23                 # initialize.c:58:23
	movq	%rbx, 32(%rcx,%rax)
.Ltmp290:
	.loc	9 53 7 discriminator 1  # initialize.c:53:7
	addq	$80, %rax
	addl	$-2, %edx
	jne	.LBB4_63
.Ltmp291:
.LBB4_64:                               # %for.cond5.for.inc42_crit_edge.us.us
                                        #   in Loop: Header=BB4_59 Depth=2
	.loc	9 52 5 discriminator 1  # initialize.c:52:5
	incq	%rbp
	addq	$2600, %rsi             # imm = 0xA28
	cmpl	%r11d, %ebp
	jne	.LBB4_59
.Ltmp292:
.LBB4_4:                                # %for.cond1.for.inc45_crit_edge.us
                                        #   in Loop: Header=BB4_3 Depth=1
	.loc	9 51 3 discriminator 1  # initialize.c:51:3
	incq	%r10
	addq	$169000, %r9            # imm = 0x29428
	.loc	9 51 17 is_stmt 0 discriminator 1 # initialize.c:51:17
	cmpq	%r8, %r10
	jl	.LBB4_3
.Ltmp293:
# BB#5:                                 # %for.cond48.preheader
	.loc	9 66 3 is_stmt 1 discriminator 1 # initialize.c:66:3
	testl	%r8d, %r8d
	jle	.LBB4_44
.LBB4_6:                                # %for.body51.preheader
.Ltmp294:
	.loc	9 68 22 discriminator 1 # initialize.c:68:22
	movl	grid_points+4(%rip), %r9d
.Ltmp295:
	.loc	9 89 26                 # initialize.c:89:26
	leaq	344(%rsp), %r12
.Ltmp296:
	.loc	9 80 43                 # initialize.c:80:43
	leaq	264(%rsp), %r13
	leaq	384(%rsp), %rbx
.Ltmp297:
	.loc	9 85 43                 # initialize.c:85:43
	leaq	304(%rsp), %rbp
	leaq	424(%rsp), %rsi
	xorl	%edx, %edx
	movl	$u+32, %eax
.Ltmp298:
	.loc	9 91 47                 # initialize.c:91:47
	movq	%rax, 56(%rsp)          # 8-byte Spill
	movsd	.LCPI4_0(%rip), %xmm0   # xmm0 = mem[0],zero
	leaq	224(%rsp), %rdi
.Ltmp299:
	.p2align	4, 0x90
.LBB4_7:                                # %for.body51
                                        # =>This Loop Header: Depth=1
                                        #     Child Loop BB4_9 Depth 2
                                        #       Child Loop BB4_11 Depth 3
	#DEBUG_VALUE: initialize:j <- 0
	.loc	9 68 5 discriminator 1  # initialize.c:68:5
	testl	%r9d, %r9d
	jle	.LBB4_15
.Ltmp300:
# BB#8:                                 # %for.body56.lr.ph
                                        #   in Loop: Header=BB4_7 Depth=1
	movq	%rsi, %r10
	movq	%r13, %r14
	movq	%r12, %r11
	.loc	9 67 12                 # initialize.c:67:12
	cvtsi2sdl	%edx, %xmm2
	movq	%rdx, 104(%rsp)         # 8-byte Spill
	.loc	9 67 22 is_stmt 0       # initialize.c:67:22
	mulsd	dnzm1(%rip), %xmm2
.Ltmp301:
	#DEBUG_VALUE: initialize:zeta <- %XMM2
	.loc	9 91 47 is_stmt 1       # initialize.c:91:47
	movapd	%xmm2, 64(%rsp)         # 16-byte Spill
	movapd	%xmm0, %xmm1
	subsd	%xmm2, %xmm1
.Ltmp302:
	.loc	9 70 24 discriminator 1 # initialize.c:70:24
	movapd	%xmm1, 160(%rsp)        # 16-byte Spill
	movl	grid_points(%rip), %eax
.Ltmp303:
	.loc	9 91 24                 # initialize.c:91:24
	movapd	%xmm2, %xmm3
	movlhps	%xmm3, %xmm3            # xmm3 = xmm3[0,0]
	.loc	9 91 54 is_stmt 0       # initialize.c:91:54
	movaps	%xmm3, 144(%rsp)        # 16-byte Spill
	movlhps	%xmm1, %xmm1            # xmm1 = xmm1[0,0]
	movaps	%xmm1, 128(%rsp)        # 16-byte Spill
	movq	56(%rsp), %rdx          # 8-byte Reload
	movq	%rdx, %rcx
	xorl	%esi, %esi
.Ltmp304:
	.p2align	4, 0x90
.LBB4_9:                                # %for.body56
                                        #   Parent Loop BB4_7 Depth=1
                                        # =>  This Loop Header: Depth=2
                                        #       Child Loop BB4_11 Depth 3
	#DEBUG_VALUE: initialize:i <- 0
	.loc	9 70 7 is_stmt 1 discriminator 1 # initialize.c:70:7
	testl	%eax, %eax
	jle	.LBB4_13
.Ltmp305:
# BB#10:                                # %for.body63.lr.ph
                                        #   in Loop: Header=BB4_9 Depth=2
	.loc	9 69 13                 # initialize.c:69:13
	xorps	%xmm1, %xmm1
	cvtsi2sdl	%esi, %xmm1
	movq	%rsi, 112(%rsp)         # 8-byte Spill
	.loc	9 69 23 is_stmt 0       # initialize.c:69:23
	mulsd	dnym1(%rip), %xmm1
.Ltmp306:
	#DEBUG_VALUE: initialize:eta <- %XMM1
	.loc	9 90 47 is_stmt 1       # initialize.c:90:47
	movapd	%xmm1, 80(%rsp)         # 16-byte Spill
	movapd	%xmm0, %xmm3
	subsd	%xmm1, %xmm3
	.loc	9 90 24 is_stmt 0       # initialize.c:90:24
	movapd	%xmm3, 208(%rsp)        # 16-byte Spill
	movapd	%xmm1, %xmm4
	movapd	%xmm1, %xmm7
.Ltmp307:
	#DEBUG_VALUE: initialize:eta <- %XMM7
	movlhps	%xmm4, %xmm4            # xmm4 = xmm4[0,0]
	movaps	%xmm4, 192(%rsp)        # 16-byte Spill
	.loc	9 90 54                 # initialize.c:90:54
	movlhps	%xmm3, %xmm3            # xmm3 = xmm3[0,0]
	movaps	%xmm3, 176(%rsp)        # 16-byte Spill
	movq	%rcx, %r14
	movq	%r14, 120(%rsp)         # 8-byte Spill
	xorl	%r15d, %r15d
	movq	%r10, %r12
.Ltmp308:
	.p2align	4, 0x90
.LBB4_11:                               # %for.body63
                                        #   Parent Loop BB4_7 Depth=1
                                        #     Parent Loop BB4_9 Depth=2
                                        # =>    This Inner Loop Header: Depth=3
	.loc	9 71 26 is_stmt 1       # initialize.c:71:26
	movsd	dnxm1(%rip), %xmm0      # xmm0 = mem[0],zero
.Ltmp309:
	#DEBUG_VALUE: initialize:Pxi <- 0.000000e+00
	#DEBUG_VALUE: initialize:ix <- 0
	.loc	9 75 11                 # initialize.c:75:11
	movsd	%xmm0, (%rsp)           # 8-byte Spill
	xorpd	%xmm0, %xmm0
	movapd	%xmm7, %xmm1
	movq	%rdi, %r13
	callq	exact_solution
.Ltmp310:
	.loc	9 91 47                 # initialize.c:91:47
	movsd	.LCPI4_0(%rip), %xmm0   # xmm0 = mem[0],zero
.Ltmp311:
	.loc	9 75 11                 # initialize.c:75:11
	movaps	80(%rsp), %xmm1         # 16-byte Reload
	movaps	64(%rsp), %xmm2         # 16-byte Reload
.Ltmp312:
	.loc	9 89 26                 # initialize.c:89:26
	leaq	344(%rsp), %rdi
.Ltmp313:
	.loc	9 75 11                 # initialize.c:75:11
	callq	exact_solution
.Ltmp314:
	.loc	9 71 14                 # initialize.c:71:14
	xorps	%xmm0, %xmm0
	cvtsi2sdl	%r15d, %xmm0
	.loc	9 71 24 is_stmt 0       # initialize.c:71:24
	mulsd	(%rsp), %xmm0           # 8-byte Folded Reload
.Ltmp315:
	#DEBUG_VALUE: initialize:Peta <- 0.000000e+00
	#DEBUG_VALUE: initialize:xi <- %XMM0
	.loc	9 80 11 is_stmt 1       # initialize.c:80:11
	movapd	%xmm0, (%rsp)           # 16-byte Spill
	xorps	%xmm1, %xmm1
.Ltmp316:
	#DEBUG_VALUE: initialize:xi <- [%RSP+0]
	movaps	64(%rsp), %xmm2         # 16-byte Reload
	.loc	9 80 43 is_stmt 0       # initialize.c:80:43
	leaq	264(%rsp), %rdi
	.loc	9 80 11                 # initialize.c:80:11
	callq	exact_solution
.Ltmp317:
	movaps	(%rsp), %xmm0           # 16-byte Reload
.Ltmp318:
	.loc	9 91 47 is_stmt 1       # initialize.c:91:47
	movsd	.LCPI4_0(%rip), %xmm1   # xmm1 = mem[0],zero
.Ltmp319:
	.loc	9 80 11                 # initialize.c:80:11
	movaps	64(%rsp), %xmm2         # 16-byte Reload
	movq	%rbx, %rdi
	callq	exact_solution
.Ltmp320:
	#DEBUG_VALUE: initialize:Pzeta <- 0.000000e+00
	.loc	9 85 11                 # initialize.c:85:11
	xorps	%xmm2, %xmm2
	movaps	(%rsp), %xmm0           # 16-byte Reload
	movaps	80(%rsp), %xmm1         # 16-byte Reload
	movq	%rbp, %rdi
	callq	exact_solution
	movaps	(%rsp), %xmm0           # 16-byte Reload
	movaps	80(%rsp), %xmm1         # 16-byte Reload
.Ltmp321:
	.loc	9 91 47                 # initialize.c:91:47
	movsd	.LCPI4_0(%rip), %xmm2   # xmm2 = mem[0],zero
.Ltmp322:
	.loc	9 85 11                 # initialize.c:85:11
	movq	%r12, %rdi
	callq	exact_solution
	movapd	128(%rsp), %xmm9        # 16-byte Reload
	movapd	144(%rsp), %xmm8        # 16-byte Reload
	movq	%r13, %rdi
.Ltmp323:
	.loc	9 91 47                 # initialize.c:91:47
	movsd	.LCPI4_0(%rip), %xmm0   # xmm0 = mem[0],zero
	movapd	(%rsp), %xmm1           # 16-byte Reload
.Ltmp324:
	#DEBUG_VALUE: initialize:xi <- %XMM1
	.loc	9 89 47                 # initialize.c:89:47
	subsd	%xmm1, %xmm0
	.loc	9 89 26 is_stmt 0       # initialize.c:89:26
	movupd	344(%rsp), %xmm3
	.loc	9 89 24                 # initialize.c:89:24
	movapd	%xmm1, %xmm2
	movapd	%xmm1, %xmm12
.Ltmp325:
	#DEBUG_VALUE: initialize:xi <- %XMM12
	movlhps	%xmm2, %xmm2            # xmm2 = xmm2[0,0]
	mulpd	%xmm2, %xmm3
	.loc	9 89 54                 # initialize.c:89:54
	movapd	%xmm0, %xmm1
	movlhps	%xmm1, %xmm1            # xmm1 = xmm1[0,0]
	movapd	224(%rsp), %xmm4
	mulpd	%xmm1, %xmm4
	.loc	9 89 41                 # initialize.c:89:41
	addpd	%xmm3, %xmm4
	movapd	384(%rsp), %xmm3
	movapd	192(%rsp), %xmm10       # 16-byte Reload
	.loc	9 90 24 is_stmt 1       # initialize.c:90:24
	mulpd	%xmm10, %xmm3
	.loc	9 90 56 is_stmt 0       # initialize.c:90:56
	movupd	264(%rsp), %xmm5
	movapd	176(%rsp), %xmm11       # 16-byte Reload
	.loc	9 90 54                 # initialize.c:90:54
	mulpd	%xmm11, %xmm5
	.loc	9 90 41                 # initialize.c:90:41
	addpd	%xmm3, %xmm5
	.loc	9 91 26 is_stmt 1       # initialize.c:91:26
	movupd	424(%rsp), %xmm3
	.loc	9 91 24 is_stmt 0       # initialize.c:91:24
	mulpd	%xmm8, %xmm3
	movapd	304(%rsp), %xmm6
	.loc	9 91 54                 # initialize.c:91:54
	mulpd	%xmm9, %xmm6
	.loc	9 91 41                 # initialize.c:91:41
	addpd	%xmm3, %xmm6
	.loc	9 93 31 is_stmt 1       # initialize.c:93:31
	movapd	%xmm4, %xmm3
	addpd	%xmm5, %xmm3
	.loc	9 93 38 is_stmt 0       # initialize.c:93:38
	addpd	%xmm6, %xmm3
	.loc	9 94 30 is_stmt 1       # initialize.c:94:30
	movapd	%xmm4, %xmm7
	mulpd	%xmm5, %xmm7
	.loc	9 93 46                 # initialize.c:93:46
	subpd	%xmm7, %xmm3
	.loc	9 94 41                 # initialize.c:94:41
	mulpd	%xmm6, %xmm4
	.loc	9 94 36 is_stmt 0       # initialize.c:94:36
	subpd	%xmm4, %xmm3
	.loc	9 94 54                 # initialize.c:94:54
	mulpd	%xmm6, %xmm5
	.loc	9 94 48                 # initialize.c:94:48
	subpd	%xmm5, %xmm3
	.loc	9 95 35 is_stmt 1       # initialize.c:95:35
	mulpd	%xmm6, %xmm7
	movapd	160(%rsp), %xmm6        # 16-byte Reload
	.loc	9 94 61                 # initialize.c:94:61
	addpd	%xmm3, %xmm7
	.loc	9 93 25                 # initialize.c:93:25
	movupd	%xmm7, -32(%r14)
	.loc	9 89 26                 # initialize.c:89:26
	movupd	360(%rsp), %xmm3
	.loc	9 89 24 is_stmt 0       # initialize.c:89:24
	mulpd	%xmm2, %xmm3
	.loc	9 89 54                 # initialize.c:89:54
	mulpd	240(%rsp), %xmm1
	.loc	9 89 41                 # initialize.c:89:41
	addpd	%xmm3, %xmm1
	movapd	400(%rsp), %xmm2
	.loc	9 90 24 is_stmt 1       # initialize.c:90:24
	mulpd	%xmm10, %xmm2
	.loc	9 90 56 is_stmt 0       # initialize.c:90:56
	movupd	280(%rsp), %xmm3
	.loc	9 90 54                 # initialize.c:90:54
	mulpd	%xmm11, %xmm3
	.loc	9 90 41                 # initialize.c:90:41
	addpd	%xmm2, %xmm3
	.loc	9 91 26 is_stmt 1       # initialize.c:91:26
	movupd	440(%rsp), %xmm2
	.loc	9 91 24 is_stmt 0       # initialize.c:91:24
	mulpd	%xmm8, %xmm2
	movapd	320(%rsp), %xmm4
	.loc	9 91 54                 # initialize.c:91:54
	mulpd	%xmm9, %xmm4
	.loc	9 91 41                 # initialize.c:91:41
	addpd	%xmm2, %xmm4
	.loc	9 93 31 is_stmt 1       # initialize.c:93:31
	movapd	%xmm1, %xmm2
	addpd	%xmm3, %xmm2
	.loc	9 93 38 is_stmt 0       # initialize.c:93:38
	addpd	%xmm4, %xmm2
	.loc	9 94 30 is_stmt 1       # initialize.c:94:30
	movapd	%xmm1, %xmm5
	mulpd	%xmm3, %xmm5
	.loc	9 93 46                 # initialize.c:93:46
	subpd	%xmm5, %xmm2
	.loc	9 94 41                 # initialize.c:94:41
	mulpd	%xmm4, %xmm1
	.loc	9 94 36 is_stmt 0       # initialize.c:94:36
	subpd	%xmm1, %xmm2
	.loc	9 94 54                 # initialize.c:94:54
	mulpd	%xmm4, %xmm3
	.loc	9 94 48                 # initialize.c:94:48
	subpd	%xmm3, %xmm2
	.loc	9 95 35 is_stmt 1       # initialize.c:95:35
	mulpd	%xmm4, %xmm5
	.loc	9 94 61                 # initialize.c:94:61
	addpd	%xmm2, %xmm5
	.loc	9 93 25                 # initialize.c:93:25
	movupd	%xmm5, -16(%r14)
	movapd	64(%rsp), %xmm2         # 16-byte Reload
	.loc	9 89 24                 # initialize.c:89:24
	mulsd	376(%rsp), %xmm12
.Ltmp326:
	.loc	9 89 54 is_stmt 0       # initialize.c:89:54
	mulsd	256(%rsp), %xmm0
	.loc	9 89 41                 # initialize.c:89:41
	addsd	%xmm12, %xmm0
	movsd	416(%rsp), %xmm1        # xmm1 = mem[0],zero
	movapd	80(%rsp), %xmm3         # 16-byte Reload
	.loc	9 90 24 is_stmt 1       # initialize.c:90:24
	mulsd	%xmm3, %xmm1
	movapd	%xmm3, %xmm7
	movsd	296(%rsp), %xmm5        # xmm5 = mem[0],zero
	.loc	9 90 54 is_stmt 0       # initialize.c:90:54
	mulsd	208(%rsp), %xmm5        # 16-byte Folded Reload
	.loc	9 90 41                 # initialize.c:90:41
	addsd	%xmm1, %xmm5
	movsd	456(%rsp), %xmm1        # xmm1 = mem[0],zero
	.loc	9 91 24 is_stmt 1       # initialize.c:91:24
	mulsd	%xmm2, %xmm1
	movsd	336(%rsp), %xmm3        # xmm3 = mem[0],zero
	.loc	9 91 54 is_stmt 0       # initialize.c:91:54
	mulsd	%xmm6, %xmm3
	.loc	9 91 41                 # initialize.c:91:41
	addsd	%xmm1, %xmm3
	.loc	9 93 31 is_stmt 1       # initialize.c:93:31
	movapd	%xmm0, %xmm1
	addsd	%xmm5, %xmm1
	.loc	9 93 38 is_stmt 0       # initialize.c:93:38
	addsd	%xmm3, %xmm1
	.loc	9 94 30 is_stmt 1       # initialize.c:94:30
	movapd	%xmm0, %xmm4
	mulsd	%xmm5, %xmm4
	.loc	9 93 46                 # initialize.c:93:46
	subsd	%xmm4, %xmm1
	.loc	9 94 41                 # initialize.c:94:41
	mulsd	%xmm3, %xmm0
	.loc	9 94 36 is_stmt 0       # initialize.c:94:36
	subsd	%xmm0, %xmm1
	.loc	9 94 54                 # initialize.c:94:54
	mulsd	%xmm3, %xmm5
	.loc	9 94 48                 # initialize.c:94:48
	subsd	%xmm5, %xmm1
	.loc	9 95 35 is_stmt 1       # initialize.c:95:35
	mulsd	%xmm3, %xmm4
	.loc	9 94 61                 # initialize.c:94:61
	addsd	%xmm1, %xmm4
	.loc	9 93 25                 # initialize.c:93:25
	movsd	%xmm4, (%r14)
.Ltmp327:
	.loc	9 70 7 discriminator 1  # initialize.c:70:7
	incq	%r15
	.loc	9 70 21 is_stmt 0 discriminator 1 # initialize.c:70:21
	movslq	grid_points(%rip), %rax
	addq	$40, %r14
	cmpq	%rax, %r15
	.loc	9 70 7 discriminator 1  # initialize.c:70:7
	jl	.LBB4_11
# BB#12:                                # %for.inc166.loopexit
                                        #   in Loop: Header=BB4_9 Depth=2
	movq	%r12, %r10
.Ltmp328:
	.loc	9 80 43 is_stmt 1       # initialize.c:80:43
	leaq	264(%rsp), %r14
.Ltmp329:
	.loc	9 89 26                 # initialize.c:89:26
	leaq	344(%rsp), %r11
.Ltmp330:
	.loc	9 68 22 discriminator 1 # initialize.c:68:22
	movl	grid_points+4(%rip), %r9d
.Ltmp331:
	.loc	9 91 47                 # initialize.c:91:47
	movsd	.LCPI4_0(%rip), %xmm0   # xmm0 = mem[0],zero
	movq	120(%rsp), %rcx         # 8-byte Reload
	movq	112(%rsp), %rsi         # 8-byte Reload
.Ltmp332:
.LBB4_13:                               # %for.inc166
                                        #   in Loop: Header=BB4_9 Depth=2
	.loc	9 68 5 discriminator 1  # initialize.c:68:5
	incq	%rsi
	.loc	9 68 19 is_stmt 0 discriminator 1 # initialize.c:68:19
	movslq	%r9d, %rdx
	.loc	9 68 5 discriminator 1  # initialize.c:68:5
	addq	$2600, %rcx             # imm = 0xA28
	.loc	9 68 19 discriminator 1 # initialize.c:68:19
	cmpq	%rdx, %rsi
	jl	.LBB4_9
.Ltmp333:
# BB#14:                                # %for.inc169.loopexit
                                        #   in Loop: Header=BB4_7 Depth=1
	.loc	9 66 20 is_stmt 1 discriminator 1 # initialize.c:66:20
	movl	grid_points+8(%rip), %r8d
	movq	%r11, %r12
	movq	%r14, %r13
	movq	%r10, %rsi
	movq	104(%rsp), %rdx         # 8-byte Reload
.LBB4_15:                               # %for.inc169
                                        #   in Loop: Header=BB4_7 Depth=1
	.loc	9 66 3 is_stmt 0 discriminator 1 # initialize.c:66:3
	incq	%rdx
	.loc	9 66 17 discriminator 1 # initialize.c:66:17
	movslq	%r8d, %rax
	.loc	9 66 3 discriminator 1  # initialize.c:66:3
	addq	$169000, 56(%rsp)       # 8-byte Folded Spill
                                        # imm = 0x29428
	.loc	9 66 17 discriminator 1 # initialize.c:66:17
	cmpq	%rax, %rdx
	jl	.LBB4_7
.Ltmp334:
# BB#16:                                # %for.cond172.preheader
	.loc	9 111 3 is_stmt 1 discriminator 1 # initialize.c:111:3
	testl	%r8d, %r8d
	jle	.LBB4_44
# BB#17:                                # %for.body176.lr.ph
	movl	$u, %r14d
	xorl	%r15d, %r15d
.Ltmp335:
	.loc	9 113 22 discriminator 1 # initialize.c:113:22
	movl	grid_points+4(%rip), %eax
	leaq	16(%rsp), %r12
	.p2align	4, 0x90
.LBB4_18:                               # %for.body176
                                        # =>This Loop Header: Depth=1
                                        #     Child Loop BB4_20 Depth 2
	#DEBUG_VALUE: initialize:j <- 0
	.loc	9 113 5 is_stmt 0 discriminator 1 # initialize.c:113:5
	testl	%eax, %eax
	jle	.LBB4_22
.Ltmp336:
# BB#19:                                #   in Loop: Header=BB4_18 Depth=1
	.loc	9 112 12 is_stmt 1      # initialize.c:112:12
	cvtsi2sdl	%r15d, %xmm0
	.loc	9 112 22 is_stmt 0      # initialize.c:112:22
	mulsd	dnzm1(%rip), %xmm0
.Ltmp337:
	#DEBUG_VALUE: initialize:zeta <- %XMM0
	movsd	%xmm0, (%rsp)           # 8-byte Spill
.Ltmp338:
	#DEBUG_VALUE: initialize:zeta <- [%RSP+0]
	movq	%r14, %rbp
	xorl	%ebx, %ebx
.Ltmp339:
	.p2align	4, 0x90
.LBB4_20:                               # %for.body183
                                        #   Parent Loop BB4_18 Depth=1
                                        # =>  This Inner Loop Header: Depth=2
	.loc	9 114 13 is_stmt 1      # initialize.c:114:13
	xorps	%xmm1, %xmm1
	cvtsi2sdl	%ebx, %xmm1
	.loc	9 114 23 is_stmt 0      # initialize.c:114:23
	mulsd	dnym1(%rip), %xmm1
.Ltmp340:
	#DEBUG_VALUE: initialize:eta <- %XMM1
	.loc	9 115 7 is_stmt 1       # initialize.c:115:7
	xorpd	%xmm0, %xmm0
	movsd	(%rsp), %xmm2           # 8-byte Reload
                                        # xmm2 = mem[0],zero
	movq	%r12, %rdi
	callq	exact_solution
.Ltmp341:
	#DEBUG_VALUE: initialize:m <- 0
	.loc	9 117 23                # initialize.c:117:23
	movq	48(%rsp), %rax
	movq	%rax, 32(%rbp)
	movapd	16(%rsp), %xmm0
	movaps	32(%rsp), %xmm1
.Ltmp342:
	movups	%xmm1, 16(%rbp)
	movupd	%xmm0, (%rbp)
.Ltmp343:
	.loc	9 113 41 discriminator 2 # initialize.c:113:41
	incl	%ebx
.Ltmp344:
	#DEBUG_VALUE: initialize:j <- %EBX
	.loc	9 113 22 is_stmt 0 discriminator 1 # initialize.c:113:22
	movl	grid_points+4(%rip), %eax
	.loc	9 113 19 discriminator 1 # initialize.c:113:19
	addq	$2600, %rbp             # imm = 0xA28
	cmpl	%eax, %ebx
	.loc	9 113 5 discriminator 1 # initialize.c:113:5
	jl	.LBB4_20
.Ltmp345:
# BB#21:                                # %for.inc206.loopexit
                                        #   in Loop: Header=BB4_18 Depth=1
	#DEBUG_VALUE: initialize:j <- %EBX
	.loc	9 111 20 is_stmt 1 discriminator 1 # initialize.c:111:20
	movl	grid_points+8(%rip), %r8d
.Ltmp346:
.LBB4_22:                               # %for.inc206
                                        #   in Loop: Header=BB4_18 Depth=1
	.loc	9 111 39 is_stmt 0 discriminator 2 # initialize.c:111:39
	incl	%r15d
.Ltmp347:
	#DEBUG_VALUE: initialize:k <- %R15D
	.loc	9 111 3 discriminator 1 # initialize.c:111:3
	addq	$169000, %r14           # imm = 0x29428
	.loc	9 111 17 discriminator 1 # initialize.c:111:17
	cmpl	%r8d, %r15d
	jl	.LBB4_18
.Ltmp348:
# BB#23:                                # %for.end208
	#DEBUG_VALUE: initialize:k <- %R15D
	#DEBUG_VALUE: initialize:k <- 0
	#DEBUG_VALUE: initialize:xi <- 1.000000e+00
	.loc	9 127 3 is_stmt 1 discriminator 1 # initialize.c:127:3
	testl	%r8d, %r8d
	jle	.LBB4_44
# BB#24:                                # %for.body214.lr.ph
.Ltmp349:
	.loc	9 133 9                 # initialize.c:133:9
	movslq	grid_points(%rip), %rax
.Ltmp350:
	.loc	9 126 22                # initialize.c:126:22
	leaq	(%rax,%rax,4), %rcx
.Ltmp351:
	.loc	9 129 22 discriminator 1 # initialize.c:129:22
	movl	grid_points+4(%rip), %eax
.Ltmp352:
	.loc	9 127 3 discriminator 1 # initialize.c:127:3
	leaq	u-40(,%rcx,8), %r14
	xorl	%r15d, %r15d
	leaq	16(%rsp), %r12
	.p2align	4, 0x90
.LBB4_25:                               # %for.body214
                                        # =>This Loop Header: Depth=1
                                        #     Child Loop BB4_27 Depth 2
.Ltmp353:
	#DEBUG_VALUE: initialize:j <- 0
	.loc	9 129 5 discriminator 1 # initialize.c:129:5
	testl	%eax, %eax
	jle	.LBB4_29
.Ltmp354:
# BB#26:                                #   in Loop: Header=BB4_25 Depth=1
	.loc	9 128 12                # initialize.c:128:12
	cvtsi2sdl	%r15d, %xmm0
	.loc	9 128 22 is_stmt 0      # initialize.c:128:22
	mulsd	dnzm1(%rip), %xmm0
.Ltmp355:
	#DEBUG_VALUE: initialize:zeta <- %XMM0
	movsd	%xmm0, (%rsp)           # 8-byte Spill
.Ltmp356:
	#DEBUG_VALUE: initialize:zeta <- [%RSP+0]
	movq	%r14, %rbp
	xorl	%ebx, %ebx
.Ltmp357:
	.p2align	4, 0x90
.LBB4_27:                               # %for.body221
                                        #   Parent Loop BB4_25 Depth=1
                                        # =>  This Inner Loop Header: Depth=2
	.loc	9 130 13 is_stmt 1      # initialize.c:130:13
	xorps	%xmm1, %xmm1
	cvtsi2sdl	%ebx, %xmm1
	.loc	9 130 23 is_stmt 0      # initialize.c:130:23
	mulsd	dnym1(%rip), %xmm1
.Ltmp358:
	#DEBUG_VALUE: initialize:eta <- %XMM1
	.loc	9 131 7 is_stmt 1       # initialize.c:131:7
	movsd	.LCPI4_0(%rip), %xmm0   # xmm0 = mem[0],zero
	movsd	(%rsp), %xmm2           # 8-byte Reload
                                        # xmm2 = mem[0],zero
	movq	%r12, %rdi
	callq	exact_solution
	#DEBUG_VALUE: initialize:m <- 0
.Ltmp359:
	.loc	9 133 23                # initialize.c:133:23
	movq	48(%rsp), %rax
	movq	%rax, 32(%rbp)
	movapd	16(%rsp), %xmm0
	movaps	32(%rsp), %xmm1
.Ltmp360:
	movups	%xmm1, 16(%rbp)
	movupd	%xmm0, (%rbp)
.Ltmp361:
	.loc	9 129 41 discriminator 2 # initialize.c:129:41
	incl	%ebx
.Ltmp362:
	#DEBUG_VALUE: initialize:j <- %EBX
	.loc	9 129 22 is_stmt 0 discriminator 1 # initialize.c:129:22
	movl	grid_points+4(%rip), %eax
	.loc	9 129 19 discriminator 1 # initialize.c:129:19
	addq	$2600, %rbp             # imm = 0xA28
	cmpl	%eax, %ebx
	.loc	9 129 5 discriminator 1 # initialize.c:129:5
	jl	.LBB4_27
.Ltmp363:
# BB#28:                                # %for.inc245.loopexit
                                        #   in Loop: Header=BB4_25 Depth=1
	#DEBUG_VALUE: initialize:j <- %EBX
	.loc	9 127 20 is_stmt 1 discriminator 1 # initialize.c:127:20
	movl	grid_points+8(%rip), %r8d
.Ltmp364:
.LBB4_29:                               # %for.inc245
                                        #   in Loop: Header=BB4_25 Depth=1
	.loc	9 127 39 is_stmt 0 discriminator 2 # initialize.c:127:39
	incl	%r15d
.Ltmp365:
	#DEBUG_VALUE: initialize:k <- %R15D
	.loc	9 127 3 discriminator 1 # initialize.c:127:3
	addq	$169000, %r14           # imm = 0x29428
	.loc	9 127 17 discriminator 1 # initialize.c:127:17
	cmpl	%r8d, %r15d
	jl	.LBB4_25
.Ltmp366:
# BB#30:                                # %for.cond248.preheader
	#DEBUG_VALUE: initialize:k <- %R15D
	.loc	9 143 3 is_stmt 1 discriminator 1 # initialize.c:143:3
	testl	%r8d, %r8d
	jle	.LBB4_44
.Ltmp367:
# BB#31:                                # %for.body252.lr.ph
	#DEBUG_VALUE: initialize:k <- %R15D
	movl	$u, %r14d
	xorl	%r15d, %r15d
.Ltmp368:
	.loc	9 145 22 discriminator 1 # initialize.c:145:22
	movl	grid_points(%rip), %eax
	leaq	16(%rsp), %r12
	.p2align	4, 0x90
.LBB4_32:                               # %for.body252
                                        # =>This Loop Header: Depth=1
                                        #     Child Loop BB4_34 Depth 2
	#DEBUG_VALUE: initialize:i <- 0
	.loc	9 145 5 is_stmt 0 discriminator 1 # initialize.c:145:5
	testl	%eax, %eax
	jle	.LBB4_36
.Ltmp369:
# BB#33:                                #   in Loop: Header=BB4_32 Depth=1
	.loc	9 144 12 is_stmt 1      # initialize.c:144:12
	cvtsi2sdl	%r15d, %xmm0
	.loc	9 144 22 is_stmt 0      # initialize.c:144:22
	mulsd	dnzm1(%rip), %xmm0
.Ltmp370:
	#DEBUG_VALUE: initialize:zeta <- %XMM0
	movsd	%xmm0, (%rsp)           # 8-byte Spill
.Ltmp371:
	#DEBUG_VALUE: initialize:zeta <- [%RSP+0]
	movq	%r14, %rbp
	xorl	%ebx, %ebx
.Ltmp372:
	.p2align	4, 0x90
.LBB4_34:                               # %for.body259
                                        #   Parent Loop BB4_32 Depth=1
                                        # =>  This Inner Loop Header: Depth=2
	.loc	9 146 12 is_stmt 1      # initialize.c:146:12
	xorps	%xmm0, %xmm0
	cvtsi2sdl	%ebx, %xmm0
	.loc	9 146 22 is_stmt 0      # initialize.c:146:22
	mulsd	dnxm1(%rip), %xmm0
.Ltmp373:
	#DEBUG_VALUE: initialize:xi <- %XMM0
	.loc	9 147 7 is_stmt 1       # initialize.c:147:7
	xorps	%xmm1, %xmm1
	movsd	(%rsp), %xmm2           # 8-byte Reload
                                        # xmm2 = mem[0],zero
	movq	%r12, %rdi
	callq	exact_solution
	#DEBUG_VALUE: initialize:m <- 0
.Ltmp374:
	.loc	9 149 23                # initialize.c:149:23
	movq	48(%rsp), %rax
	movq	%rax, 32(%rbp)
	movapd	16(%rsp), %xmm0
.Ltmp375:
	movaps	32(%rsp), %xmm1
	movups	%xmm1, 16(%rbp)
	movupd	%xmm0, (%rbp)
.Ltmp376:
	.loc	9 145 41 discriminator 2 # initialize.c:145:41
	incl	%ebx
.Ltmp377:
	#DEBUG_VALUE: initialize:i <- %EBX
	.loc	9 145 22 is_stmt 0 discriminator 1 # initialize.c:145:22
	movl	grid_points(%rip), %eax
	.loc	9 145 19 discriminator 1 # initialize.c:145:19
	addq	$40, %rbp
	cmpl	%eax, %ebx
	.loc	9 145 5 discriminator 1 # initialize.c:145:5
	jl	.LBB4_34
.Ltmp378:
# BB#35:                                # %for.inc283.loopexit
                                        #   in Loop: Header=BB4_32 Depth=1
	#DEBUG_VALUE: initialize:i <- %EBX
	.loc	9 143 20 is_stmt 1 discriminator 1 # initialize.c:143:20
	movl	grid_points+8(%rip), %r8d
.Ltmp379:
.LBB4_36:                               # %for.inc283
                                        #   in Loop: Header=BB4_32 Depth=1
	.loc	9 143 39 is_stmt 0 discriminator 2 # initialize.c:143:39
	incl	%r15d
.Ltmp380:
	#DEBUG_VALUE: initialize:k <- %R15D
	.loc	9 143 3 discriminator 1 # initialize.c:143:3
	addq	$169000, %r14           # imm = 0x29428
	.loc	9 143 17 discriminator 1 # initialize.c:143:17
	cmpl	%r8d, %r15d
	jl	.LBB4_32
.Ltmp381:
# BB#37:                                # %for.end285
	#DEBUG_VALUE: initialize:k <- %R15D
	#DEBUG_VALUE: initialize:k <- 0
	#DEBUG_VALUE: initialize:eta <- 1.000000e+00
	.loc	9 159 3 is_stmt 1 discriminator 1 # initialize.c:159:3
	testl	%r8d, %r8d
	jle	.LBB4_44
# BB#38:                                # %for.body291.lr.ph
.Ltmp382:
	.loc	9 165 9                 # initialize.c:165:9
	movslq	grid_points+4(%rip), %rax
.Ltmp383:
	.loc	9 158 23                # initialize.c:158:23
	imulq	$2600, %rax, %rcx       # imm = 0xA28
.Ltmp384:
	.loc	9 161 22 discriminator 1 # initialize.c:161:22
	movl	grid_points(%rip), %eax
.Ltmp385:
	.loc	9 159 3 discriminator 1 # initialize.c:159:3
	leaq	u-2600(%rcx), %r14
	xorl	%r15d, %r15d
	leaq	16(%rsp), %r12
	.p2align	4, 0x90
.LBB4_39:                               # %for.body291
                                        # =>This Loop Header: Depth=1
                                        #     Child Loop BB4_41 Depth 2
.Ltmp386:
	#DEBUG_VALUE: initialize:i <- 0
	.loc	9 161 5 discriminator 1 # initialize.c:161:5
	testl	%eax, %eax
	jle	.LBB4_43
.Ltmp387:
# BB#40:                                #   in Loop: Header=BB4_39 Depth=1
	.loc	9 160 12                # initialize.c:160:12
	cvtsi2sdl	%r15d, %xmm0
	.loc	9 160 22 is_stmt 0      # initialize.c:160:22
	mulsd	dnzm1(%rip), %xmm0
.Ltmp388:
	#DEBUG_VALUE: initialize:zeta <- %XMM0
	movsd	%xmm0, (%rsp)           # 8-byte Spill
.Ltmp389:
	#DEBUG_VALUE: initialize:zeta <- [%RSP+0]
	movq	%r14, %rbp
	xorl	%ebx, %ebx
.Ltmp390:
	.p2align	4, 0x90
.LBB4_41:                               # %for.body298
                                        #   Parent Loop BB4_39 Depth=1
                                        # =>  This Inner Loop Header: Depth=2
	.loc	9 162 12 is_stmt 1      # initialize.c:162:12
	xorps	%xmm0, %xmm0
	cvtsi2sdl	%ebx, %xmm0
	.loc	9 162 22 is_stmt 0      # initialize.c:162:22
	mulsd	dnxm1(%rip), %xmm0
.Ltmp391:
	#DEBUG_VALUE: initialize:xi <- %XMM0
	.loc	9 163 7 is_stmt 1       # initialize.c:163:7
	movsd	.LCPI4_0(%rip), %xmm1   # xmm1 = mem[0],zero
	movsd	(%rsp), %xmm2           # 8-byte Reload
                                        # xmm2 = mem[0],zero
	movq	%r12, %rdi
	callq	exact_solution
	#DEBUG_VALUE: initialize:m <- 0
.Ltmp392:
	.loc	9 165 23                # initialize.c:165:23
	movq	48(%rsp), %rax
	movq	%rax, 32(%rbp)
	movapd	16(%rsp), %xmm0
.Ltmp393:
	movaps	32(%rsp), %xmm1
	movups	%xmm1, 16(%rbp)
	movupd	%xmm0, (%rbp)
.Ltmp394:
	.loc	9 161 41 discriminator 2 # initialize.c:161:41
	incl	%ebx
.Ltmp395:
	#DEBUG_VALUE: initialize:i <- %EBX
	.loc	9 161 22 is_stmt 0 discriminator 1 # initialize.c:161:22
	movl	grid_points(%rip), %eax
	.loc	9 161 19 discriminator 1 # initialize.c:161:19
	addq	$40, %rbp
	cmpl	%eax, %ebx
	.loc	9 161 5 discriminator 1 # initialize.c:161:5
	jl	.LBB4_41
.Ltmp396:
# BB#42:                                # %for.inc322.loopexit
                                        #   in Loop: Header=BB4_39 Depth=1
	#DEBUG_VALUE: initialize:i <- %EBX
	.loc	9 159 20 is_stmt 1 discriminator 1 # initialize.c:159:20
	movl	grid_points+8(%rip), %r8d
.Ltmp397:
.LBB4_43:                               # %for.inc322
                                        #   in Loop: Header=BB4_39 Depth=1
	.loc	9 159 39 is_stmt 0 discriminator 2 # initialize.c:159:39
	incl	%r15d
.Ltmp398:
	#DEBUG_VALUE: initialize:k <- %R15D
	.loc	9 159 3 discriminator 1 # initialize.c:159:3
	addq	$169000, %r14           # imm = 0x29428
	.loc	9 159 17 discriminator 1 # initialize.c:159:17
	cmpl	%r8d, %r15d
	jl	.LBB4_39
.Ltmp399:
.LBB4_44:                               # %for.cond325.preheader
	.loc	9 175 20 is_stmt 1 discriminator 1 # initialize.c:175:20
	movl	grid_points+4(%rip), %eax
	.loc	9 175 3 is_stmt 0 discriminator 1 # initialize.c:175:3
	testl	%eax, %eax
	jle	.LBB4_58
# BB#45:                                # %for.body329.lr.ph
	movl	$u, %r14d
	xorl	%r15d, %r15d
.Ltmp400:
	.loc	9 177 21 is_stmt 1 discriminator 1 # initialize.c:177:21
	movl	grid_points(%rip), %ecx
	leaq	16(%rsp), %r12
	.p2align	4, 0x90
.LBB4_46:                               # %for.body329
                                        # =>This Loop Header: Depth=1
                                        #     Child Loop BB4_48 Depth 2
.Ltmp401:
	#DEBUG_VALUE: initialize:i <- 0
	.loc	9 177 5 is_stmt 0 discriminator 1 # initialize.c:177:5
	testl	%ecx, %ecx
	jle	.LBB4_50
.Ltmp402:
# BB#47:                                #   in Loop: Header=BB4_46 Depth=1
	.loc	9 176 11 is_stmt 1      # initialize.c:176:11
	cvtsi2sdl	%r15d, %xmm0
	.loc	9 176 21 is_stmt 0      # initialize.c:176:21
	mulsd	dnym1(%rip), %xmm0
.Ltmp403:
	#DEBUG_VALUE: initialize:eta <- %XMM0
	movsd	%xmm0, (%rsp)           # 8-byte Spill
.Ltmp404:
	#DEBUG_VALUE: initialize:eta <- [%RSP+0]
	movq	%r14, %rbp
	xorl	%ebx, %ebx
.Ltmp405:
	.p2align	4, 0x90
.LBB4_48:                               # %for.body336
                                        #   Parent Loop BB4_46 Depth=1
                                        # =>  This Inner Loop Header: Depth=2
	.loc	9 178 12 is_stmt 1      # initialize.c:178:12
	xorps	%xmm0, %xmm0
	cvtsi2sdl	%ebx, %xmm0
	.loc	9 178 22 is_stmt 0      # initialize.c:178:22
	mulsd	dnxm1(%rip), %xmm0
.Ltmp406:
	#DEBUG_VALUE: initialize:xi <- %XMM0
	.loc	9 179 7 is_stmt 1       # initialize.c:179:7
	xorpd	%xmm2, %xmm2
	movsd	(%rsp), %xmm1           # 8-byte Reload
                                        # xmm1 = mem[0],zero
	movq	%r12, %rdi
	callq	exact_solution
	#DEBUG_VALUE: initialize:m <- 0
.Ltmp407:
	.loc	9 181 23                # initialize.c:181:23
	movq	48(%rsp), %rax
	movq	%rax, 32(%rbp)
	movapd	16(%rsp), %xmm0
.Ltmp408:
	movaps	32(%rsp), %xmm1
	movups	%xmm1, 16(%rbp)
	movupd	%xmm0, (%rbp)
.Ltmp409:
	.loc	9 177 40 discriminator 2 # initialize.c:177:40
	incl	%ebx
.Ltmp410:
	#DEBUG_VALUE: initialize:i <- %EBX
	.loc	9 177 21 is_stmt 0 discriminator 1 # initialize.c:177:21
	movl	grid_points(%rip), %ecx
	.loc	9 177 18 discriminator 1 # initialize.c:177:18
	addq	$40, %rbp
	cmpl	%ecx, %ebx
	.loc	9 177 5 discriminator 1 # initialize.c:177:5
	jl	.LBB4_48
.Ltmp411:
# BB#49:                                # %for.inc360.loopexit
                                        #   in Loop: Header=BB4_46 Depth=1
	#DEBUG_VALUE: initialize:i <- %EBX
	.loc	9 175 20 is_stmt 1 discriminator 1 # initialize.c:175:20
	movl	grid_points+4(%rip), %eax
.Ltmp412:
.LBB4_50:                               # %for.inc360
                                        #   in Loop: Header=BB4_46 Depth=1
	.loc	9 175 39 is_stmt 0 discriminator 2 # initialize.c:175:39
	incl	%r15d
.Ltmp413:
	#DEBUG_VALUE: initialize:j <- %R15D
	.loc	9 175 3 discriminator 1 # initialize.c:175:3
	addq	$2600, %r14             # imm = 0xA28
	.loc	9 175 17 discriminator 1 # initialize.c:175:17
	cmpl	%eax, %r15d
	jl	.LBB4_46
.Ltmp414:
# BB#51:                                # %for.end362
	#DEBUG_VALUE: initialize:j <- %R15D
	#DEBUG_VALUE: initialize:j <- 0
	#DEBUG_VALUE: initialize:zeta <- 1.000000e+00
	.loc	9 191 3 is_stmt 1 discriminator 1 # initialize.c:191:3
	testl	%eax, %eax
	jle	.LBB4_58
# BB#52:                                # %for.body368.lr.ph
.Ltmp415:
	.loc	9 197 9                 # initialize.c:197:9
	movslq	grid_points+8(%rip), %rcx
.Ltmp416:
	.loc	9 190 24                # initialize.c:190:24
	imulq	$169000, %rcx, %rdx     # imm = 0x29428
.Ltmp417:
	.loc	9 193 21 discriminator 1 # initialize.c:193:21
	movl	grid_points(%rip), %ecx
.Ltmp418:
	.loc	9 191 3 discriminator 1 # initialize.c:191:3
	leaq	u-169000(%rdx), %r14
	xorl	%r15d, %r15d
	leaq	16(%rsp), %r12
	.p2align	4, 0x90
.LBB4_53:                               # %for.body368
                                        # =>This Loop Header: Depth=1
                                        #     Child Loop BB4_55 Depth 2
.Ltmp419:
	#DEBUG_VALUE: initialize:i <- 0
	.loc	9 193 5 discriminator 1 # initialize.c:193:5
	testl	%ecx, %ecx
	jle	.LBB4_57
.Ltmp420:
# BB#54:                                #   in Loop: Header=BB4_53 Depth=1
	.loc	9 192 11                # initialize.c:192:11
	cvtsi2sdl	%r15d, %xmm0
	.loc	9 192 21 is_stmt 0      # initialize.c:192:21
	mulsd	dnym1(%rip), %xmm0
.Ltmp421:
	#DEBUG_VALUE: initialize:eta <- %XMM0
	movsd	%xmm0, (%rsp)           # 8-byte Spill
.Ltmp422:
	#DEBUG_VALUE: initialize:eta <- [%RSP+0]
	movq	%r14, %rbp
	xorl	%ebx, %ebx
.Ltmp423:
	.p2align	4, 0x90
.LBB4_55:                               # %for.body375
                                        #   Parent Loop BB4_53 Depth=1
                                        # =>  This Inner Loop Header: Depth=2
	.loc	9 194 12 is_stmt 1      # initialize.c:194:12
	xorps	%xmm0, %xmm0
	cvtsi2sdl	%ebx, %xmm0
	.loc	9 194 22 is_stmt 0      # initialize.c:194:22
	mulsd	dnxm1(%rip), %xmm0
.Ltmp424:
	#DEBUG_VALUE: initialize:xi <- %XMM0
	.loc	9 195 7 is_stmt 1       # initialize.c:195:7
	movsd	(%rsp), %xmm1           # 8-byte Reload
                                        # xmm1 = mem[0],zero
	movsd	.LCPI4_0(%rip), %xmm2   # xmm2 = mem[0],zero
	movq	%r12, %rdi
	callq	exact_solution
	#DEBUG_VALUE: initialize:m <- 0
.Ltmp425:
	.loc	9 197 23                # initialize.c:197:23
	movq	48(%rsp), %rax
	movq	%rax, 32(%rbp)
	movapd	16(%rsp), %xmm0
.Ltmp426:
	movaps	32(%rsp), %xmm1
	movups	%xmm1, 16(%rbp)
	movupd	%xmm0, (%rbp)
.Ltmp427:
	.loc	9 193 40 discriminator 2 # initialize.c:193:40
	incl	%ebx
.Ltmp428:
	#DEBUG_VALUE: initialize:i <- %EBX
	.loc	9 193 21 is_stmt 0 discriminator 1 # initialize.c:193:21
	movl	grid_points(%rip), %ecx
	.loc	9 193 18 discriminator 1 # initialize.c:193:18
	addq	$40, %rbp
	cmpl	%ecx, %ebx
	.loc	9 193 5 discriminator 1 # initialize.c:193:5
	jl	.LBB4_55
.Ltmp429:
# BB#56:                                # %for.inc399.loopexit
                                        #   in Loop: Header=BB4_53 Depth=1
	#DEBUG_VALUE: initialize:i <- %EBX
	.loc	9 191 20 is_stmt 1 discriminator 1 # initialize.c:191:20
	movl	grid_points+4(%rip), %eax
.Ltmp430:
.LBB4_57:                               # %for.inc399
                                        #   in Loop: Header=BB4_53 Depth=1
	.loc	9 191 39 is_stmt 0 discriminator 2 # initialize.c:191:39
	incl	%r15d
.Ltmp431:
	#DEBUG_VALUE: initialize:j <- %R15D
	.loc	9 191 3 discriminator 1 # initialize.c:191:3
	addq	$2600, %r14             # imm = 0xA28
	.loc	9 191 17 discriminator 1 # initialize.c:191:17
	cmpl	%eax, %r15d
	jl	.LBB4_53
.Ltmp432:
.LBB4_58:                               # %for.end401
	.loc	9 201 1 is_stmt 1       # initialize.c:201:1
	addq	$472, %rsp              # imm = 0x1D8
	popq	%rbx
	popq	%r12
	popq	%r13
	popq	%r14
	popq	%r15
	popq	%rbp
	retq
.Ltmp433:
.Lfunc_end4:
	.size	initialize, .Lfunc_end4-initialize
	.cfi_endproc

	.globl	adi
	.p2align	4, 0x90
	.type	adi,@function
adi:                                    # @adi
.Lfunc_begin5:
	.file	10 "/home/norouzi/Desktop/software/benchmarks/NAS/NPB3.3-SER-C/SP/adi.c"
	.loc	10 37 0                 # adi.c:37:0
	.cfi_startproc
# BB#0:                                 # %entry
	.loc	10 38 3 prologue_end    # adi.c:38:3
	pushq	%rax
.Ltmp434:
	.cfi_def_cfa_offset 16
	xorl	%eax, %eax
	callq	compute_rhs
	.loc	10 40 3                 # adi.c:40:3
	xorl	%eax, %eax
	callq	txinvr
	.loc	10 42 3                 # adi.c:42:3
	xorl	%eax, %eax
	callq	x_solve
	.loc	10 44 3                 # adi.c:44:3
	xorl	%eax, %eax
	callq	y_solve
	.loc	10 46 3                 # adi.c:46:3
	xorl	%eax, %eax
	callq	z_solve
	.loc	10 48 3                 # adi.c:48:3
	xorl	%eax, %eax
	popq	%rcx
	jmp	add                     # TAILCALL
.Ltmp435:
.Lfunc_end5:
	.size	adi, .Lfunc_end5-adi
	.cfi_endproc

	.section	.rodata.cst8,"aM",@progbits,8
	.p2align	3
.LCPI6_0:
	.quad	4607182418800017408     # double 1
.LCPI6_1:
	.quad	4602678819172646912     # double 0.5
.LCPI6_2:
	.quad	-4611686018427387904    # double -2
.LCPI6_5:
	.quad	4617315517961601024     # double 5
.LCPI6_6:
	.quad	4616189618054758400     # double 4
.LCPI6_7:
	.quad	4618441417868443648     # double 6
	.section	.rodata.cst16,"aM",@progbits,16
	.p2align	4
.LCPI6_3:
	.quad	4617315517961601024     # double 5
	.quad	4617315517961601024     # double 5
.LCPI6_4:
	.quad	4616189618054758400     # double 4
	.quad	4616189618054758400     # double 4
.LCPI6_8:
	.quad	4618441417868443648     # double 6
	.quad	4618441417868443648     # double 6
	.text
	.globl	compute_rhs
	.p2align	4, 0x90
	.type	compute_rhs,@function
compute_rhs:                            # @compute_rhs
.Lfunc_begin6:
	.file	11 "/home/norouzi/Desktop/software/benchmarks/NAS/NPB3.3-SER-C/SP/rhs.c"
	.loc	11 38 0                 # rhs.c:38:0
	.cfi_startproc
# BB#0:                                 # %entry
	.loc	11 43 7 prologue_end    # rhs.c:43:7
	pushq	%rbp
.Ltmp436:
	.cfi_def_cfa_offset 16
	pushq	%r15
.Ltmp437:
	.cfi_def_cfa_offset 24
	pushq	%r14
.Ltmp438:
	.cfi_def_cfa_offset 32
	pushq	%r13
.Ltmp439:
	.cfi_def_cfa_offset 40
	pushq	%r12
.Ltmp440:
	.cfi_def_cfa_offset 48
	pushq	%rbx
.Ltmp441:
	.cfi_def_cfa_offset 56
	subq	$488, %rsp              # imm = 0x1E8
.Ltmp442:
	.cfi_def_cfa_offset 544
.Ltmp443:
	.cfi_offset %rbx, -56
.Ltmp444:
	.cfi_offset %r12, -48
.Ltmp445:
	.cfi_offset %r13, -40
.Ltmp446:
	.cfi_offset %r14, -32
.Ltmp447:
	.cfi_offset %r15, -24
.Ltmp448:
	.cfi_offset %rbp, -16
	cmpl	$0, timeron(%rip)
	je	.LBB6_2
# BB#1:                                 # %if.then
	.loc	11 43 16 is_stmt 0 discriminator 1 # rhs.c:43:16
	movl	$5, %edi
	callq	timer_start
.Ltmp449:
.LBB6_2:                                # %for.cond.preheader
	.loc	11 48 20 is_stmt 1 discriminator 1 # rhs.c:48:20
	movl	grid_points+8(%rip), %edx
	.loc	11 48 3 is_stmt 0 discriminator 1 # rhs.c:48:3
	testl	%edx, %edx
	jle	.LBB6_19
# BB#3:                                 # %for.cond1.preheader.preheader
.Ltmp450:
	.loc	11 49 22 is_stmt 1 discriminator 1 # rhs.c:49:22
	movl	grid_points+4(%rip), %eax
	xorl	%r14d, %r14d
.Ltmp451:
	.loc	11 51 22                # rhs.c:51:22
	movsd	.LCPI6_0(%rip), %xmm5   # xmm5 = mem[0],zero
	movsd	.LCPI6_1(%rip), %xmm6   # xmm6 = mem[0],zero
	xorl	%r15d, %r15d
.Ltmp452:
	.p2align	4, 0x90
.LBB6_4:                                # %for.cond1.preheader
                                        # =>This Loop Header: Depth=1
                                        #     Child Loop BB6_6 Depth 2
                                        #       Child Loop BB6_7 Depth 3
	.loc	11 49 5 discriminator 1 # rhs.c:49:5
	testl	%eax, %eax
	jle	.LBB6_13
# BB#5:                                 # %for.cond5.preheader.lr.ph
                                        #   in Loop: Header=BB6_4 Depth=1
.Ltmp453:
	.loc	11 50 24 discriminator 1 # rhs.c:50:24
	movl	grid_points(%rip), %ecx
	movq	%r14, %r12
	xorl	%r13d, %r13d
	.p2align	4, 0x90
.LBB6_6:                                # %for.cond5.preheader
                                        #   Parent Loop BB6_4 Depth=1
                                        # =>  This Loop Header: Depth=2
                                        #       Child Loop BB6_7 Depth 3
	.loc	11 50 7 is_stmt 0 discriminator 1 # rhs.c:50:7
	testl	%ecx, %ecx
	movq	%r12, %rbx
	movl	$0, %ebp
	jle	.LBB6_11
	.p2align	4, 0x90
.LBB6_7:                                # %for.body8
                                        #   Parent Loop BB6_4 Depth=1
                                        #     Parent Loop BB6_6 Depth=2
                                        # =>    This Inner Loop Header: Depth=3
.Ltmp454:
	.loc	11 51 22 is_stmt 1      # rhs.c:51:22
	movapd	%xmm5, %xmm1
	divsd	u(%rbx,%rbx,4), %xmm1
.Ltmp455:
	#DEBUG_VALUE: compute_rhs:rho_inv <- %XMM1
	.loc	11 52 24                # rhs.c:52:24
	movsd	%xmm1, rho_i(%rbx)
	.loc	11 53 23                # rhs.c:53:23
	movsd	u+8(%rbx,%rbx,4), %xmm0 # xmm0 = mem[0],zero
	.loc	11 53 37 is_stmt 0      # rhs.c:53:37
	movapd	%xmm1, %xmm2
	mulsd	%xmm0, %xmm2
	.loc	11 53 21                # rhs.c:53:21
	movsd	%xmm2, us(%rbx)
	.loc	11 54 23 is_stmt 1      # rhs.c:54:23
	movsd	u+16(%rbx,%rbx,4), %xmm2 # xmm2 = mem[0],zero
	.loc	11 54 37 is_stmt 0      # rhs.c:54:37
	movapd	%xmm1, %xmm3
	mulsd	%xmm2, %xmm3
	.loc	11 54 21                # rhs.c:54:21
	movsd	%xmm3, vs(%rbx)
	.loc	11 55 23 is_stmt 1      # rhs.c:55:23
	movsd	u+24(%rbx,%rbx,4), %xmm3 # xmm3 = mem[0],zero
	.loc	11 55 37 is_stmt 0      # rhs.c:55:37
	movapd	%xmm1, %xmm4
	mulsd	%xmm3, %xmm4
	.loc	11 55 21                # rhs.c:55:21
	movsd	%xmm4, ws(%rbx)
	.loc	11 57 26 is_stmt 1      # rhs.c:57:26
	mulsd	%xmm0, %xmm0
	.loc	11 58 26                # rhs.c:58:26
	mulsd	%xmm2, %xmm2
	.loc	11 57 41                # rhs.c:57:41
	addsd	%xmm0, %xmm2
	.loc	11 59 26                # rhs.c:59:26
	mulsd	%xmm3, %xmm3
	.loc	11 58 41                # rhs.c:58:41
	addsd	%xmm2, %xmm3
	.loc	11 56 30                # rhs.c:56:30
	mulsd	%xmm6, %xmm3
	.loc	11 59 43                # rhs.c:59:43
	mulsd	%xmm1, %xmm3
	.loc	11 56 25                # rhs.c:56:25
	movsd	%xmm3, square(%rbx)
	.loc	11 60 39                # rhs.c:60:39
	movapd	%xmm1, %xmm0
	mulsd	%xmm3, %xmm0
	.loc	11 60 21 is_stmt 0      # rhs.c:60:21
	movsd	%xmm0, qs(%rbx)
	.loc	11 64 19 is_stmt 1      # rhs.c:64:19
	mulsd	c1c2(%rip), %xmm1
.Ltmp456:
	.loc	11 64 30 is_stmt 0      # rhs.c:64:30
	movsd	u+32(%rbx,%rbx,4), %xmm0 # xmm0 = mem[0],zero
	.loc	11 64 44                # rhs.c:64:44
	subsd	%xmm3, %xmm0
	.loc	11 64 27                # rhs.c:64:27
	mulsd	%xmm1, %xmm0
.Ltmp457:
	#DEBUG_VALUE: compute_rhs:aux <- %XMM0
	.loc	11 65 26 is_stmt 1      # rhs.c:65:26
	xorps	%xmm1, %xmm1
	sqrtsd	%xmm0, %xmm1
	.loc	11 65 24 is_stmt 0      # rhs.c:65:24
	ucomisd	%xmm1, %xmm1
	jnp	.LBB6_9
.Ltmp458:
# BB#8:                                 # %call.sqrt
                                        #   in Loop: Header=BB6_7 Depth=3
	#DEBUG_VALUE: compute_rhs:aux <- %XMM0
	callq	sqrt
.Ltmp459:
	movsd	.LCPI6_1(%rip), %xmm6   # xmm6 = mem[0],zero
	.loc	11 51 22 is_stmt 1      # rhs.c:51:22
	movsd	.LCPI6_0(%rip), %xmm5   # xmm5 = mem[0],zero
	.loc	11 65 24                # rhs.c:65:24
	movapd	%xmm0, %xmm1
.LBB6_9:                                # %for.body8.split
                                        #   in Loop: Header=BB6_7 Depth=3
	movsd	%xmm1, speed(%rbx)
.Ltmp460:
	.loc	11 50 7 discriminator 1 # rhs.c:50:7
	incq	%rbp
	.loc	11 50 21 is_stmt 0 discriminator 1 # rhs.c:50:21
	movslq	grid_points(%rip), %rcx
	addq	$8, %rbx
	cmpq	%rcx, %rbp
	jl	.LBB6_7
.Ltmp461:
# BB#10:                                # %for.inc150.loopexit
                                        #   in Loop: Header=BB6_6 Depth=2
	.loc	11 49 22 is_stmt 1 discriminator 1 # rhs.c:49:22
	movl	grid_points+4(%rip), %eax
.LBB6_11:                               # %for.inc150
                                        #   in Loop: Header=BB6_6 Depth=2
	.loc	11 49 5 is_stmt 0 discriminator 1 # rhs.c:49:5
	incq	%r13
	.loc	11 49 19 discriminator 1 # rhs.c:49:19
	movslq	%eax, %rdx
	.loc	11 49 5 discriminator 1 # rhs.c:49:5
	addq	$520, %r12              # imm = 0x208
	.loc	11 49 19 discriminator 1 # rhs.c:49:19
	cmpq	%rdx, %r13
	jl	.LBB6_6
.Ltmp462:
# BB#12:                                # %for.inc153.loopexit
                                        #   in Loop: Header=BB6_4 Depth=1
	.loc	11 48 20 is_stmt 1 discriminator 1 # rhs.c:48:20
	movl	grid_points+8(%rip), %edx
.LBB6_13:                               # %for.inc153
                                        #   in Loop: Header=BB6_4 Depth=1
	.loc	11 48 3 is_stmt 0 discriminator 1 # rhs.c:48:3
	incq	%r15
	.loc	11 48 17 discriminator 1 # rhs.c:48:17
	movslq	%edx, %rcx
	.loc	11 48 3 discriminator 1 # rhs.c:48:3
	addq	$33800, %r14            # imm = 0x8408
	.loc	11 48 17 discriminator 1 # rhs.c:48:17
	cmpq	%rcx, %r15
	jl	.LBB6_4
.Ltmp463:
# BB#14:                                # %for.cond156.preheader
	.loc	11 75 3 is_stmt 1 discriminator 1 # rhs.c:75:3
	testl	%edx, %edx
	jle	.LBB6_19
# BB#15:                                # %for.cond160.preheader.lr.ph
.Ltmp464:
	.loc	11 76 22 discriminator 1 # rhs.c:76:22
	movl	grid_points+4(%rip), %r12d
	.loc	11 76 5 is_stmt 0 discriminator 1 # rhs.c:76:5
	testl	%r12d, %r12d
	jle	.LBB6_19
# BB#16:                                # %for.cond164.preheader.lr.ph.us.preheader
.Ltmp465:
	.loc	11 77 24 is_stmt 1 discriminator 1 # rhs.c:77:24
	movl	grid_points(%rip), %r15d
	.loc	11 77 7 is_stmt 0 discriminator 1 # rhs.c:77:7
	leal	-1(%r15), %r13d
	movl	%r15d, %edi
	andl	$3, %edi
	movl	$forcing, %eax
	movl	$rhs, %r10d
	xorl	%r11d, %r11d
	xorl	%r14d, %r14d
	.p2align	4, 0x90
.LBB6_17:                               # %for.cond164.preheader.lr.ph.us
                                        # =>This Loop Header: Depth=1
                                        #     Child Loop BB6_34 Depth 2
                                        #       Child Loop BB6_35 Depth 3
                                        #       Child Loop BB6_38 Depth 3
	movq	%r10, 16(%rsp)          # 8-byte Spill
	movq	%rax, (%rsp)            # 8-byte Spill
	movl	%edx, 48(%rsp)          # 4-byte Spill
	testl	%r15d, %r15d
	movq	%r11, %r9
	movq	%rax, %rbp
	movl	$0, %edx
	jle	.LBB6_18
	.p2align	4, 0x90
.LBB6_34:                               # %for.cond168.preheader.lr.ph.us.us
                                        #   Parent Loop BB6_17 Depth=1
                                        # =>  This Loop Header: Depth=2
                                        #       Child Loop BB6_35 Depth 3
                                        #       Child Loop BB6_38 Depth 3
	testl	%edi, %edi
	movq	%r10, %rcx
	movq	%rbp, %rsi
	movl	$0, %ebx
	je	.LBB6_36
	.p2align	4, 0x90
.LBB6_35:                               # %for.cond168.preheader.us.us.prol
                                        #   Parent Loop BB6_17 Depth=1
                                        #     Parent Loop BB6_34 Depth=2
                                        # =>    This Inner Loop Header: Depth=3
.Ltmp466:
	.loc	11 79 27 is_stmt 1      # rhs.c:79:27
	movq	32(%rsi), %rax
	movq	%rax, 32(%rcx)
	movupd	(%rsi), %xmm0
	movupd	16(%rsi), %xmm1
	movupd	%xmm1, 16(%rcx)
	movupd	%xmm0, (%rcx)
.Ltmp467:
	.loc	11 77 7 discriminator 1 # rhs.c:77:7
	incq	%rbx
	addq	$40, %rsi
	addq	$40, %rcx
	cmpl	%ebx, %edi
	jne	.LBB6_35
.LBB6_36:                               # %for.cond168.preheader.lr.ph.us.us.split
                                        #   in Loop: Header=BB6_34 Depth=2
	cmpl	$3, %r13d
	jb	.LBB6_39
# BB#37:                                # %for.cond168.preheader.lr.ph.us.us.split.split
                                        #   in Loop: Header=BB6_34 Depth=2
	movl	%r15d, %ecx
	subl	%ebx, %ecx
	shlq	$3, %rbx
	leaq	forcing(%rbx,%rbx,4), %rsi
	leaq	rhs(%rbx,%rbx,4), %r8
	movq	%r9, %rbx
	.p2align	4, 0x90
.LBB6_38:                               # %for.cond168.preheader.us.us
                                        #   Parent Loop BB6_17 Depth=1
                                        #     Parent Loop BB6_34 Depth=2
                                        # =>    This Inner Loop Header: Depth=3
.Ltmp468:
	.loc	11 79 27                # rhs.c:79:27
	movq	32(%rsi,%rbx), %rax
	movq	%rax, 32(%r8,%rbx)
	movups	(%rsi,%rbx), %xmm0
	movups	16(%rsi,%rbx), %xmm1
	movups	%xmm1, 16(%r8,%rbx)
	movups	%xmm0, (%r8,%rbx)
	movq	72(%rsi,%rbx), %rax
	movq	%rax, 72(%r8,%rbx)
	movups	40(%rsi,%rbx), %xmm0
	movups	56(%rsi,%rbx), %xmm1
	movups	%xmm1, 56(%r8,%rbx)
	movups	%xmm0, 40(%r8,%rbx)
	movq	112(%rsi,%rbx), %rax
	movq	%rax, 112(%r8,%rbx)
	movups	80(%rsi,%rbx), %xmm0
	movups	96(%rsi,%rbx), %xmm1
	movups	%xmm1, 96(%r8,%rbx)
	movups	%xmm0, 80(%r8,%rbx)
	movq	152(%rsi,%rbx), %rax
	movq	%rax, 152(%r8,%rbx)
	movupd	120(%rsi,%rbx), %xmm0
	movupd	136(%rsi,%rbx), %xmm1
	movupd	%xmm1, 136(%r8,%rbx)
	movupd	%xmm0, 120(%r8,%rbx)
.Ltmp469:
	.loc	11 77 7 discriminator 1 # rhs.c:77:7
	addq	$160, %rbx
	addl	$-4, %ecx
	jne	.LBB6_38
.Ltmp470:
.LBB6_39:                               # %for.cond164.for.inc193_crit_edge.us.us
                                        #   in Loop: Header=BB6_34 Depth=2
	.loc	11 76 5 discriminator 1 # rhs.c:76:5
	incq	%rdx
	addq	$2600, %rbp             # imm = 0xA28
	addq	$2600, %r10             # imm = 0xA28
	addq	$2600, %r9              # imm = 0xA28
	cmpl	%r12d, %edx
	jne	.LBB6_34
.Ltmp471:
