	.text
	.file	"cg/A/cg.A.bc"
	.file	1 "/home/norouzi/Desktop/software/benchmarks/NAS/NPB3.3-SER-C/CG/cg.c"
	.file	2 "/home/norouzi/Desktop/software/benchmarks/NAS/NPB3.3-SER-C/CG/../common/type.h"
	.file	3 "/home/norouzi/Desktop/software/benchmarks/NAS/NPB3.3-SER-C/common/../common/type.h"
	.file	4 "/home/norouzi/Desktop/software/benchmarks/NAS/NPB3.3-SER-C/common/c_timers.c"
	.file	5 "/home/norouzi/Desktop/software/benchmarks/NAS/NPB3.3-SER-C/common/../common/wtime.c"
	.section	.rodata.cst8,"aM",@progbits,8
	.p2align	3
.LCPI0_0:
	.quad	4742906807993761792     # double 1220703125
.LCPI0_1:
	.quad	4607182418800017408     # double 1
.LCPI0_2:
	.quad	4591870180066957722     # double 0.10000000000000001
.LCPI0_3:
	.quad	-4597049319638433792    # double -20
.LCPI0_5:
	.quad	4626322717216342016     # double 20
.LCPI0_6:
	.quad	-4597857086659766036    # double -17.130235054029001
.LCPI0_8:
	.quad	4625514950195009772     # double 17.130235054029001
.LCPI0_9:
	.quad	4457293557087583675     # double 1.0E-10
.LCPI0_10:
	.quad	4744063416157601792     # double 1.49646E+9
.LCPI0_11:
	.quad	4696837146684686336     # double 1.0E+6
.LCPI0_12:
	.quad	4636737291354636288     # double 100
	.section	.rodata.cst16,"aM",@progbits,16
	.p2align	4
.LCPI0_4:
	.quad	4607182418800017408     # double 1
	.quad	4607182418800017408     # double 1
.LCPI0_7:
	.quad	9223372036854775807     # 0x7fffffffffffffff
	.quad	9223372036854775807     # 0x7fffffffffffffff
	.text
	.globl	main
	.p2align	4, 0x90
	.type	main,@function
main:                                   # @main
.Lfunc_begin0:
	.loc	1 126 0                 # cg.c:126:0
	.cfi_startproc
# BB#0:                                 # %entry
	.loc	1 141 5 prologue_end    # cg.c:141:5
	pushq	%rbp
.Ltmp0:
	.cfi_def_cfa_offset 16
	pushq	%r15
.Ltmp1:
	.cfi_def_cfa_offset 24
	pushq	%r14
.Ltmp2:
	.cfi_def_cfa_offset 32
	pushq	%r13
.Ltmp3:
	.cfi_def_cfa_offset 40
	pushq	%r12
.Ltmp4:
	.cfi_def_cfa_offset 48
	pushq	%rbx
.Ltmp5:
	.cfi_def_cfa_offset 56
	subq	$360, %rsp              # imm = 0x168
.Ltmp6:
	.cfi_def_cfa_offset 416
.Ltmp7:
	.cfi_offset %rbx, -56
.Ltmp8:
	.cfi_offset %r12, -48
.Ltmp9:
	.cfi_offset %r13, -40
.Ltmp10:
	.cfi_offset %r14, -32
.Ltmp11:
	.cfi_offset %r15, -24
.Ltmp12:
	.cfi_offset %rbp, -16
	#DEBUG_VALUE: main:argc <- %EDI
	#DEBUG_VALUE: main:argv <- %RSI
.Ltmp13:
	#DEBUG_VALUE: main:i <- 0
	xorl	%edi, %edi
.Ltmp14:
	callq	timer_clear
.Ltmp15:
	#DEBUG_VALUE: main:i <- 1
	movl	$1, %edi
	callq	timer_clear
	movl	$2, %edi
	callq	timer_clear
.Ltmp16:
	.loc	1 145 13                # cg.c:145:13
	movl	$.L.str, %edi
	movl	$.L.str.1, %esi
.Ltmp17:
	callq	fopen
.Ltmp18:
	#DEBUG_VALUE: main:fp <- %RAX
	.loc	1 145 39 is_stmt 0      # cg.c:145:39
	testq	%rax, %rax
.Ltmp19:
	.loc	1 145 7                 # cg.c:145:7
	je	.LBB0_2
.Ltmp20:
# BB#1:                                 # %if.then
	#DEBUG_VALUE: main:fp <- %RAX
	movb	$1, timeron(%rip)
.Ltmp21:
	.loc	1 150 5 is_stmt 1       # cg.c:150:5
	movq	%rax, %rdi
	callq	fclose
.Ltmp22:
	jmp	.LBB0_3
.Ltmp23:
.LBB0_2:                                # %if.else
	#DEBUG_VALUE: main:fp <- %RAX
	movb	$0, timeron(%rip)
.Ltmp24:
.LBB0_3:                                # %if.end
	xorl	%ebx, %ebx
	.loc	1 155 3                 # cg.c:155:3
	xorl	%edi, %edi
	callq	timer_start
	movb	$1, lastrow(%rip)
	movb	$1, lastcol(%rip)
.Ltmp25:
	#DEBUG_VALUE: main:zeta_verify_value <- 1.713024e+01
	#DEBUG_VALUE: main:Class <- 65
	.loc	1 187 3                 # cg.c:187:3
	movl	$.Lstr, %edi
	callq	puts
	.loc	1 188 3                 # cg.c:188:3
	movl	$14000, %ebp            # imm = 0x36B0
	movl	$.L.str.6, %edi
	movl	$14000, %esi            # imm = 0x36B0
	xorl	%eax, %eax
	callq	printf
	.loc	1 189 3                 # cg.c:189:3
	movl	$.L.str.7, %edi
	movl	$15, %esi
	xorl	%eax, %eax
	callq	printf
	.loc	1 190 3                 # cg.c:190:3
	movl	$10, %edi
	callq	putchar
	movb	$1, naa(%rip)
	movb	$1, nzz(%rip)
	.loc	1 198 11                # cg.c:198:11
	movabsq	$4734050326586327040, %rax # imm = 0x41B2B9B0A1000000
	movq	%rax, tran(%rip)
	.loc	1 199 11                # cg.c:199:11
	movabsq	$4742906807993761792, %rax # imm = 0x41D2309CE5400000
	movq	%rax, amult(%rip)
	movsd	.LCPI0_0(%rip), %xmm0   # xmm0 = mem[0],zero
	.loc	1 200 13                # cg.c:200:13
	movl	$tran, %edi
	callq	randlc
	movb	naa(%rip), %al
	andb	$1, %al
	movb	%al, 144(%rsp)          # 1-byte Spill
	cmovnel	%ebp, %ebx
	movb	nzz(%rip), %cl
.Ltmp26:
	#DEBUG_VALUE: makea:lastcol <- 0
	#DEBUG_VALUE: makea:firstcol <- 0
	#DEBUG_VALUE: makea:firstrow <- 0
	movb	lastrow(%rip), %al
.Ltmp27:
	#DEBUG_VALUE: makea:nn1 <- 1
	movb	%al, 95(%rsp)           # 1-byte Spill
	movl	$1, %eax
	.p2align	4, 0x90
.LBB0_4:                                # %do.body.i
                                        # =>This Inner Loop Header: Depth=1
.Ltmp28:
	.loc	1 631 13                # cg.c:631:13
	addl	%eax, %eax
.Ltmp29:
	#DEBUG_VALUE: icnvrt:ipwr2 <- %EAX
	#DEBUG_VALUE: makea:nn1 <- %EAX
	.loc	1 632 16 discriminator 1 # cg.c:632:16
	cmpl	%ebx, %eax
	.loc	1 632 3 is_stmt 0 discriminator 1 # cg.c:632:3
	jl	.LBB0_4
.Ltmp30:
# BB#5:                                 # %for.cond.preheader.i
	#DEBUG_VALUE: makea:nn1 <- %EAX
	#DEBUG_VALUE: icnvrt:ipwr2 <- %EAX
	xorl	%edx, %edx
	testb	$1, %cl
	movl	$2016000, %ecx          # imm = 0x1EC300
	cmovel	%edx, %ecx
	movl	%ecx, 152(%rsp)         # 4-byte Spill
	testb	$1, 95(%rsp)            # 1-byte Folded Reload
	movl	$13999, %ecx            # imm = 0x36AF
	cmovel	%edx, %ecx
	movq	%rcx, 192(%rsp)         # 8-byte Spill
.Ltmp31:
	.loc	1 637 3 is_stmt 1 discriminator 1 # cg.c:637:3
	cmpb	$0, 144(%rsp)           # 1-byte Folded Reload
	je	.LBB0_51
.Ltmp32:
# BB#6:                                 # %for.body.lr.ph.i
	#DEBUG_VALUE: icnvrt:ipwr2 <- %EAX
	#DEBUG_VALUE: makea:nn1 <- %EAX
	.loc	1 873 16                # cg.c:873:16
	cvtsi2sdl	%eax, %xmm0
	movsd	%xmm0, 112(%rsp)        # 8-byte Spill
	movl	$acol, %edx
	xorl	%r13d, %r13d
	movl	$acol+56, %r8d
.Ltmp33:
	.loc	1 889 12                # cg.c:889:12
	movabsq	$4602678819172646912, %r14 # imm = 0x3FE0000000000000
.Ltmp34:
	.p2align	4, 0x90
.LBB0_8:                                # %for.body.i
                                        # =>This Loop Header: Depth=1
                                        #     Child Loop BB0_9 Depth 2
                                        #       Child Loop BB0_13 Depth 3
                                        #       Child Loop BB0_10 Depth 3
                                        #         Child Loop BB0_11 Depth 4
                                        #     Child Loop BB0_46 Depth 2
                                        #     Child Loop BB0_50 Depth 2
	#DEBUG_VALUE: makea:nzv <- 11
	#DEBUG_VALUE: sprnvc:nz <- 11
	#DEBUG_VALUE: sprnvc:nzv <- 0
	movq	%r8, 168(%rsp)          # 8-byte Spill
	movq	%rdx, 176(%rsp)         # 8-byte Spill
	.loc	1 205 3                 # cg.c:205:3
	movq	%r13, %r12
.Ltmp35:
	.loc	1 840 3 discriminator 1 # cg.c:840:3
	leaq	(%r12,%r12,2), %rax
	shlq	$5, %rax
	leaq	aelt(%rax), %rax
.Ltmp36:
	.loc	1 639 5                 # cg.c:639:5
	movq	%rax, 136(%rsp)         # 8-byte Spill
	xorl	%ebp, %ebp
	.p2align	4, 0x90
.LBB0_9:                                # %while.body.lr.ph.i.i
                                        #   Parent Loop BB0_8 Depth=1
                                        # =>  This Loop Header: Depth=2
                                        #       Child Loop BB0_13 Depth 3
                                        #       Child Loop BB0_10 Depth 3
                                        #         Child Loop BB0_11 Depth 4
.Ltmp37:
	.loc	1 854 5 discriminator 1 # cg.c:854:5
	testq	%rbp, %rbp
	jle	.LBB0_13
.Ltmp38:
.LBB0_10:                               # %while.body.us.us.i.i
                                        #   Parent Loop BB0_8 Depth=1
                                        #     Parent Loop BB0_9 Depth=2
                                        # =>    This Loop Header: Depth=3
                                        #         Child Loop BB0_11 Depth 4
	.loc	1 841 28                # cg.c:841:28
	movsd	amult(%rip), %xmm0      # xmm0 = mem[0],zero
	.loc	1 841 14 is_stmt 0      # cg.c:841:14
	movl	$tran, %edi
	callq	randlc
	movsd	%xmm0, 96(%rsp)         # 8-byte Spill
.Ltmp39:
	#DEBUG_VALUE: sprnvc:vecelt <- [%RSP+96]
	.loc	1 846 28 is_stmt 1      # cg.c:846:28
	movsd	amult(%rip), %xmm0      # xmm0 = mem[0],zero
	.loc	1 846 14 is_stmt 0      # cg.c:846:14
	movl	$tran, %edi
	callq	randlc
.Ltmp40:
	#DEBUG_VALUE: icnvrt:x <- %XMM0
	#DEBUG_VALUE: sprnvc:vecloc <- %XMM0
	.loc	1 873 22 is_stmt 1      # cg.c:873:22
	mulsd	112(%rsp), %xmm0        # 8-byte Folded Reload
.Ltmp41:
	.loc	1 873 10 is_stmt 0      # cg.c:873:10
	cvttsd2si	%xmm0, %ecx
.Ltmp42:
	.loc	1 847 29 is_stmt 1      # cg.c:847:29
	leal	1(%rcx), %eax
.Ltmp43:
	#DEBUG_VALUE: sprnvc:i <- %EAX
	.loc	1 848 9                 # cg.c:848:9
	cmpl	%ebx, %ecx
.Ltmp44:
	.loc	1 639 5                 # cg.c:639:5
	movl	$0, %ecx
.Ltmp45:
	.loc	1 848 9                 # cg.c:848:9
	jge	.LBB0_10
.Ltmp46:
	.p2align	4, 0x90
.LBB0_11:                               # %for.body.us.us.i.i
                                        #   Parent Loop BB0_8 Depth=1
                                        #     Parent Loop BB0_9 Depth=2
                                        #       Parent Loop BB0_10 Depth=3
                                        # =>      This Inner Loop Header: Depth=4
	.loc	1 855 18                # cg.c:855:18
	cmpl	%eax, 208(%rsp,%rcx,4)
.Ltmp47:
	.loc	1 854 5 discriminator 1 # cg.c:854:5
	leaq	1(%rcx), %rcx
	je	.LBB0_10
# BB#12:                                # %for.cond.us.us.i.i
                                        #   in Loop: Header=BB0_11 Depth=4
	.loc	1 854 21 is_stmt 0 discriminator 1 # cg.c:854:21
	cmpq	%rbp, %rcx
	jl	.LBB0_11
	jmp	.LBB0_15
.Ltmp48:
	.p2align	4, 0x90
.LBB0_13:                               # %while.body.us6.i.i
                                        #   Parent Loop BB0_8 Depth=1
                                        #     Parent Loop BB0_9 Depth=2
                                        # =>    This Inner Loop Header: Depth=3
	.loc	1 841 28 is_stmt 1      # cg.c:841:28
	movsd	amult(%rip), %xmm0      # xmm0 = mem[0],zero
	.loc	1 841 14 is_stmt 0      # cg.c:841:14
	movl	$tran, %edi
	callq	randlc
	movsd	%xmm0, 96(%rsp)         # 8-byte Spill
.Ltmp49:
	#DEBUG_VALUE: sprnvc:vecelt <- [%RSP+96]
	.loc	1 846 28 is_stmt 1      # cg.c:846:28
	movsd	amult(%rip), %xmm0      # xmm0 = mem[0],zero
	.loc	1 846 14 is_stmt 0      # cg.c:846:14
	movl	$tran, %edi
	callq	randlc
.Ltmp50:
	#DEBUG_VALUE: icnvrt:x <- %XMM0
	#DEBUG_VALUE: sprnvc:vecloc <- %XMM0
	.loc	1 873 22 is_stmt 1      # cg.c:873:22
	mulsd	112(%rsp), %xmm0        # 8-byte Folded Reload
.Ltmp51:
	.loc	1 873 10 is_stmt 0      # cg.c:873:10
	cvttsd2si	%xmm0, %eax
.Ltmp52:
	.loc	1 848 9 is_stmt 1       # cg.c:848:9
	cmpl	%ebx, %eax
	jge	.LBB0_13
# BB#14:                                # %if.end9.loopexit36.i.i
                                        #   in Loop: Header=BB0_9 Depth=2
	.loc	1 847 29                # cg.c:847:29
	incl	%eax
.LBB0_15:                               # %if.end9.i.i
                                        #   in Loop: Header=BB0_9 Depth=2
	.loc	1 861 12                # cg.c:861:12
	movsd	96(%rsp), %xmm0         # 8-byte Reload
                                        # xmm0 = mem[0],zero
	movsd	%xmm0, 256(%rsp,%rbp,8)
	.loc	1 862 13                # cg.c:862:13
	movl	%eax, 208(%rsp,%rbp,4)
.Ltmp53:
	.loc	1 840 3 discriminator 1 # cg.c:840:3
	incq	%rbp
	cmpq	$11, %rbp
	jne	.LBB0_9
.Ltmp54:
# BB#16:                                # %for.body.lr.ph.i.i
                                        #   in Loop: Header=BB0_8 Depth=1
	#DEBUG_VALUE: vecset:n <- 0
	#DEBUG_VALUE: vecset:val <- 5.000000e-01
	#DEBUG_VALUE: vecset:set <- 0
	#DEBUG_VALUE: vecset:k <- 0
	.loc	1 637 3 discriminator 1 # cg.c:637:3
	leaq	1(%r12), %r13
.Ltmp55:
	.loc	1 888 9                 # cg.c:888:9
	movq	208(%rsp), %r15
	.loc	1 888 15 is_stmt 0      # cg.c:888:15
	movl	%r15d, %ecx
.Ltmp56:
	.loc	1 888 9                 # cg.c:888:9
	movq	%r15, %rbp
	shrq	$32, %rbp
	xorl	%eax, %eax
	cmpq	%r13, %rcx
	jne	.LBB0_18
# BB#17:                                # %if.then.i.i
                                        #   in Loop: Header=BB0_8 Depth=1
.Ltmp57:
	.loc	1 889 12 is_stmt 1      # cg.c:889:12
	movq	%r14, 256(%rsp)
.Ltmp58:
	#DEBUG_VALUE: vecset:set <- 1
	movl	$1, %eax
.Ltmp59:
.LBB0_18:                               # %for.inc.i.i
                                        #   in Loop: Header=BB0_8 Depth=1
	.loc	1 888 15                # cg.c:888:15
	cmpq	%r13, %rbp
	jne	.LBB0_20
# BB#19:                                # %if.then.i.1.i
                                        #   in Loop: Header=BB0_8 Depth=1
.Ltmp60:
	.loc	1 889 12                # cg.c:889:12
	movq	%r14, 264(%rsp)
	#DEBUG_VALUE: vecset:set <- 1
	movl	$1, %eax
.Ltmp61:
.LBB0_20:                               # %for.inc.i.1.i
                                        #   in Loop: Header=BB0_8 Depth=1
	.loc	1 888 9                 # cg.c:888:9
	movq	216(%rsp), %rcx
	.loc	1 888 15 is_stmt 0      # cg.c:888:15
	movl	%ecx, %edx
.Ltmp62:
	.loc	1 888 9                 # cg.c:888:9
	shrq	$32, %rcx
	cmpq	%r13, %rdx
	jne	.LBB0_22
# BB#21:                                # %if.then.i.2.i
                                        #   in Loop: Header=BB0_8 Depth=1
.Ltmp63:
	.loc	1 889 12 is_stmt 1      # cg.c:889:12
	movq	%r14, 272(%rsp)
	#DEBUG_VALUE: vecset:set <- 1
	movl	$1, %eax
.Ltmp64:
.LBB0_22:                               # %for.inc.i.2.i
                                        #   in Loop: Header=BB0_8 Depth=1
	.loc	1 888 9                 # cg.c:888:9
	cmpq	%r13, %rcx
	jne	.LBB0_24
# BB#23:                                # %if.then.i.3.i
                                        #   in Loop: Header=BB0_8 Depth=1
.Ltmp65:
	.loc	1 889 12                # cg.c:889:12
	movq	%r14, 280(%rsp)
	#DEBUG_VALUE: vecset:set <- 1
	movl	$1, %eax
.Ltmp66:
.LBB0_24:                               # %for.inc.i.3.i
                                        #   in Loop: Header=BB0_8 Depth=1
	.loc	1 888 9                 # cg.c:888:9
	movq	224(%rsp), %rcx
	.loc	1 888 15 is_stmt 0      # cg.c:888:15
	movl	%ecx, %edx
.Ltmp67:
	.loc	1 888 9                 # cg.c:888:9
	shrq	$32, %rcx
	cmpq	%r13, %rdx
	jne	.LBB0_26
# BB#25:                                # %if.then.i.4.i
                                        #   in Loop: Header=BB0_8 Depth=1
.Ltmp68:
	.loc	1 889 12 is_stmt 1      # cg.c:889:12
	movq	%r14, 288(%rsp)
	#DEBUG_VALUE: vecset:set <- 1
	movl	$1, %eax
.Ltmp69:
.LBB0_26:                               # %for.inc.i.4.i
                                        #   in Loop: Header=BB0_8 Depth=1
	.loc	1 888 9                 # cg.c:888:9
	cmpq	%r13, %rcx
	jne	.LBB0_28
# BB#27:                                # %if.then.i.5.i
                                        #   in Loop: Header=BB0_8 Depth=1
.Ltmp70:
	.loc	1 889 12                # cg.c:889:12
	movq	%r14, 296(%rsp)
	#DEBUG_VALUE: vecset:set <- 1
	movl	$1, %eax
.Ltmp71:
.LBB0_28:                               # %for.inc.i.5.i
                                        #   in Loop: Header=BB0_8 Depth=1
	.loc	1 888 9                 # cg.c:888:9
	movq	232(%rsp), %rcx
	.loc	1 888 15 is_stmt 0      # cg.c:888:15
	movl	%ecx, %edx
.Ltmp72:
	.loc	1 888 9                 # cg.c:888:9
	shrq	$32, %rcx
	cmpq	%r13, %rdx
	jne	.LBB0_30
# BB#29:                                # %if.then.i.6.i
                                        #   in Loop: Header=BB0_8 Depth=1
.Ltmp73:
	.loc	1 889 12 is_stmt 1      # cg.c:889:12
	movq	%r14, 304(%rsp)
	#DEBUG_VALUE: vecset:set <- 1
	movl	$1, %eax
.Ltmp74:
.LBB0_30:                               # %for.inc.i.6.i
                                        #   in Loop: Header=BB0_8 Depth=1
	.loc	1 888 9                 # cg.c:888:9
	cmpq	%r13, %rcx
	jne	.LBB0_32
# BB#31:                                # %if.then.i.7.i
                                        #   in Loop: Header=BB0_8 Depth=1
.Ltmp75:
	.loc	1 889 12                # cg.c:889:12
	movq	%r14, 312(%rsp)
	#DEBUG_VALUE: vecset:set <- 1
	movl	$1, %eax
.Ltmp76:
.LBB0_32:                               # %for.inc.i.7.i
                                        #   in Loop: Header=BB0_8 Depth=1
	.loc	1 888 9                 # cg.c:888:9
	movq	240(%rsp), %rcx
	.loc	1 888 15 is_stmt 0      # cg.c:888:15
	movl	%ecx, %edx
.Ltmp77:
	.loc	1 888 9                 # cg.c:888:9
	shrq	$32, %rcx
	cmpq	%r13, %rdx
	jne	.LBB0_34
# BB#33:                                # %if.then.i.8.i
                                        #   in Loop: Header=BB0_8 Depth=1
.Ltmp78:
	.loc	1 889 12 is_stmt 1      # cg.c:889:12
	movq	%r14, 320(%rsp)
	#DEBUG_VALUE: vecset:set <- 1
	movl	$1, %eax
.Ltmp79:
.LBB0_34:                               # %for.inc.i.8.i
                                        #   in Loop: Header=BB0_8 Depth=1
	.loc	1 888 9                 # cg.c:888:9
	cmpq	%r13, %rcx
	jne	.LBB0_36
# BB#35:                                # %if.then.i.9.i
                                        #   in Loop: Header=BB0_8 Depth=1
.Ltmp80:
	.loc	1 889 12                # cg.c:889:12
	movq	%r14, 328(%rsp)
	#DEBUG_VALUE: vecset:set <- 1
	movl	$1, %eax
.Ltmp81:
.LBB0_36:                               # %for.inc.i.9.i
                                        #   in Loop: Header=BB0_8 Depth=1
	.loc	1 888 15                # cg.c:888:15
	movl	248(%rsp), %ecx
.Ltmp82:
	.loc	1 888 9 is_stmt 0       # cg.c:888:9
	cmpq	%r13, %rcx
	jne	.LBB0_38
# BB#37:                                # %for.inc.i.10.thread.i
                                        #   in Loop: Header=BB0_8 Depth=1
.Ltmp83:
	.loc	1 889 12 is_stmt 1      # cg.c:889:12
	movq	%r14, 336(%rsp)
	#DEBUG_VALUE: vecset:set <- 1
	movl	$11, %ecx
	movq	136(%rsp), %rdi         # 8-byte Reload
	jmp	.LBB0_40
.Ltmp84:
	.p2align	4, 0x90
.LBB0_38:                               # %for.inc.i.10.i
                                        #   in Loop: Header=BB0_8 Depth=1
	movl	$11, %ecx
.Ltmp85:
	.loc	1 893 11                # cg.c:893:11
	testl	%eax, %eax
	movq	136(%rsp), %rdi         # 8-byte Reload
	jne	.LBB0_40
# BB#39:                                # %if.then5.i.i
                                        #   in Loop: Header=BB0_8 Depth=1
.Ltmp86:
	.loc	1 894 14                # cg.c:894:14
	movq	%r14, 344(%rsp)
	.loc	1 895 14                # cg.c:895:14
	movl	%r13d, 252(%rsp)
	movl	$12, %ecx
.Ltmp87:
	.p2align	4, 0x90
.LBB0_40:                               # %vecset.exit.i
                                        #   in Loop: Header=BB0_8 Depth=1
	#DEBUG_VALUE: makea:ivelt <- 0
	.loc	1 641 18                # cg.c:641:18
	movl	%ecx, arow(,%r12,4)
.Ltmp88:
	.loc	1 643 5 discriminator 1 # cg.c:643:5
	movl	%ecx, %r14d
	decl	%ecx
	leaq	8(,%rcx,8), %rdx
	leaq	256(%rsp), %rsi
.Ltmp89:
	.loc	1 645 27                # cg.c:645:27
	callq	memcpy
	.loc	1 644 40                # cg.c:644:40
	leal	-1(%r15), %eax
	.loc	1 644 7 is_stmt 0       # cg.c:644:7
	shlq	$4, %r12
	.loc	1 644 27                # cg.c:644:27
	movl	%eax, acol(%r12,%r12,2)
	.loc	1 644 40                # cg.c:644:40
	decl	%ebp
	.loc	1 644 27                # cg.c:644:27
	movl	%ebp, acol+4(%r12,%r12,2)
.Ltmp90:
	.loc	1 643 5 is_stmt 1 discriminator 1 # cg.c:643:5
	leaq	-2(%r14), %rax
	cmpq	$8, %rax
	movl	$2, %esi
	movq	168(%rsp), %r8          # 8-byte Reload
.Ltmp91:
	.loc	1 644 40                # cg.c:644:40
	pcmpeqd	%xmm2, %xmm2
	jb	.LBB0_49
.Ltmp92:
# BB#41:                                # %min.iters.checked
                                        #   in Loop: Header=BB0_8 Depth=1
	.loc	1 643 5 discriminator 1 # cg.c:643:5
	movq	%rax, %rcx
	andq	$8, %rcx
	movq	%rax, %rdx
	andq	$8, %rdx
	movl	$2, %esi
	je	.LBB0_49
.Ltmp93:
# BB#42:                                # %vector.body.preheader
                                        #   in Loop: Header=BB0_8 Depth=1
	leaq	-8(%rdx), %rdi
	movq	%rdi, %rsi
	shrq	$3, %rsi
	btq	$3, %rdi
	movl	$0, %ebp
	jb	.LBB0_44
# BB#43:                                # %vector.body.prol
                                        #   in Loop: Header=BB0_8 Depth=1
.Ltmp94:
	.loc	1 644 29                # cg.c:644:29
	movdqu	216(%rsp), %xmm0
	movdqu	232(%rsp), %xmm1
	.loc	1 644 40 is_stmt 0      # cg.c:644:40
	paddd	%xmm2, %xmm0
	paddd	%xmm2, %xmm1
	.loc	1 644 27                # cg.c:644:27
	movdqu	%xmm0, acol+8(%r12,%r12,2)
	movdqu	%xmm1, acol+24(%r12,%r12,2)
	movl	$8, %ebp
.Ltmp95:
.LBB0_44:                               # %vector.body.preheader.split
                                        #   in Loop: Header=BB0_8 Depth=1
	testq	%rsi, %rsi
	je	.LBB0_47
# BB#45:                                # %vector.body.preheader.split.split
                                        #   in Loop: Header=BB0_8 Depth=1
	movq	%rdx, %rsi
	subq	%rbp, %rsi
.Ltmp96:
	.loc	1 637 3 is_stmt 1 discriminator 1 # cg.c:637:3
	leaq	264(%rsp), %rdi
	leaq	(%rdi,%rbp,4), %rdi
	leaq	(%r8,%rbp,4), %rbp
.Ltmp97:
	.p2align	4, 0x90
.LBB0_46:                               # %vector.body
                                        #   Parent Loop BB0_8 Depth=1
                                        # =>  This Inner Loop Header: Depth=2
	.loc	1 644 29                # cg.c:644:29
	movdqu	-48(%rdi), %xmm0
	movdqu	-32(%rdi), %xmm1
	.loc	1 644 40 is_stmt 0      # cg.c:644:40
	paddd	%xmm2, %xmm0
	paddd	%xmm2, %xmm1
	.loc	1 644 27                # cg.c:644:27
	movdqu	%xmm0, -48(%rbp)
	movdqu	%xmm1, -32(%rbp)
	.loc	1 644 29                # cg.c:644:29
	movdqu	-16(%rdi), %xmm0
	movdqu	(%rdi), %xmm1
	.loc	1 644 40                # cg.c:644:40
	paddd	%xmm2, %xmm0
	paddd	%xmm2, %xmm1
	.loc	1 644 27                # cg.c:644:27
	movdqu	%xmm0, -16(%rbp)
	movdqu	%xmm1, (%rbp)
.Ltmp98:
	.loc	1 643 5 is_stmt 1 discriminator 1 # cg.c:643:5
	addq	$64, %rdi
	addq	$64, %rbp
	addq	$-16, %rsi
	jne	.LBB0_46
.LBB0_47:                               # %middle.block
                                        #   in Loop: Header=BB0_8 Depth=1
	cmpq	%rdx, %rax
	movq	176(%rsp), %rdx         # 8-byte Reload
	je	.LBB0_7
# BB#48:                                #   in Loop: Header=BB0_8 Depth=1
	orq	$2, %rcx
	movq	%rcx, %rsi
.Ltmp99:
	.p2align	4, 0x90
.LBB0_49:                               # %for.body7.for.body7_crit_edge.i.for.body7.for.body7_crit_edge.i_crit_edge.preheader
                                        #   in Loop: Header=BB0_8 Depth=1
	movq	176(%rsp), %rdx         # 8-byte Reload
.Ltmp100:
	.loc	1 644 29                # cg.c:644:29
	leaq	(%rdx,%rsi,4), %rax
	.p2align	4, 0x90
.LBB0_50:                               # %for.body7.for.body7_crit_edge.i.for.body7.for.body7_crit_edge.i_crit_edge
                                        #   Parent Loop BB0_8 Depth=1
                                        # =>  This Inner Loop Header: Depth=2
	movl	208(%rsp,%rsi,4), %ecx
	.loc	1 644 40 is_stmt 0      # cg.c:644:40
	decl	%ecx
	.loc	1 644 27                # cg.c:644:27
	movl	%ecx, (%rax)
.Ltmp101:
	.loc	1 643 5 is_stmt 1 discriminator 1 # cg.c:643:5
	incq	%rsi
	.loc	1 643 27 is_stmt 0 discriminator 1 # cg.c:643:27
	addq	$4, %rax
	cmpq	%r14, %rsi
	jl	.LBB0_50
.Ltmp102:
.LBB0_7:                                # %for.cond.loopexit.i
                                        #   in Loop: Header=BB0_8 Depth=1
	.loc	1 637 3 is_stmt 1 discriminator 1 # cg.c:637:3
	addq	$48, %r8
	addq	$48, %rdx
	cmpl	%ebx, %r13d
.Ltmp103:
	.loc	1 889 12                # cg.c:889:12
	movabsq	$4602678819172646912, %r14 # imm = 0x3FE0000000000000
	jne	.LBB0_8
.Ltmp104:
.LBB0_51:                               # %for.end22.i
	#DEBUG_VALUE: sparse:nozer <- 0
	#DEBUG_VALUE: sparse:firstrow <- 0
	#DEBUG_VALUE: sparse:rcond <- 1.000000e-01
	#DEBUG_VALUE: sparse:shift <- 2.000000e+01
	#DEBUG_VALUE: sparse:j <- 0
	movq	192(%rsp), %r14         # 8-byte Reload
.Ltmp105:
	.loc	1 691 30                # cg.c:691:30
	leal	1(%r14), %r15d
.Ltmp106:
	.loc	1 697 5                 # cg.c:697:5
	leaq	4(,%r15,4), %rdx
	xorl	%ebp, %ebp
	.loc	1 697 15 is_stmt 0      # cg.c:697:15
	movl	$rowstr, %edi
	xorl	%esi, %esi
	callq	memset
.Ltmp107:
	.loc	1 700 3 is_stmt 1 discriminator 1 # cg.c:700:3
	cmpb	$0, 144(%rsp)           # 1-byte Folded Reload
	je	.LBB0_60
.Ltmp108:
# BB#52:
	.loc	1 653 3                 # cg.c:653:3
	xorl	%r8d, %r8d
	xorl	%r9d, %r9d
	.p2align	4, 0x90
.LBB0_53:                               # %for.cond5.preheader.i.i
                                        # =>This Loop Header: Depth=1
                                        #     Child Loop BB0_58 Depth 2
.Ltmp109:
	.loc	1 701 5 discriminator 1 # cg.c:701:5
	movslq	arow(,%r9,4), %rdx
	.loc	1 701 25 is_stmt 0 discriminator 1 # cg.c:701:25
	testq	%rdx, %rdx
	jle	.LBB0_59
# BB#54:                                # %for.body9.lr.ph.i.i
                                        #   in Loop: Header=BB0_53 Depth=1
	.loc	1 701 5 discriminator 1 # cg.c:701:5
	testb	$1, %dl
	movl	$0, %eax
	je	.LBB0_56
.Ltmp110:
# BB#55:                                # %for.body9.i.i.prol
                                        #   in Loop: Header=BB0_53 Depth=1
	.loc	1 702 11 is_stmt 1      # cg.c:702:11
	leaq	(%r9,%r9,2), %rax
	shlq	$4, %rax
	.loc	1 703 19                # cg.c:703:19
	movslq	acol(%rax), %rax
	.loc	1 703 17 is_stmt 0      # cg.c:703:17
	addl	%edx, rowstr+4(,%rax,4)
	movl	$1, %eax
.Ltmp111:
.LBB0_56:                               # %for.body9.lr.ph.i.i.split
                                        #   in Loop: Header=BB0_53 Depth=1
	.loc	1 701 5 is_stmt 1 discriminator 1 # cg.c:701:5
	cmpl	$1, %edx
	je	.LBB0_59
# BB#57:                                # %for.body9.lr.ph.i.i.split.split
                                        #   in Loop: Header=BB0_53 Depth=1
	movq	%rdx, %rsi
	subq	%rax, %rsi
	leaq	(%r8,%rax,4), %rdi
.Ltmp112:
	.loc	1 653 3                 # cg.c:653:3
	xorl	%eax, %eax
	.p2align	4, 0x90
.LBB0_58:                               # %for.body9.i.i
                                        #   Parent Loop BB0_53 Depth=1
                                        # =>  This Inner Loop Header: Depth=2
.Ltmp113:
	.loc	1 703 19                # cg.c:703:19
	movslq	acol(%rdi,%rax,4), %rcx
	.loc	1 703 17 is_stmt 0      # cg.c:703:17
	addl	%edx, rowstr+4(,%rcx,4)
	.loc	1 703 19                # cg.c:703:19
	movslq	acol+4(%rdi,%rax,4), %rcx
	.loc	1 703 17                # cg.c:703:17
	addl	%edx, rowstr+4(,%rcx,4)
.Ltmp114:
	.loc	1 701 5 is_stmt 1 discriminator 1 # cg.c:701:5
	addq	$2, %rax
	cmpq	%rax, %rsi
	jne	.LBB0_58
.Ltmp115:
.LBB0_59:                               # %for.inc25.i.i
                                        #   in Loop: Header=BB0_53 Depth=1
	.loc	1 700 3 discriminator 1 # cg.c:700:3
	incq	%r9
	addq	$48, %r8
	cmpl	%ebx, %r9d
	jne	.LBB0_53
.Ltmp116:
.LBB0_60:                               # %for.end27.i.i
	.loc	1 707 13                # cg.c:707:13
	movl	$0, rowstr(%rip)
.Ltmp117:
	#DEBUG_VALUE: sparse:j <- 1
	movl	$1, %eax
.Ltmp118:
	.loc	1 708 3 discriminator 1 # cg.c:708:3
	testb	$3, %r15b
	je	.LBB0_64
.Ltmp119:
# BB#61:                                # %for.body32.i.i.prol.preheader
	.loc	1 709 17                # cg.c:709:17
	movl	%r15d, %ecx
	andl	$3, %ecx
	xorl	%edx, %edx
	.loc	1 709 29 is_stmt 0      # cg.c:709:29
	xorl	%ebp, %ebp
	.p2align	4, 0x90
.LBB0_62:                               # %for.body32.i.i.prol
                                        # =>This Inner Loop Header: Depth=1
	movq	%rdx, %rax
	.loc	1 709 27                # cg.c:709:27
	addl	rowstr+4(,%rax,4), %ebp
	.loc	1 709 15                # cg.c:709:15
	movl	%ebp, rowstr+4(,%rax,4)
.Ltmp120:
	.loc	1 708 3 is_stmt 1 discriminator 1 # cg.c:708:3
	leaq	1(%rax), %rdx
	cmpl	%edx, %ecx
	jne	.LBB0_62
# BB#63:
	addq	$2, %rax
.LBB0_64:                               # %for.end27.i.i.split
	testb	$1, 95(%rsp)            # 1-byte Folded Reload
	je	.LBB0_67
# BB#65:                                # %for.end27.i.i.split.split
	movl	%r14d, %ecx
	addq	$2, %rcx
.Ltmp121:
	.p2align	4, 0x90
.LBB0_66:                               # %for.body32.i.i
                                        # =>This Inner Loop Header: Depth=1
	.loc	1 709 27                # cg.c:709:27
	addl	rowstr(,%rax,4), %ebp
	.loc	1 709 15 is_stmt 0      # cg.c:709:15
	movl	%ebp, rowstr(,%rax,4)
	.loc	1 709 27                # cg.c:709:27
	addl	rowstr+4(,%rax,4), %ebp
	.loc	1 709 15                # cg.c:709:15
	movl	%ebp, rowstr+4(,%rax,4)
	.loc	1 709 27                # cg.c:709:27
	addl	rowstr+8(,%rax,4), %ebp
	.loc	1 709 15                # cg.c:709:15
	movl	%ebp, rowstr+8(,%rax,4)
	.loc	1 709 27                # cg.c:709:27
	addl	rowstr+12(,%rax,4), %ebp
	.loc	1 709 15                # cg.c:709:15
	movl	%ebp, rowstr+12(,%rax,4)
.Ltmp122:
	.loc	1 708 3 is_stmt 1 discriminator 1 # cg.c:708:3
	addq	$4, %rax
	cmpl	%eax, %ecx
	jne	.LBB0_66
.Ltmp123:
.LBB0_67:                               # %for.end43.i.i
	.loc	1 711 9                 # cg.c:711:9
	movl	rowstr(,%r15,4), %ebp
	movq	%r15, 160(%rsp)         # 8-byte Spill
	.loc	1 711 23 is_stmt 0      # cg.c:711:23
	decl	%ebp
.Ltmp124:
	#DEBUG_VALUE: sparse:nza <- %EBP
	movl	152(%rsp), %r15d        # 4-byte Reload
.Ltmp125:
	.loc	1 717 11 is_stmt 1      # cg.c:717:11
	cmpl	%r15d, %ebp
.Ltmp126:
	.loc	1 717 7 is_stmt 0       # cg.c:717:7
	jg	.LBB0_196
.Ltmp127:
# BB#68:                                # %for.cond49.preheader.i.i
	#DEBUG_VALUE: sparse:nza <- %EBP
	.loc	1 727 14 is_stmt 1      # cg.c:727:14
	movl	%r14d, %r14d
	movq	%r14, 152(%rsp)         # 8-byte Spill
	leaq	4(,%r14,4), %rdx
	xorl	%r15d, %r15d
.Ltmp128:
	.loc	1 731 14                # cg.c:731:14
	movl	$iv, %edi
	xorl	%esi, %esi
	callq	memset
.Ltmp129:
	.loc	1 727 14                # cg.c:727:14
	movl	rowstr(%rip), %ebp
.Ltmp130:
	incq	%r14
	.p2align	4, 0x90
.LBB0_69:                               # %for.body51.i.i
                                        # =>This Inner Loop Header: Depth=1
.Ltmp131:
	#DEBUG_VALUE: sparse:k <- %EBP
	.loc	1 727 29 is_stmt 0 discriminator 1 # cg.c:727:29
	movl	rowstr+4(,%r15,4), %r12d
.Ltmp132:
	.loc	1 726 3 is_stmt 1 discriminator 1 # cg.c:726:3
	incq	%r15
.Ltmp133:
	.loc	1 727 5 discriminator 1 # cg.c:727:5
	cmpl	%r12d, %ebp
	jge	.LBB0_71
.Ltmp134:
# BB#70:                                # %for.body59.lr.ph.i.i
                                        #   in Loop: Header=BB0_69 Depth=1
	#DEBUG_VALUE: sparse:k <- %EBP
	movslq	%ebp, %r13
	leaq	a(,%r13,8), %rdi
	leal	1(%rbp), %eax
	cmpl	%eax, %r12d
	cmovgel	%r12d, %eax
	notl	%ebp
.Ltmp135:
	addl	%eax, %ebp
	leaq	8(,%rbp,8), %rdx
.Ltmp136:
	.loc	1 728 12                # cg.c:728:12
	xorl	%esi, %esi
	callq	memset
.Ltmp137:
	.loc	1 727 5 discriminator 1 # cg.c:727:5
	leaq	colidx(,%r13,4), %rdi
	leaq	4(,%rbp,4), %rdx
.Ltmp138:
	.loc	1 729 17                # cg.c:729:17
	movl	$255, %esi
	callq	memset
.Ltmp139:
.LBB0_71:                               # %for.end66.i.i
                                        #   in Loop: Header=BB0_69 Depth=1
	.loc	1 726 3 discriminator 1 # cg.c:726:3
	cmpl	%r15d, %r14d
.Ltmp140:
	.loc	1 727 14                # cg.c:727:14
	movl	%r12d, %ebp
	jne	.LBB0_69
.Ltmp141:
# BB#72:                                # %for.end71.i.i
	#DEBUG_VALUE: sparse:size <- 1.000000e+00
	.loc	1 738 29                # cg.c:738:29
	cvtsi2sdl	%ebx, %xmm0
	.loc	1 738 27 is_stmt 0      # cg.c:738:27
	movsd	.LCPI0_1(%rip), %xmm1   # xmm1 = mem[0],zero
	divsd	%xmm0, %xmm1
	.loc	1 738 11                # cg.c:738:11
	movsd	.LCPI0_2(%rip), %xmm0   # xmm0 = mem[0],zero
	callq	pow
.Ltmp142:
	#DEBUG_VALUE: sparse:i <- 0
	#DEBUG_VALUE: sparse:ratio <- %XMM0
	.loc	1 740 3 is_stmt 1 discriminator 1 # cg.c:740:3
	cmpb	$0, 144(%rsp)           # 1-byte Folded Reload
	je	.LBB0_85
.Ltmp143:
# BB#73:                                # %for.cond77.preheader.preheader.i.i
	#DEBUG_VALUE: sparse:ratio <- %XMM0
	.loc	1 741 25 discriminator 1 # cg.c:741:25
	movl	%ebx, %eax
	movq	%rax, 144(%rsp)         # 8-byte Spill
	xorl	%eax, %eax
	movsd	.LCPI0_3(%rip), %xmm1   # xmm1 = mem[0],zero
.Ltmp144:
	.loc	1 738 27                # cg.c:738:27
	movsd	.LCPI0_1(%rip), %xmm2   # xmm2 = mem[0],zero
	.loc	1 738 11 is_stmt 0      # cg.c:738:11
	movsd	.LCPI0_2(%rip), %xmm5   # xmm5 = mem[0],zero
.Ltmp145:
	.p2align	4, 0x90
.LBB0_74:                               # %for.cond77.preheader.i.i
                                        # =>This Loop Header: Depth=1
                                        #     Child Loop BB0_76 Depth 2
                                        #       Child Loop BB0_79 Depth 3
                                        #         Child Loop BB0_80 Depth 4
                                        #         Child Loop BB0_123 Depth 4
                                        #       Child Loop BB0_103 Depth 3
                                        #         Child Loop BB0_106 Depth 4
                                        #         Child Loop BB0_114 Depth 4
	.loc	1 745 29 is_stmt 1 discriminator 1 # cg.c:745:29
	movq	%rax, 136(%rsp)         # 8-byte Spill
	movslq	arow(,%rax,4), %rdx
	.loc	1 745 31 is_stmt 0 discriminator 1 # cg.c:745:31
	testq	%rdx, %rdx
	jle	.LBB0_129
.Ltmp146:
# BB#75:                                # %for.body96.lr.ph.preheader.i.i
                                        #   in Loop: Header=BB0_74 Depth=1
	.loc	1 653 3 is_stmt 1       # cg.c:653:3
	xorl	%ecx, %ecx
	.p2align	4, 0x90
.LBB0_76:                               # %for.body96.lr.ph.i.i
                                        #   Parent Loop BB0_74 Depth=1
                                        # =>  This Loop Header: Depth=2
                                        #       Child Loop BB0_79 Depth 3
                                        #         Child Loop BB0_80 Depth 4
                                        #         Child Loop BB0_123 Depth 4
                                        #       Child Loop BB0_103 Depth 3
                                        #         Child Loop BB0_106 Depth 4
                                        #         Child Loop BB0_114 Depth 4
.Ltmp147:
	.loc	1 744 22                # cg.c:744:22
	movq	%rcx, 168(%rsp)         # 8-byte Spill
	leaq	(%rax,%rax,2), %r10
	.loc	1 742 11                # cg.c:742:11
	movq	%r10, %r11
	shlq	$4, %r11
.Ltmp148:
	.loc	1 758 33 discriminator 1 # cg.c:758:33
	movslq	acol(%r11,%rcx,4), %rax
.Ltmp149:
	.loc	1 753 28 discriminator 1 # cg.c:753:28
	movq	%rax, 112(%rsp)         # 8-byte Spill
	movl	%eax, %ebp
.Ltmp150:
	#DEBUG_VALUE: sparse:nzrow <- 0
	.loc	1 746 16                # cg.c:746:16
	movslq	rowstr(,%rax,4), %r8
.Ltmp151:
	.loc	1 758 31 discriminator 1 # cg.c:758:31
	movslq	rowstr+4(,%rax,4), %r12
	.loc	1 758 9 is_stmt 0 discriminator 1 # cg.c:758:9
	cmpl	%r12d, %r8d
	jge	.LBB0_84
.Ltmp152:
# BB#77:                                # %for.body96.us.preheader.i.i
                                        #   in Loop: Header=BB0_76 Depth=2
	.loc	1 744 22 is_stmt 1      # cg.c:744:22
	shlq	$5, %r10
	movq	168(%rsp), %rax         # 8-byte Reload
	movsd	aelt(%r10,%rax,8), %xmm3 # xmm3 = mem[0],zero
	.loc	1 744 20 is_stmt 0      # cg.c:744:20
	mulsd	%xmm2, %xmm3
.Ltmp153:
	#DEBUG_VALUE: sparse:scale <- %XMM3
	.loc	1 763 34 is_stmt 1      # cg.c:763:34
	leal	-2(%r12), %ecx
	movl	%ecx, 96(%rsp)          # 4-byte Spill
	movq	136(%rsp), %rax         # 8-byte Reload
.Ltmp154:
	.loc	1 753 28 discriminator 1 # cg.c:753:28
	cmpq	%rax, %rbp
.Ltmp155:
	.loc	1 764 19                # cg.c:764:19
	movslq	%ecx, %r13
	jne	.LBB0_78
.Ltmp156:
# BB#102:                               # %for.body96.us.i.us.i.preheader
                                        #   in Loop: Header=BB0_76 Depth=2
	#DEBUG_VALUE: sparse:scale <- %XMM3
	.loc	1 746 16                # cg.c:746:16
	leaq	colidx(,%r8,4), %r9
	incq	%r13
	movq	%r13, 176(%rsp)         # 8-byte Spill
.Ltmp157:
	.loc	1 653 3                 # cg.c:653:3
	xorl	%r14d, %r14d
.Ltmp158:
	.p2align	4, 0x90
.LBB0_103:                              # %for.body96.us.i.us.i
                                        #   Parent Loop BB0_74 Depth=1
                                        #     Parent Loop BB0_76 Depth=2
                                        # =>    This Loop Header: Depth=3
                                        #         Child Loop BB0_106 Depth 4
                                        #         Child Loop BB0_114 Depth 4
	.loc	1 746 16                # cg.c:746:16
	movl	acol(%r11,%r14,4), %r13d
.Ltmp159:
	#DEBUG_VALUE: sparse:jcol <- %R13D
	movsd	aelt(%r10,%r14,8), %xmm4 # xmm4 = mem[0],zero
	.loc	1 747 29                # cg.c:747:29
	mulsd	%xmm3, %xmm4
.Ltmp160:
	#DEBUG_VALUE: sparse:va <- %XMM4
	.loc	1 753 18                # cg.c:753:18
	cmpl	%ebp, %r13d
.Ltmp161:
	#DEBUG_VALUE: sparse:cont40 <- 0
	jne	.LBB0_105
.Ltmp162:
# BB#104:                               #   in Loop: Header=BB0_103 Depth=3
	#DEBUG_VALUE: sparse:va <- %XMM4
	#DEBUG_VALUE: sparse:jcol <- %R13D
	.loc	1 754 19                # cg.c:754:19
	addsd	%xmm5, %xmm4
.Ltmp163:
	.loc	1 754 27 is_stmt 0      # cg.c:754:27
	addsd	%xmm1, %xmm4
.Ltmp164:
	#DEBUG_VALUE: sparse:va <- %XMM4
.LBB0_105:                              # %for.body96.us.i.us.i
                                        #   in Loop: Header=BB0_103 Depth=3
	#DEBUG_VALUE: sparse:jcol <- %R13D
	#DEBUG_VALUE: sparse:va <- %XMM4
	.loc	1 653 3 is_stmt 1       # cg.c:653:3
	movq	%r9, %rcx
	movq	%r8, %rax
.Ltmp165:
	.p2align	4, 0x90
.LBB0_106:                              # %for.body122.us.i.us.i
                                        #   Parent Loop BB0_74 Depth=1
                                        #     Parent Loop BB0_76 Depth=2
                                        #       Parent Loop BB0_103 Depth=3
                                        # =>      This Inner Loop Header: Depth=4
	.loc	1 759 15                # cg.c:759:15
	movl	(%rcx), %esi
	.loc	1 759 25 is_stmt 0      # cg.c:759:25
	cmpl	%r13d, %esi
.Ltmp166:
	.loc	1 759 15                # cg.c:759:15
	jg	.LBB0_112
# BB#107:                               # %if.else.us.i.us.i
                                        #   in Loop: Header=BB0_106 Depth=4
.Ltmp167:
	.loc	1 773 32 is_stmt 1      # cg.c:773:32
	cmpl	$-1, %esi
.Ltmp168:
	.loc	1 773 22 is_stmt 0      # cg.c:773:22
	je	.LBB0_111
# BB#108:                               # %if.else165.us.i.us.i
                                        #   in Loop: Header=BB0_106 Depth=4
.Ltmp169:
	.loc	1 777 32 is_stmt 1      # cg.c:777:32
	cmpl	%r13d, %esi
.Ltmp170:
	.loc	1 777 22 is_stmt 0      # cg.c:777:22
	je	.LBB0_110
.Ltmp171:
# BB#109:                               # %for.inc179.us.i.us.i
                                        #   in Loop: Header=BB0_106 Depth=4
	.loc	1 758 9 is_stmt 1 discriminator 1 # cg.c:758:9
	incq	%rax
	.loc	1 758 31 is_stmt 0 discriminator 1 # cg.c:758:31
	addq	$4, %rcx
	cmpq	%r12, %rax
	jl	.LBB0_106
	jmp	.LBB0_84
.Ltmp172:
	.p2align	4, 0x90
.LBB0_112:                              # %if.then127.us.i.us.i
                                        #   in Loop: Header=BB0_103 Depth=3
	.loc	1 763 41 is_stmt 1 discriminator 1 # cg.c:763:41
	cmpl	%eax, 96(%rsp)          # 4-byte Folded Reload
	jl	.LBB0_117
.Ltmp173:
# BB#113:                               # %for.body135.us.preheader.i.us.i
                                        #   in Loop: Header=BB0_103 Depth=3
	.loc	1 764 19                # cg.c:764:19
	movslq	%eax, %rsi
.Ltmp174:
	.loc	1 653 3                 # cg.c:653:3
	movq	176(%rsp), %rbx         # 8-byte Reload
	.p2align	4, 0x90
.LBB0_114:                              # %for.body135.us.i.us.i
                                        #   Parent Loop BB0_74 Depth=1
                                        #     Parent Loop BB0_76 Depth=2
                                        #       Parent Loop BB0_103 Depth=3
                                        # =>      This Inner Loop Header: Depth=4
.Ltmp175:
	.loc	1 766 32                # cg.c:766:32
	movl	colidx-4(,%rbx,4), %edi
.Ltmp176:
	.loc	1 764 19                # cg.c:764:19
	testl	%edi, %edi
	js	.LBB0_116
# BB#115:                               # %if.then140.us.i.us.i
                                        #   in Loop: Header=BB0_114 Depth=4
.Ltmp177:
	.loc	1 765 28                # cg.c:765:28
	movq	a-8(,%rbx,8), %r15
	.loc	1 765 26 is_stmt 0      # cg.c:765:26
	movq	%r15, a(,%rbx,8)
	.loc	1 766 30 is_stmt 1      # cg.c:766:30
	movl	%edi, colidx(,%rbx,4)
.Ltmp178:
.LBB0_116:                              # %for.inc152.us.i.us.i
                                        #   in Loop: Header=BB0_114 Depth=4
	.loc	1 763 41 discriminator 1 # cg.c:763:41
	decq	%rbx
	cmpq	%rsi, %rbx
	jg	.LBB0_114
.Ltmp179:
.LBB0_117:                              # %for.end153.us.i.us.i
                                        #   in Loop: Header=BB0_103 Depth=3
	.loc	1 769 23                # cg.c:769:23
	movl	%r13d, (%rcx)
	.loc	1 770 19                # cg.c:770:19
	movq	$0, a(,%rax,8)
.Ltmp180:
	#DEBUG_VALUE: sparse:cont40 <- 1
	jmp	.LBB0_118
.Ltmp181:
	.p2align	4, 0x90
.LBB0_111:                              # %if.then162.us.i.us.i
                                        #   in Loop: Header=BB0_103 Depth=3
	#DEBUG_VALUE: sparse:cont40 <- 1
	.loc	1 774 23                # cg.c:774:23
	movl	%r13d, (%rcx)
	jmp	.LBB0_118
.Ltmp182:
	.p2align	4, 0x90
.LBB0_110:                              # %if.then170.us.i.us.i
                                        #   in Loop: Header=BB0_103 Depth=3
	.loc	1 781 22                # cg.c:781:22
	movq	112(%rsp), %rcx         # 8-byte Reload
	incl	iv(,%rcx,4)
.Ltmp183:
	#DEBUG_VALUE: sparse:cont40 <- 1
.LBB0_118:                              # %if.end186.us.i.us.i
                                        #   in Loop: Header=BB0_103 Depth=3
	.loc	1 790 21                # cg.c:790:21
	addsd	a(,%rax,8), %xmm4
	.loc	1 790 14 is_stmt 0      # cg.c:790:14
	movsd	%xmm4, a(,%rax,8)
.Ltmp184:
	.loc	1 745 7 is_stmt 1 discriminator 1 # cg.c:745:7
	incq	%r14
	.loc	1 745 29 is_stmt 0 discriminator 1 # cg.c:745:29
	cmpq	%rdx, %r14
	jl	.LBB0_103
	jmp	.LBB0_128
.Ltmp185:
	.p2align	4, 0x90
.LBB0_78:                               # %for.body96.us.i.i.preheader
                                        #   in Loop: Header=BB0_76 Depth=2
	#DEBUG_VALUE: sparse:scale <- %XMM3
	.loc	1 746 16 is_stmt 1      # cg.c:746:16
	leaq	colidx(,%r8,4), %r14
	incq	%r13
.Ltmp186:
	.loc	1 653 3                 # cg.c:653:3
	xorl	%r9d, %r9d
.Ltmp187:
	.p2align	4, 0x90
.LBB0_79:                               # %for.body96.us.i.i
                                        #   Parent Loop BB0_74 Depth=1
                                        #     Parent Loop BB0_76 Depth=2
                                        # =>    This Loop Header: Depth=3
                                        #         Child Loop BB0_80 Depth 4
                                        #         Child Loop BB0_123 Depth 4
	.loc	1 746 16                # cg.c:746:16
	movl	acol(%r11,%r9,4), %ecx
.Ltmp188:
	#DEBUG_VALUE: sparse:jcol <- %ECX
	movsd	aelt(%r10,%r9,8), %xmm4 # xmm4 = mem[0],zero
	.loc	1 747 29                # cg.c:747:29
	mulsd	%xmm3, %xmm4
.Ltmp189:
	#DEBUG_VALUE: sparse:cont40 <- 0
	#DEBUG_VALUE: sparse:va <- %XMM4
	.loc	1 653 3                 # cg.c:653:3
	movq	%r14, %rsi
	movq	%r8, %rax
.Ltmp190:
	.p2align	4, 0x90
.LBB0_80:                               # %for.body122.us.i.i
                                        #   Parent Loop BB0_74 Depth=1
                                        #     Parent Loop BB0_76 Depth=2
                                        #       Parent Loop BB0_79 Depth=3
                                        # =>      This Inner Loop Header: Depth=4
	.loc	1 759 15                # cg.c:759:15
	movl	(%rsi), %edi
	.loc	1 759 25 is_stmt 0      # cg.c:759:25
	cmpl	%ecx, %edi
.Ltmp191:
	.loc	1 759 15                # cg.c:759:15
	jg	.LBB0_121
# BB#81:                                # %if.else.us.i.i
                                        #   in Loop: Header=BB0_80 Depth=4
.Ltmp192:
	.loc	1 773 32 is_stmt 1      # cg.c:773:32
	cmpl	$-1, %edi
.Ltmp193:
	.loc	1 773 22 is_stmt 0      # cg.c:773:22
	je	.LBB0_120
# BB#82:                                # %if.else165.us.i.i
                                        #   in Loop: Header=BB0_80 Depth=4
.Ltmp194:
	.loc	1 777 32 is_stmt 1      # cg.c:777:32
	cmpl	%ecx, %edi
.Ltmp195:
	.loc	1 777 22 is_stmt 0      # cg.c:777:22
	je	.LBB0_119
.Ltmp196:
# BB#83:                                # %for.inc179.us.i.i
                                        #   in Loop: Header=BB0_80 Depth=4
	.loc	1 758 9 is_stmt 1 discriminator 1 # cg.c:758:9
	incq	%rax
	.loc	1 758 31 is_stmt 0 discriminator 1 # cg.c:758:31
	addq	$4, %rsi
	cmpq	%r12, %rax
	jl	.LBB0_80
	jmp	.LBB0_84
.Ltmp197:
	.p2align	4, 0x90
.LBB0_121:                              # %if.then127.us.i.i
                                        #   in Loop: Header=BB0_79 Depth=3
	movq	%rdx, %r15
.Ltmp198:
	.loc	1 763 41 is_stmt 1 discriminator 1 # cg.c:763:41
	cmpl	%eax, 96(%rsp)          # 4-byte Folded Reload
	jl	.LBB0_126
.Ltmp199:
# BB#122:                               # %for.body135.us.preheader.i.i
                                        #   in Loop: Header=BB0_79 Depth=3
	.loc	1 764 19                # cg.c:764:19
	movslq	%eax, %rbx
.Ltmp200:
	.loc	1 653 3                 # cg.c:653:3
	movq	%r13, %rdi
	.p2align	4, 0x90
.LBB0_123:                              # %for.body135.us.i.i
                                        #   Parent Loop BB0_74 Depth=1
                                        #     Parent Loop BB0_76 Depth=2
                                        #       Parent Loop BB0_79 Depth=3
                                        # =>      This Inner Loop Header: Depth=4
.Ltmp201:
	.loc	1 766 32                # cg.c:766:32
	movl	colidx-4(,%rdi,4), %ebp
.Ltmp202:
	.loc	1 764 19                # cg.c:764:19
	testl	%ebp, %ebp
	js	.LBB0_125
# BB#124:                               # %if.then140.us.i.i
                                        #   in Loop: Header=BB0_123 Depth=4
.Ltmp203:
	.loc	1 765 28                # cg.c:765:28
	movq	a-8(,%rdi,8), %rdx
	.loc	1 765 26 is_stmt 0      # cg.c:765:26
	movq	%rdx, a(,%rdi,8)
	.loc	1 766 30 is_stmt 1      # cg.c:766:30
	movl	%ebp, colidx(,%rdi,4)
.Ltmp204:
.LBB0_125:                              # %for.inc152.us.i.i
                                        #   in Loop: Header=BB0_123 Depth=4
	.loc	1 763 41 discriminator 1 # cg.c:763:41
	decq	%rdi
	cmpq	%rbx, %rdi
	jg	.LBB0_123
.Ltmp205:
.LBB0_126:                              # %for.end153.us.i.i
                                        #   in Loop: Header=BB0_79 Depth=3
	.loc	1 769 23                # cg.c:769:23
	movl	%ecx, (%rsi)
	.loc	1 770 19                # cg.c:770:19
	movq	$0, a(,%rax,8)
.Ltmp206:
	#DEBUG_VALUE: sparse:cont40 <- 1
	movq	%r15, %rdx
	jmp	.LBB0_127
.Ltmp207:
	.p2align	4, 0x90
.LBB0_120:                              # %if.then162.us.i.i
                                        #   in Loop: Header=BB0_79 Depth=3
	#DEBUG_VALUE: sparse:cont40 <- 1
	.loc	1 774 23                # cg.c:774:23
	movl	%ecx, (%rsi)
	jmp	.LBB0_127
.Ltmp208:
	.p2align	4, 0x90
.LBB0_119:                              # %if.then170.us.i.i
                                        #   in Loop: Header=BB0_79 Depth=3
	.loc	1 781 22                # cg.c:781:22
	movq	112(%rsp), %rcx         # 8-byte Reload
	incl	iv(,%rcx,4)
.Ltmp209:
	#DEBUG_VALUE: sparse:cont40 <- 1
.LBB0_127:                              # %if.end186.us.i.i
                                        #   in Loop: Header=BB0_79 Depth=3
	.loc	1 790 21                # cg.c:790:21
	addsd	a(,%rax,8), %xmm4
	.loc	1 790 14 is_stmt 0      # cg.c:790:14
	movsd	%xmm4, a(,%rax,8)
.Ltmp210:
	.loc	1 745 7 is_stmt 1 discriminator 1 # cg.c:745:7
	incq	%r9
	.loc	1 745 29 is_stmt 0 discriminator 1 # cg.c:745:29
	cmpq	%rdx, %r9
	jl	.LBB0_79
.Ltmp211:
.LBB0_128:                              # %for.inc195.i.i
                                        #   in Loop: Header=BB0_76 Depth=2
	movq	168(%rsp), %rcx         # 8-byte Reload
.Ltmp212:
	.loc	1 741 5 is_stmt 1 discriminator 1 # cg.c:741:5
	incq	%rcx
	.loc	1 741 23 is_stmt 0 discriminator 1 # cg.c:741:23
	cmpq	%rdx, %rcx
	movq	136(%rsp), %rax         # 8-byte Reload
	jl	.LBB0_76
.Ltmp213:
.LBB0_129:                              # %for.end197.i.i
                                        #   in Loop: Header=BB0_74 Depth=1
	.loc	1 793 17 is_stmt 1      # cg.c:793:17
	mulsd	%xmm0, %xmm2
.Ltmp214:
	#DEBUG_VALUE: sparse:size <- %XMM2
	.loc	1 740 3 discriminator 1 # cg.c:740:3
	incq	%rax
	.loc	1 740 17 is_stmt 0 discriminator 1 # cg.c:740:17
	cmpq	144(%rsp), %rax         # 8-byte Folded Reload
	jl	.LBB0_74
.Ltmp215:
.LBB0_85:                               # %for.cond202.preheader.i.i
	.loc	1 799 3 is_stmt 1 discriminator 1 # cg.c:799:3
	testb	$1, 95(%rsp)            # 1-byte Folded Reload
	movq	160(%rsp), %r8          # 8-byte Reload
	je	.LBB0_94
.Ltmp216:
# BB#86:                                # %for.body205.preheader.i.i
	.loc	1 800 27                # cg.c:800:27
	movq	iv(%rip), %rcx
	.loc	1 800 16 is_stmt 0      # cg.c:800:16
	movq	%rcx, %rax
	shrq	$32, %rax
	.loc	1 800 25                # cg.c:800:25
	addl	%ecx, %eax
	.loc	1 800 14                # cg.c:800:14
	movl	%eax, iv+4(%rip)
.Ltmp217:
	.loc	1 799 3 is_stmt 1 discriminator 1 # cg.c:799:3
	cmpl	$2, %r8d
	je	.LBB0_94
.Ltmp218:
# BB#87:                                # %for.body205.i.for.body205.i_crit_edge.i.preheader
	movq	192(%rsp), %rcx         # 8-byte Reload
.Ltmp219:
	.loc	1 800 16                # cg.c:800:16
	leal	3(%rcx), %esi
	leal	-2(%rcx), %edx
	movl	$2, %ecx
	testb	$3, %sil
	je	.LBB0_91
# BB#88:                                # %for.body205.i.for.body205.i_crit_edge.i.prol.preheader
	andl	$3, %esi
	xorl	%edi, %edi
	.p2align	4, 0x90
.LBB0_89:                               # %for.body205.i.for.body205.i_crit_edge.i.prol
                                        # =>This Inner Loop Header: Depth=1
	movq	%rdi, %rcx
	.loc	1 800 25 is_stmt 0      # cg.c:800:25
	addl	iv+8(,%rcx,4), %eax
	.loc	1 800 14                # cg.c:800:14
	movl	%eax, iv+8(,%rcx,4)
.Ltmp220:
	.loc	1 799 3 is_stmt 1 discriminator 1 # cg.c:799:3
	leaq	1(%rcx), %rdi
	cmpl	%edi, %esi
	jne	.LBB0_89
# BB#90:
	addq	$3, %rcx
.Ltmp221:
.LBB0_91:                               # %for.body205.i.for.body205.i_crit_edge.i.preheader.split
	.loc	1 800 16                # cg.c:800:16
	cmpl	$3, %edx
	jb	.LBB0_94
# BB#92:                                # %for.body205.i.for.body205.i_crit_edge.i.preheader.split.split
	movq	152(%rsp), %rdx         # 8-byte Reload
	incq	%rdx
	.p2align	4, 0x90
.LBB0_93:                               # %for.body205.i.for.body205.i_crit_edge.i
                                        # =>This Inner Loop Header: Depth=1
	.loc	1 800 25 is_stmt 0      # cg.c:800:25
	addl	iv(,%rcx,4), %eax
	.loc	1 800 14                # cg.c:800:14
	movl	%eax, iv(,%rcx,4)
	.loc	1 800 25                # cg.c:800:25
	addl	iv+4(,%rcx,4), %eax
	.loc	1 800 14                # cg.c:800:14
	movl	%eax, iv+4(,%rcx,4)
	.loc	1 800 25                # cg.c:800:25
	addl	iv+8(,%rcx,4), %eax
	.loc	1 800 14                # cg.c:800:14
	movl	%eax, iv+8(,%rcx,4)
	.loc	1 800 25                # cg.c:800:25
	addl	iv+12(,%rcx,4), %eax
	.loc	1 800 14                # cg.c:800:14
	movl	%eax, iv+12(,%rcx,4)
.Ltmp222:
	.loc	1 799 3 is_stmt 1 discriminator 1 # cg.c:799:3
	addq	$4, %rcx
	cmpl	%ecx, %edx
	jne	.LBB0_93
.Ltmp223:
.LBB0_94:                               # %for.cond217.preheader.i.i
	.loc	1 805 12                # cg.c:805:12
	movq	rowstr(%rip), %r10
.Ltmp224:
	.loc	1 804 11                # cg.c:804:11
	movq	%r10, %rax
	shrq	$32, %rax
	movq	%rax, 176(%rsp)         # 8-byte Spill
	xorl	%r12d, %r12d
	movabsq	$8589934588, %rdi       # imm = 0x1FFFFFFFC
	.p2align	4, 0x90
.LBB0_95:                               # %for.body220.i.i
                                        # =>This Loop Header: Depth=1
                                        #     Child Loop BB0_181 Depth 2
                                        #     Child Loop BB0_186 Depth 2
                                        #     Child Loop BB0_189 Depth 2
.Ltmp225:
	.loc	1 805 12                # cg.c:805:12
	movl	%r10d, %eax
.Ltmp226:
	.loc	1 804 9                 # cg.c:804:9
	testq	%r12, %r12
.Ltmp227:
	.loc	1 653 3                 # cg.c:653:3
	movl	$0, %ecx
	jle	.LBB0_97
# BB#96:                                # %if.then223.i.i
                                        #   in Loop: Header=BB0_95 Depth=1
.Ltmp228:
	#DEBUG_VALUE: sparse:nza <- %EAX
	.loc	1 805 22                # cg.c:805:22
	movl	%eax, %ecx
	subl	iv-4(,%r12,4), %ecx
.Ltmp229:
	#DEBUG_VALUE: sparse:j1 <- %ECX
.LBB0_97:                               # %if.end231.i.i
                                        #   in Loop: Header=BB0_95 Depth=1
	.loc	1 809 10                # cg.c:809:10
	movl	rowstr+4(,%r12,4), %r10d
	.loc	1 809 24 is_stmt 0      # cg.c:809:24
	movl	iv(,%r12,4), %r15d
.Ltmp230:
	.loc	1 803 3 is_stmt 1 discriminator 1 # cg.c:803:3
	incq	%r12
.Ltmp231:
	.loc	1 809 22                # cg.c:809:22
	movl	%r10d, %r14d
	subl	%r15d, %r14d
.Ltmp232:
	#DEBUG_VALUE: sparse:j2 <- %R14D
	.loc	1 811 5 discriminator 1 # cg.c:811:5
	cmpl	%r14d, %ecx
.Ltmp233:
	#DEBUG_VALUE: sparse:k <- %ECX
	jge	.LBB0_130
.Ltmp234:
# BB#98:                                # %for.body243.preheader.i.i
                                        #   in Loop: Header=BB0_95 Depth=1
	#DEBUG_VALUE: sparse:k <- %ECX
	#DEBUG_VALUE: sparse:j2 <- %R14D
	.loc	1 812 14                # cg.c:812:14
	movslq	%ecx, %rbp
	movslq	%eax, %rbx
	leal	-1(%r10), %eax
	subl	%ecx, %eax
	subl	%r15d, %eax
	leaq	1(%rax), %r11
	cmpq	$4, %r11
	jb	.LBB0_184
.Ltmp235:
# BB#99:                                # %min.iters.checked501
                                        #   in Loop: Header=BB0_95 Depth=1
	#DEBUG_VALUE: sparse:j2 <- %R14D
	#DEBUG_VALUE: sparse:k <- %ECX
	movq	%r11, %rcx
.Ltmp236:
	andq	%rdi, %rcx
	je	.LBB0_184
.Ltmp237:
# BB#100:                               # %vector.memcheck
                                        #   in Loop: Header=BB0_95 Depth=1
	#DEBUG_VALUE: sparse:j2 <- %R14D
	movq	%rcx, 112(%rsp)         # 8-byte Spill
	leaq	a(,%rbp,8), %rcx
	movq	%rcx, 96(%rsp)          # 8-byte Spill
	leaq	(%rbp,%rax), %rdx
	leaq	a(,%rdx,8), %r13
	leaq	a(,%rbx,8), %rcx
	leaq	(%rbx,%rax), %r8
	leaq	a(,%r8,8), %r9
	leaq	colidx(,%rbp,4), %rdi
	leaq	colidx(,%rdx,4), %rsi
	leaq	colidx(,%rbx,4), %rdx
	leaq	colidx(,%r8,4), %r8
	cmpq	%r9, 96(%rsp)           # 8-byte Folded Reload
	setbe	%r9b
	cmpq	%r13, %rcx
	setbe	%r13b
	cmpq	%r8, %rdi
	setbe	%cl
	cmpq	%rsi, %rdx
	setbe	%dl
	testb	%r13b, %r9b
	jne	.LBB0_101
.Ltmp238:
# BB#175:                               # %vector.memcheck
                                        #   in Loop: Header=BB0_95 Depth=1
	#DEBUG_VALUE: sparse:j2 <- %R14D
	andb	%dl, %cl
	movabsq	$8589934588, %rdi       # imm = 0x1FFFFFFFC
	jne	.LBB0_176
.Ltmp239:
# BB#177:                               # %vector.body497.preheader
                                        #   in Loop: Header=BB0_95 Depth=1
	#DEBUG_VALUE: sparse:j2 <- %R14D
	.loc	1 653 3                 # cg.c:653:3
	incq	%rax
	andq	%rdi, %rax
	addq	$-4, %rax
	movq	%rax, %rcx
	shrq	$2, %rcx
	btq	$2, %rax
	movl	$0, %r9d
	jb	.LBB0_179
.Ltmp240:
# BB#178:                               # %vector.body497.prol
                                        #   in Loop: Header=BB0_95 Depth=1
	#DEBUG_VALUE: sparse:j2 <- %R14D
	.loc	1 812 14                # cg.c:812:14
	movups	a(,%rbx,8), %xmm0
	movupd	a+16(,%rbx,8), %xmm1
	.loc	1 812 12 is_stmt 0      # cg.c:812:12
	movups	%xmm0, a(,%rbp,8)
	movupd	%xmm1, a+16(,%rbp,8)
	.loc	1 813 19 is_stmt 1      # cg.c:813:19
	movupd	colidx(,%rbx,4), %xmm0
	.loc	1 813 17 is_stmt 0      # cg.c:813:17
	movupd	%xmm0, colidx(,%rbp,4)
	movl	$4, %r9d
.Ltmp241:
.LBB0_179:                              # %vector.body497.preheader.split
                                        #   in Loop: Header=BB0_95 Depth=1
	#DEBUG_VALUE: sparse:j2 <- %R14D
	.loc	1 653 3 is_stmt 1       # cg.c:653:3
	testq	%rcx, %rcx
	je	.LBB0_182
.Ltmp242:
# BB#180:                               # %vector.body497.preheader.split.split
                                        #   in Loop: Header=BB0_95 Depth=1
	#DEBUG_VALUE: sparse:j2 <- %R14D
	movq	112(%rsp), %r8          # 8-byte Reload
	subq	%r9, %r8
	leaq	(%r9,%rbp), %r13
	addq	%rbx, %r9
	xorl	%edx, %edx
.Ltmp243:
	.p2align	4, 0x90
.LBB0_181:                              # %vector.body497
                                        #   Parent Loop BB0_95 Depth=1
                                        # =>  This Inner Loop Header: Depth=2
	.loc	1 812 14                # cg.c:812:14
	leaq	(,%r9,8), %rsi
	movups	a(%rsi,%rdx,8), %xmm0
	movups	a+16(%rsi,%rdx,8), %xmm1
	.loc	1 812 12 is_stmt 0      # cg.c:812:12
	leaq	(,%r13,8), %rdi
	movups	%xmm0, a(%rdi,%rdx,8)
	movups	%xmm1, a+16(%rdi,%rdx,8)
	.loc	1 813 19 is_stmt 1      # cg.c:813:19
	leaq	(,%r9,4), %rax
	movups	colidx(%rax,%rdx,4), %xmm0
	.loc	1 813 17 is_stmt 0      # cg.c:813:17
	leaq	(,%r13,4), %rcx
	movups	%xmm0, colidx(%rcx,%rdx,4)
	.loc	1 812 14 is_stmt 1      # cg.c:812:14
	movups	a+32(%rsi,%rdx,8), %xmm0
	movupd	a+48(%rsi,%rdx,8), %xmm1
	.loc	1 812 12 is_stmt 0      # cg.c:812:12
	movups	%xmm0, a+32(%rdi,%rdx,8)
	movupd	%xmm1, a+48(%rdi,%rdx,8)
	.loc	1 813 19 is_stmt 1      # cg.c:813:19
	movupd	colidx+16(%rax,%rdx,4), %xmm0
	.loc	1 813 17 is_stmt 0      # cg.c:813:17
	movupd	%xmm0, colidx+16(%rcx,%rdx,4)
	.loc	1 812 14 is_stmt 1      # cg.c:812:14
	addq	$8, %rdx
	cmpq	%rdx, %r8
	jne	.LBB0_181
.LBB0_182:                              # %middle.block498
                                        #   in Loop: Header=BB0_95 Depth=1
	movq	112(%rsp), %rax         # 8-byte Reload
	cmpq	%rax, %r11
	movq	160(%rsp), %r8          # 8-byte Reload
	movabsq	$8589934588, %rdi       # imm = 0x1FFFFFFFC
	je	.LBB0_130
# BB#183:                               #   in Loop: Header=BB0_95 Depth=1
	addq	%rax, %rbx
	addq	%rax, %rbp
	jmp	.LBB0_184
.LBB0_101:                              #   in Loop: Header=BB0_95 Depth=1
.Ltmp244:
	#DEBUG_VALUE: sparse:j2 <- %R14D
	movq	160(%rsp), %r8          # 8-byte Reload
	movabsq	$8589934588, %rdi       # imm = 0x1FFFFFFFC
	jmp	.LBB0_184
.Ltmp245:
.LBB0_176:                              #   in Loop: Header=BB0_95 Depth=1
	#DEBUG_VALUE: sparse:j2 <- %R14D
	movq	160(%rsp), %r8          # 8-byte Reload
.Ltmp246:
	.p2align	4, 0x90
.LBB0_184:                              # %for.body243.i.i.preheader
                                        #   in Loop: Header=BB0_95 Depth=1
	leal	1(%r10), %eax
	subl	%r15d, %eax
	leal	1(%rbp), %edx
	subl	%edx, %eax
	movl	%r14d, %ecx
	subl	%edx, %ecx
	andl	$3, %eax
	je	.LBB0_187
# BB#185:                               # %for.body243.i.i.prol.preheader
                                        #   in Loop: Header=BB0_95 Depth=1
	negl	%eax
	.p2align	4, 0x90
.LBB0_186:                              # %for.body243.i.i.prol
                                        #   Parent Loop BB0_95 Depth=1
                                        # =>  This Inner Loop Header: Depth=2
	movq	a(,%rbx,8), %rdx
	.loc	1 812 12 is_stmt 0      # cg.c:812:12
	movq	%rdx, a(,%rbp,8)
	.loc	1 813 19 is_stmt 1      # cg.c:813:19
	movl	colidx(,%rbx,4), %edx
	.loc	1 813 17 is_stmt 0      # cg.c:813:17
	movl	%edx, colidx(,%rbp,4)
.Ltmp247:
	.loc	1 811 5 is_stmt 1 discriminator 1 # cg.c:811:5
	incq	%rbp
	incq	%rbx
	incl	%eax
	jne	.LBB0_186
.Ltmp248:
.LBB0_187:                              # %for.body243.i.i.preheader.split
                                        #   in Loop: Header=BB0_95 Depth=1
	.loc	1 812 14                # cg.c:812:14
	cmpl	$3, %ecx
	jb	.LBB0_130
# BB#188:                               # %for.body243.i.i.preheader.split.split
                                        #   in Loop: Header=BB0_95 Depth=1
	leaq	colidx+12(,%rbx,4), %rax
	leaq	a+24(,%rbx,8), %rcx
	subl	%ebp, %r14d
	leaq	colidx+12(,%rbp,4), %rsi
	leaq	a+24(,%rbp,8), %rbp
.Ltmp249:
	.loc	1 653 3                 # cg.c:653:3
	xorl	%ebx, %ebx
	.p2align	4, 0x90
.LBB0_189:                              # %for.body243.i.i
                                        #   Parent Loop BB0_95 Depth=1
                                        # =>  This Inner Loop Header: Depth=2
.Ltmp250:
	.loc	1 812 14                # cg.c:812:14
	movq	-24(%rcx,%rbx,8), %rdx
	.loc	1 812 12 is_stmt 0      # cg.c:812:12
	movq	%rdx, -24(%rbp,%rbx,8)
	.loc	1 813 19 is_stmt 1      # cg.c:813:19
	movl	-12(%rax,%rbx,4), %edx
	.loc	1 813 17 is_stmt 0      # cg.c:813:17
	movl	%edx, -12(%rsi,%rbx,4)
	.loc	1 812 14 is_stmt 1      # cg.c:812:14
	movq	-16(%rcx,%rbx,8), %rdx
	.loc	1 812 12 is_stmt 0      # cg.c:812:12
	movq	%rdx, -16(%rbp,%rbx,8)
	.loc	1 813 19 is_stmt 1      # cg.c:813:19
	movl	-8(%rax,%rbx,4), %edx
	.loc	1 813 17 is_stmt 0      # cg.c:813:17
	movl	%edx, -8(%rsi,%rbx,4)
	.loc	1 812 14 is_stmt 1      # cg.c:812:14
	movq	-8(%rcx,%rbx,8), %rdx
	.loc	1 812 12 is_stmt 0      # cg.c:812:12
	movq	%rdx, -8(%rbp,%rbx,8)
	.loc	1 813 19 is_stmt 1      # cg.c:813:19
	movl	-4(%rax,%rbx,4), %edx
	.loc	1 813 17 is_stmt 0      # cg.c:813:17
	movl	%edx, -4(%rsi,%rbx,4)
	.loc	1 812 14 is_stmt 1      # cg.c:812:14
	movq	(%rcx,%rbx,8), %rdx
	.loc	1 812 12 is_stmt 0      # cg.c:812:12
	movq	%rdx, (%rbp,%rbx,8)
	.loc	1 813 19 is_stmt 1      # cg.c:813:19
	movl	(%rax,%rbx,4), %edx
	.loc	1 813 17 is_stmt 0      # cg.c:813:17
	movl	%edx, (%rsi,%rbx,4)
.Ltmp251:
	.loc	1 811 5 is_stmt 1 discriminator 1 # cg.c:811:5
	addq	$4, %rbx
	cmpl	%ebx, %r14d
	jne	.LBB0_189
.Ltmp252:
.LBB0_130:                              # %for.cond217.loopexit.i.i
                                        #   in Loop: Header=BB0_95 Depth=1
	.loc	1 803 3 discriminator 1 # cg.c:803:3
	cmpl	%r8d, %r12d
	jne	.LBB0_95
.Ltmp253:
# BB#131:                               # %for.body263.i.i.preheader
	movq	176(%rsp), %rax         # 8-byte Reload
.Ltmp254:
	.loc	1 818 27                # cg.c:818:27
	subl	iv(%rip), %eax
	.loc	1 818 15 is_stmt 0      # cg.c:818:15
	movl	%eax, rowstr+4(%rip)
.Ltmp255:
	.loc	1 817 3 is_stmt 1 discriminator 1 # cg.c:817:3
	testb	$1, 95(%rsp)            # 1-byte Folded Reload
	movq	192(%rsp), %rbx         # 8-byte Reload
	movq	152(%rsp), %rbp         # 8-byte Reload
	je	.LBB0_135
# BB#132:                               # %for.body263.i.i.for.body263.i.i_crit_edge.lr.ph
	decl	%ebx
	incq	%rbx
	movl	$2, %ecx
	cmpq	$7, %rbx
	jbe	.LBB0_133
# BB#168:                               # %min.iters.checked552
	addq	$-4, %rdi
	movq	%rbx, %rax
	andq	%rdi, %rax
	andq	%rbx, %rdi
	movl	$2, %ecx
	je	.LBB0_133
.Ltmp256:
# BB#169:                               # %vector.body548.preheader
	leaq	-8(%rdi), %rsi
	movq	%rsi, %rdx
	shrq	$3, %rdx
	xorl	%ecx, %ecx
	btq	$3, %rsi
	jb	.LBB0_171
# BB#170:                               # %vector.body548.prol
.Ltmp257:
	.loc	1 818 17                # cg.c:818:17
	movdqu	rowstr+8(%rip), %xmm0
	movdqu	rowstr+24(%rip), %xmm1
	.loc	1 818 29 is_stmt 0      # cg.c:818:29
	movdqu	iv+4(%rip), %xmm2
	movdqu	iv+20(%rip), %xmm3
	.loc	1 818 27                # cg.c:818:27
	psubd	%xmm2, %xmm0
	psubd	%xmm3, %xmm1
	.loc	1 818 15                # cg.c:818:15
	movdqu	%xmm0, rowstr+8(%rip)
	movdqu	%xmm1, rowstr+24(%rip)
	movl	$8, %ecx
.LBB0_171:                              # %vector.body548.preheader.split
	testq	%rdx, %rdx
	je	.LBB0_173
	.p2align	4, 0x90
.LBB0_172:                              # %vector.body548
                                        # =>This Inner Loop Header: Depth=1
	.loc	1 818 17                # cg.c:818:17
	movdqu	rowstr+8(,%rcx,4), %xmm0
	movdqu	rowstr+24(,%rcx,4), %xmm1
	.loc	1 818 29                # cg.c:818:29
	movdqu	iv+4(,%rcx,4), %xmm2
	movdqu	iv+20(,%rcx,4), %xmm3
	.loc	1 818 27                # cg.c:818:27
	psubd	%xmm2, %xmm0
	psubd	%xmm3, %xmm1
	.loc	1 818 15                # cg.c:818:15
	movdqu	%xmm0, rowstr+8(,%rcx,4)
	movdqu	%xmm1, rowstr+24(,%rcx,4)
	.loc	1 818 17                # cg.c:818:17
	movdqu	rowstr+40(,%rcx,4), %xmm0
	movdqu	rowstr+56(,%rcx,4), %xmm1
	.loc	1 818 29                # cg.c:818:29
	movdqu	iv+36(,%rcx,4), %xmm2
	movdqu	iv+52(,%rcx,4), %xmm3
	.loc	1 818 27                # cg.c:818:27
	psubd	%xmm2, %xmm0
	psubd	%xmm3, %xmm1
	.loc	1 818 15                # cg.c:818:15
	movdqu	%xmm0, rowstr+40(,%rcx,4)
	movdqu	%xmm1, rowstr+56(,%rcx,4)
.Ltmp258:
	.loc	1 817 3 is_stmt 1 discriminator 1 # cg.c:817:3
	addq	$16, %rcx
	cmpq	%rcx, %rdi
	jne	.LBB0_172
.LBB0_173:                              # %middle.block549
	cmpq	%rdi, %rbx
	je	.LBB0_135
# BB#174:
	orq	$2, %rax
	movq	%rax, %rcx
.Ltmp259:
.LBB0_133:                              # %for.body263.i.i.for.body263.i.i_crit_edge.preheader
	.loc	1 818 17                # cg.c:818:17
	addq	$2, %rbp
	.p2align	4, 0x90
.LBB0_134:                              # %for.body263.i.i.for.body263.i.i_crit_edge
                                        # =>This Inner Loop Header: Depth=1
	.loc	1 818 29 is_stmt 0      # cg.c:818:29
	movl	iv-4(,%rcx,4), %eax
	.loc	1 818 15                # cg.c:818:15
	subl	%eax, rowstr(,%rcx,4)
.Ltmp260:
	.loc	1 817 3 is_stmt 1 discriminator 1 # cg.c:817:3
	incq	%rcx
	cmpl	%ecx, %ebp
	jne	.LBB0_134
.Ltmp261:
.LBB0_135:                              # %makea.exit
	#DEBUG_VALUE: main:j <- 0
	movq	$-112000, %rax          # imm = 0xFFFFFFFFFFFE4A80
.Ltmp262:
	.loc	1 230 10                # cg.c:230:10
	movapd	.LCPI0_4(%rip), %xmm0   # xmm0 = [1.000000e+00,1.000000e+00]
	.p2align	4, 0x90
.LBB0_136:                              # %vector.body573
                                        # =>This Inner Loop Header: Depth=1
	movapd	%xmm0, x+112000(%rax)
	movapd	%xmm0, x+112016(%rax)
	movapd	%xmm0, x+112032(%rax)
	movapd	%xmm0, x+112048(%rax)
	movapd	%xmm0, x+112064(%rax)
	movapd	%xmm0, x+112080(%rax)
	movapd	%xmm0, x+112096(%rax)
	movapd	%xmm0, x+112112(%rax)
	movapd	%xmm0, x+112128(%rax)
	movapd	%xmm0, x+112144(%rax)
	movapd	%xmm0, x+112160(%rax)
	movapd	%xmm0, x+112176(%rax)
	movapd	%xmm0, x+112192(%rax)
	movapd	%xmm0, x+112208(%rax)
	.loc	1 230 5 is_stmt 0       # cg.c:230:5
	addq	$224, %rax
	jne	.LBB0_136
# BB#137:                               # %for.body33
	.loc	1 230 10                # cg.c:230:10
	movabsq	$4607182418800017408, %r14 # imm = 0x3FF0000000000000
	movq	%r14, x+112000(%rip)
	movb	lastcol(%rip), %al
	andb	$1, %al
	movl	$112000, %eax           # imm = 0x1B580
.Ltmp263:
	.loc	1 232 3 is_stmt 1 discriminator 1 # cg.c:232:3
	movl	$8, %ebx
	cmovneq	%rax, %rbx
	xorl	%ebp, %ebp
.Ltmp264:
	.loc	1 233 10                # cg.c:233:10
	movl	$q, %edi
	xorl	%esi, %esi
	movq	%rbx, %rdx
	callq	memset
	.loc	1 234 10                # cg.c:234:10
	movl	$z, %edi
	xorl	%esi, %esi
	movq	%rbx, %rdx
	callq	memset
	.loc	1 235 10                # cg.c:235:10
	movl	$r, %edi
	xorl	%esi, %esi
	movq	%rbx, %rdx
	callq	memset
	.loc	1 236 10                # cg.c:236:10
	movl	$p, %edi
	xorl	%esi, %esi
	movq	%rbx, %rdx
	callq	memset
	leaq	200(%rsp), %rdi
.Ltmp265:
	#DEBUG_VALUE: main:rnorm <- [%RDI+0]
	.loc	1 250 5                 # cg.c:250:5
	callq	conj_grad
.Ltmp266:
	#DEBUG_VALUE: main:norm_temp2 <- 0.000000e+00
	#DEBUG_VALUE: main:norm_temp1 <- 0.000000e+00
	#DEBUG_VALUE: main:j <- 0
	movb	lastcol(%rip), %al
	andb	$1, %al
.Ltmp267:
	.loc	1 260 5 discriminator 1 # cg.c:260:5
	movl	$14000, %ecx            # imm = 0x36B0
	movl	$1, %eax
	cmovneq	%rcx, %rax
	xorpd	%xmm0, %xmm0
.Ltmp268:
	.p2align	4, 0x90
.LBB0_138:                              # %for.body62
                                        # =>This Inner Loop Header: Depth=1
	.loc	1 261 40                # cg.c:261:40
	movsd	z(,%rbp,8), %xmm1       # xmm1 = mem[0],zero
	.loc	1 262 38                # cg.c:262:38
	mulsd	%xmm1, %xmm1
	.loc	1 262 31 is_stmt 0      # cg.c:262:31
	addsd	%xmm1, %xmm0
.Ltmp269:
	#DEBUG_VALUE: main:norm_temp2 <- %XMM0
	.loc	1 260 5 is_stmt 1 discriminator 1 # cg.c:260:5
	incq	%rbp
	.loc	1 260 19 is_stmt 0 discriminator 1 # cg.c:260:19
	cmpq	%rax, %rbp
	.loc	1 260 5 discriminator 1 # cg.c:260:5
	jl	.LBB0_138
.Ltmp270:
# BB#139:                               # %for.end76
	#DEBUG_VALUE: main:norm_temp2 <- %XMM0
	.loc	1 265 24 is_stmt 1      # cg.c:265:24
	xorps	%xmm1, %xmm1
	sqrtsd	%xmm0, %xmm1
	.loc	1 265 22 is_stmt 0      # cg.c:265:22
	ucomisd	%xmm1, %xmm1
.Ltmp271:
	.loc	1 230 10 is_stmt 1      # cg.c:230:10
	movaps	.LCPI0_4(%rip), %xmm4   # xmm4 = [1.000000e+00,1.000000e+00]
	jnp	.LBB0_141
.Ltmp272:
# BB#140:                               # %call.sqrt
	#DEBUG_VALUE: main:norm_temp2 <- %XMM0
	.loc	1 265 22                # cg.c:265:22
	callq	sqrt
.Ltmp273:
	.loc	1 230 10                # cg.c:230:10
	movaps	.LCPI0_4(%rip), %xmm4   # xmm4 = [1.000000e+00,1.000000e+00]
.Ltmp274:
	.loc	1 265 22                # cg.c:265:22
	movapd	%xmm0, %xmm1
.Ltmp275:
.LBB0_141:                              # %for.end76.split
	.loc	1 738 27                # cg.c:738:27
	movsd	.LCPI0_1(%rip), %xmm0   # xmm0 = mem[0],zero
.Ltmp276:
	.loc	1 265 22                # cg.c:265:22
	divsd	%xmm1, %xmm0
.Ltmp277:
	#DEBUG_VALUE: main:norm_temp2 <- %XMM0
	#DEBUG_VALUE: main:j <- 0
	movb	lastcol(%rip), %al
	xorl	%edx, %edx
	andb	$1, %al
.Ltmp278:
	.loc	1 270 5 discriminator 1 # cg.c:270:5
	movl	$14000, %ecx            # imm = 0x36B0
	movl	$1, %eax
	cmovneq	%rcx, %rax
	je	.LBB0_146
.Ltmp279:
# BB#142:                               # %min.iters.checked591
	#DEBUG_VALUE: main:norm_temp2 <- %XMM0
	xorl	%edx, %edx
	movq	%rax, %rcx
	andq	$14000, %rcx            # imm = 0x36B0
	je	.LBB0_146
.Ltmp280:
# BB#143:                               # %vector.ph595.split
	#DEBUG_VALUE: main:norm_temp2 <- %XMM0
	movapd	%xmm0, %xmm1
	movlhps	%xmm1, %xmm1            # xmm1 = xmm1[0,0]
	xorl	%edx, %edx
.Ltmp281:
	.p2align	4, 0x90
.LBB0_144:                              # %vector.body586
                                        # =>This Inner Loop Header: Depth=1
	movapd	z(,%rdx,8), %xmm2
.Ltmp282:
	.loc	1 271 25                # cg.c:271:25
	mulpd	%xmm1, %xmm2
	movapd	z+16(,%rdx,8), %xmm3
	mulpd	%xmm1, %xmm3
	.loc	1 271 12 is_stmt 0      # cg.c:271:12
	movapd	%xmm2, x(,%rdx,8)
	movapd	%xmm3, x+16(,%rdx,8)
	movapd	z+32(,%rdx,8), %xmm2
	.loc	1 271 25                # cg.c:271:25
	mulpd	%xmm1, %xmm2
	movapd	z+48(,%rdx,8), %xmm3
	mulpd	%xmm1, %xmm3
	.loc	1 271 12                # cg.c:271:12
	movapd	%xmm2, x+32(,%rdx,8)
	movapd	%xmm3, x+48(,%rdx,8)
.Ltmp283:
	.loc	1 270 5 is_stmt 1 discriminator 1 # cg.c:270:5
	addq	$8, %rdx
	cmpq	%rdx, %rcx
	jne	.LBB0_144
# BB#145:                               # %middle.block587
	movq	$-112000, %rsi          # imm = 0xFFFFFFFFFFFE4A80
	cmpq	%rcx, %rax
	movq	%rcx, %rdx
	je	.LBB0_147
	.p2align	4, 0x90
.LBB0_146:                              # %for.body82
                                        # =>This Inner Loop Header: Depth=1
	movsd	z(,%rdx,8), %xmm1       # xmm1 = mem[0],zero
.Ltmp284:
	.loc	1 271 25                # cg.c:271:25
	mulsd	%xmm0, %xmm1
	.loc	1 271 12 is_stmt 0      # cg.c:271:12
	movsd	%xmm1, x(,%rdx,8)
.Ltmp285:
	.loc	1 270 5 is_stmt 1 discriminator 1 # cg.c:270:5
	incq	%rdx
	movq	$-112000, %rsi          # imm = 0xFFFFFFFFFFFE4A80
	.loc	1 270 19 is_stmt 0 discriminator 1 # cg.c:270:19
	cmpq	%rax, %rdx
	.loc	1 270 5 discriminator 1 # cg.c:270:5
	jl	.LBB0_146
.Ltmp286:
	.p2align	4, 0x90
.LBB0_147:                              # %vector.body610
                                        # =>This Inner Loop Header: Depth=1
	.loc	1 280 10 is_stmt 1      # cg.c:280:10
	movaps	%xmm4, x+112000(%rsi)
	movaps	%xmm4, x+112016(%rsi)
	movaps	%xmm4, x+112032(%rsi)
	movaps	%xmm4, x+112048(%rsi)
	movaps	%xmm4, x+112064(%rsi)
	movaps	%xmm4, x+112080(%rsi)
	movaps	%xmm4, x+112096(%rsi)
	movaps	%xmm4, x+112112(%rsi)
	movaps	%xmm4, x+112128(%rsi)
	movaps	%xmm4, x+112144(%rsi)
	movaps	%xmm4, x+112160(%rsi)
	movaps	%xmm4, x+112176(%rsi)
	movaps	%xmm4, x+112192(%rsi)
	movaps	%xmm4, x+112208(%rsi)
	.loc	1 280 5 is_stmt 0       # cg.c:280:5
	addq	$224, %rsi
	jne	.LBB0_147
# BB#148:                               # %for.body96
	.loc	1 280 10                # cg.c:280:10
	movq	%r14, x+112000(%rip)
.Ltmp287:
	#DEBUG_VALUE: main:zeta <- 0.000000e+00
	.loc	1 285 3 is_stmt 1       # cg.c:285:3
	xorl	%edi, %edi
	callq	timer_stop
	.loc	1 287 53                # cg.c:287:53
	xorl	%edi, %edi
	callq	timer_read
	.loc	1 287 3 is_stmt 0 discriminator 1 # cg.c:287:3
	movl	$.L.str.9, %edi
	movb	$1, %al
	callq	printf
	movl	$1, %ebx
	.loc	1 289 3 is_stmt 1       # cg.c:289:3
	movl	$1, %edi
	callq	timer_start
.Ltmp288:
	#DEBUG_VALUE: main:it <- 1
	leaq	200(%rsp), %r14
.Ltmp289:
	.loc	1 312 5 discriminator 1 # cg.c:312:5
	movl	$14000, %ebp            # imm = 0x36B0
.Ltmp290:
	.p2align	4, 0x90
.LBB0_149:                              # %for.body106
                                        # =>This Loop Header: Depth=1
                                        #     Child Loop BB0_154 Depth 2
                                        #     Child Loop BB0_162 Depth 2
                                        #     Child Loop BB0_164 Depth 2
	.loc	1 300 9                 # cg.c:300:9
	movzbl	timeron(%rip), %eax
	andl	$1, %eax
	cmpl	$1, %eax
	jne	.LBB0_151
# BB#150:                               # %if.then107
                                        #   in Loop: Header=BB0_149 Depth=1
.Ltmp291:
	.loc	1 300 18 is_stmt 0 discriminator 1 # cg.c:300:18
	movl	$2, %edi
	callq	timer_start
.Ltmp292:
.LBB0_151:                              # %if.end108
                                        #   in Loop: Header=BB0_149 Depth=1
	#DEBUG_VALUE: main:rnorm <- [%R14+0]
	.loc	1 301 5 is_stmt 1       # cg.c:301:5
	movq	%r14, %rdi
	callq	conj_grad
	.loc	1 302 9                 # cg.c:302:9
	movzbl	timeron(%rip), %eax
	andl	$1, %eax
	cmpl	$1, %eax
	jne	.LBB0_153
.Ltmp293:
# BB#152:                               # %if.then110
                                        #   in Loop: Header=BB0_149 Depth=1
	#DEBUG_VALUE: main:rnorm <- [%R14+0]
	.loc	1 302 18 is_stmt 0 discriminator 1 # cg.c:302:18
	movl	$2, %edi
	callq	timer_stop
.Ltmp294:
.LBB0_153:                              # %for.cond112.preheader
                                        #   in Loop: Header=BB0_149 Depth=1
	#DEBUG_VALUE: main:rnorm <- [%R14+0]
	movb	lastcol(%rip), %al
	andb	$1, %al
.Ltmp295:
	.loc	1 312 5 is_stmt 1 discriminator 1 # cg.c:312:5
	movl	$1, %eax
	cmovneq	%rbp, %rax
	xorpd	%xmm2, %xmm2
	xorl	%ecx, %ecx
.Ltmp296:
	.p2align	4, 0x90
.LBB0_154:                              # %for.body116
                                        #   Parent Loop BB0_149 Depth=1
                                        # =>  This Inner Loop Header: Depth=2
	.loc	1 314 37                # cg.c:314:37
	movsd	z(,%rcx,8), %xmm0       # xmm0 = mem[0],zero
	movapd	%xmm0, %xmm1
	movhpd	x(,%rcx,8), %xmm1       # xmm1 = xmm1[0],mem[0]
	movlhps	%xmm0, %xmm0            # xmm0 = xmm0[0,0]
	mulpd	%xmm1, %xmm0
	.loc	1 314 31 is_stmt 0      # cg.c:314:31
	addpd	%xmm0, %xmm2
.Ltmp297:
	.loc	1 312 5 is_stmt 1 discriminator 1 # cg.c:312:5
	incq	%rcx
	.loc	1 312 19 is_stmt 0 discriminator 1 # cg.c:312:19
	cmpq	%rax, %rcx
	.loc	1 312 5 discriminator 1 # cg.c:312:5
	jl	.LBB0_154
.Ltmp298:
# BB#155:                               # %for.end131
                                        #   in Loop: Header=BB0_149 Depth=1
	.loc	1 317 24 is_stmt 1      # cg.c:317:24
	sqrtsd	%xmm2, %xmm3
	.loc	1 317 22 is_stmt 0      # cg.c:317:22
	ucomisd	%xmm3, %xmm3
	jnp	.LBB0_157
# BB#156:                               # %call.sqrt462
                                        #   in Loop: Header=BB0_149 Depth=1
	movapd	%xmm2, %xmm0
	movapd	%xmm2, 96(%rsp)         # 16-byte Spill
	callq	sqrt
	movapd	96(%rsp), %xmm2         # 16-byte Reload
	movapd	%xmm0, %xmm3
.LBB0_157:                              # %for.end131.split
                                        #   in Loop: Header=BB0_149 Depth=1
	.loc	1 319 24 is_stmt 1      # cg.c:319:24
	shufpd	$1, %xmm2, %xmm2        # xmm2 = xmm2[1,0]
.Ltmp299:
	.loc	1 738 27                # cg.c:738:27
	movsd	.LCPI0_1(%rip), %xmm0   # xmm0 = mem[0],zero
.Ltmp300:
	.loc	1 319 24                # cg.c:319:24
	movapd	%xmm0, %xmm1
	divsd	%xmm2, %xmm1
	.loc	1 319 18 is_stmt 0      # cg.c:319:18
	addsd	.LCPI0_5(%rip), %xmm1
.Ltmp301:
	#DEBUG_VALUE: main:zeta <- %XMM1
	.loc	1 320 9 is_stmt 1       # cg.c:320:9
	cmpl	$1, %ebx
	jne	.LBB0_159
.Ltmp302:
# BB#158:                               # %if.then137
                                        #   in Loop: Header=BB0_149 Depth=1
	#DEBUG_VALUE: main:zeta <- %XMM1
	.loc	1 321 7                 # cg.c:321:7
	movl	$.Lstr.40, %edi
	movsd	%xmm1, 96(%rsp)         # 8-byte Spill
	movsd	%xmm3, 112(%rsp)        # 8-byte Spill
	callq	puts
	movsd	112(%rsp), %xmm3        # 8-byte Reload
                                        # xmm3 = mem[0],zero
	movsd	96(%rsp), %xmm1         # 8-byte Reload
                                        # xmm1 = mem[0],zero
.Ltmp303:
.LBB0_159:                              # %if.end139
                                        #   in Loop: Header=BB0_149 Depth=1
	.loc	1 738 27                # cg.c:738:27
	movsd	%xmm1, 96(%rsp)         # 8-byte Spill
	movsd	.LCPI0_1(%rip), %xmm0   # xmm0 = mem[0],zero
.Ltmp304:
	.loc	1 317 22                # cg.c:317:22
	divsd	%xmm3, %xmm0
.Ltmp305:
	#DEBUG_VALUE: main:norm_temp2 <- %XMM0
	movapd	%xmm0, 112(%rsp)        # 16-byte Spill
.Ltmp306:
	#DEBUG_VALUE: main:norm_temp2 <- [%RSP+112]
	.loc	1 322 50                # cg.c:322:50
	movsd	200(%rsp), %xmm0        # xmm0 = mem[0],zero
.Ltmp307:
	#DEBUG_VALUE: main:rnorm <- %XMM0
	.loc	1 322 5 is_stmt 0       # cg.c:322:5
	movl	$.L.str.11, %edi
	movb	$2, %al
	movl	%ebx, %esi
	callq	printf
.Ltmp308:
	movaps	112(%rsp), %xmm3        # 16-byte Reload
.Ltmp309:
	#DEBUG_VALUE: main:norm_temp2 <- %XMM3
	#DEBUG_VALUE: main:j <- 0
	movb	lastcol(%rip), %al
	andb	$1, %al
.Ltmp310:
	.loc	1 327 5 is_stmt 1 discriminator 1 # cg.c:327:5
	movl	$1, %eax
	cmovneq	%rbp, %rax
	movl	$0, %edx
	je	.LBB0_164
.Ltmp311:
# BB#160:                               # %min.iters.checked628
                                        #   in Loop: Header=BB0_149 Depth=1
	#DEBUG_VALUE: main:norm_temp2 <- %XMM3
	#DEBUG_VALUE: main:rnorm <- %XMM0
	movq	%rax, %rcx
	andq	$14000, %rcx            # imm = 0x36B0
	movl	$0, %edx
	je	.LBB0_164
.Ltmp312:
# BB#161:                               # %vector.ph632.split
                                        #   in Loop: Header=BB0_149 Depth=1
	#DEBUG_VALUE: main:rnorm <- %XMM0
	#DEBUG_VALUE: main:norm_temp2 <- %XMM3
	movaps	%xmm3, %xmm0
.Ltmp313:
	movlhps	%xmm0, %xmm0            # xmm0 = xmm0[0,0]
	xorl	%edx, %edx
.Ltmp314:
	.p2align	4, 0x90
.LBB0_162:                              # %vector.body623
                                        #   Parent Loop BB0_149 Depth=1
                                        # =>  This Inner Loop Header: Depth=2
	movapd	z(,%rdx,8), %xmm1
.Ltmp315:
	.loc	1 328 25                # cg.c:328:25
	mulpd	%xmm0, %xmm1
	movapd	z+16(,%rdx,8), %xmm2
	mulpd	%xmm0, %xmm2
	.loc	1 328 12 is_stmt 0      # cg.c:328:12
	movapd	%xmm1, x(,%rdx,8)
	movapd	%xmm2, x+16(,%rdx,8)
	movapd	z+32(,%rdx,8), %xmm1
	.loc	1 328 25                # cg.c:328:25
	mulpd	%xmm0, %xmm1
	movapd	z+48(,%rdx,8), %xmm2
	mulpd	%xmm0, %xmm2
	.loc	1 328 12                # cg.c:328:12
	movapd	%xmm1, x+32(,%rdx,8)
	movapd	%xmm2, x+48(,%rdx,8)
.Ltmp316:
	.loc	1 327 5 is_stmt 1 discriminator 1 # cg.c:327:5
	addq	$8, %rdx
	cmpq	%rdx, %rcx
	jne	.LBB0_162
# BB#163:                               # %middle.block624
                                        #   in Loop: Header=BB0_149 Depth=1
	cmpq	%rcx, %rax
	movq	%rcx, %rdx
	je	.LBB0_165
	.p2align	4, 0x90
.LBB0_164:                              # %for.body145
                                        #   Parent Loop BB0_149 Depth=1
                                        # =>  This Inner Loop Header: Depth=2
	movsd	z(,%rdx,8), %xmm0       # xmm0 = mem[0],zero
.Ltmp317:
	.loc	1 328 25                # cg.c:328:25
	mulsd	%xmm3, %xmm0
	.loc	1 328 12 is_stmt 0      # cg.c:328:12
	movsd	%xmm0, x(,%rdx,8)
.Ltmp318:
	.loc	1 327 5 is_stmt 1 discriminator 1 # cg.c:327:5
	incq	%rdx
	.loc	1 327 19 is_stmt 0 discriminator 1 # cg.c:327:19
	cmpq	%rax, %rdx
	.loc	1 327 5 discriminator 1 # cg.c:327:5
	jl	.LBB0_164
.Ltmp319:
.LBB0_165:                              # %for.inc154
                                        #   in Loop: Header=BB0_149 Depth=1
	.loc	1 296 31 is_stmt 1 discriminator 2 # cg.c:296:31
	incl	%ebx
.Ltmp320:
	#DEBUG_VALUE: main:it <- %EBX
	.loc	1 296 3 is_stmt 0 discriminator 1 # cg.c:296:3
	cmpl	$16, %ebx
	jne	.LBB0_149
.Ltmp321:
# BB#166:                               # %for.end156
	#DEBUG_VALUE: main:it <- %EBX
	.loc	1 332 3 is_stmt 1       # cg.c:332:3
	movl	$1, %ebx
.Ltmp322:
	movl	$1, %edi
	callq	timer_stop
	.loc	1 338 7                 # cg.c:338:7
	movl	$1, %edi
	callq	timer_read
	movsd	%xmm0, 112(%rsp)        # 8-byte Spill
.Ltmp323:
	#DEBUG_VALUE: main:t <- [%RSP+112]
	.loc	1 340 3                 # cg.c:340:3
	movl	$.Lstr.36, %edi
	callq	puts
.Ltmp324:
	#DEBUG_VALUE: main:epsilon <- 1.000000e-10
	movsd	.LCPI0_6(%rip), %xmm1   # xmm1 = mem[0],zero
.Ltmp325:
	.loc	1 344 21                # cg.c:344:21
	addsd	96(%rsp), %xmm1         # 8-byte Folded Reload
	.loc	1 344 11 is_stmt 0      # cg.c:344:11
	andpd	.LCPI0_7(%rip), %xmm1
	.loc	1 344 42                # cg.c:344:42
	divsd	.LCPI0_8(%rip), %xmm1
.Ltmp326:
	#DEBUG_VALUE: main:err <- %XMM1
	.loc	1 345 13 is_stmt 1      # cg.c:345:13
	movsd	.LCPI0_9(%rip), %xmm0   # xmm0 = mem[0],zero
	ucomisd	%xmm1, %xmm0
	jae	.LBB0_167
.Ltmp327:
# BB#190:                               # %if.else171
	#DEBUG_VALUE: main:err <- %XMM1
	#DEBUG_VALUE: main:verified <- 0
	.loc	1 352 7                 # cg.c:352:7
	movl	$.Lstr.37, %edi
	callq	puts
	.loc	1 353 7                 # cg.c:353:7
	movl	$.L.str.17, %edi
	movb	$1, %al
	movsd	96(%rsp), %xmm0         # 8-byte Reload
                                        # xmm0 = mem[0],zero
	callq	printf
	.loc	1 354 7                 # cg.c:354:7
	movsd	.LCPI0_8(%rip), %xmm0   # xmm0 = mem[0],zero
	movl	$.L.str.18, %edi
	movb	$1, %al
	callq	printf
	xorl	%ebx, %ebx
	jmp	.LBB0_191
.Ltmp328:
.LBB0_167:                              # %if.then167
	#DEBUG_VALUE: main:err <- %XMM1
	#DEBUG_VALUE: main:verified <- 1
	.loc	1 347 7                 # cg.c:347:7
	movl	$.Lstr.39, %edi
	movapd	%xmm1, 176(%rsp)        # 16-byte Spill
	callq	puts
	.loc	1 348 7                 # cg.c:348:7
	movl	$.L.str.14, %edi
	movb	$1, %al
	movsd	96(%rsp), %xmm0         # 8-byte Reload
                                        # xmm0 = mem[0],zero
	callq	printf
	.loc	1 349 7                 # cg.c:349:7
	movl	$.L.str.15, %edi
	movb	$1, %al
	movapd	176(%rsp), %xmm0        # 16-byte Reload
	callq	printf
.Ltmp329:
.LBB0_191:                              # %if.end179
	#DEBUG_VALUE: main:err <- %XMM1
	xorpd	%xmm1, %xmm1
.Ltmp330:
	movsd	112(%rsp), %xmm0        # 8-byte Reload
                                        # xmm0 = mem[0],zero
	.loc	1 362 7                 # cg.c:362:7
	ucomisd	%xmm1, %xmm0
	jne	.LBB0_192
	jnp	.LBB0_193
.LBB0_192:                              # %if.then182
.Ltmp331:
	.loc	1 366 29                # cg.c:366:29
	movsd	.LCPI0_10(%rip), %xmm1  # xmm1 = mem[0],zero
	divsd	%xmm0, %xmm1
	.loc	1 366 33 is_stmt 0      # cg.c:366:33
	divsd	.LCPI0_11(%rip), %xmm1
.Ltmp332:
	#DEBUG_VALUE: main:mflops <- %XMM1
.LBB0_193:                              # %if.end186
	.loc	1 371 3 is_stmt 1       # cg.c:371:3
	movl	%ebx, 8(%rsp)
	movq	$.L.str.27, 80(%rsp)
	movq	$.L.str.25, 72(%rsp)
	movq	$.L.str.25, 64(%rsp)
	movq	$.L.str.26, 56(%rsp)
	movq	$.L.str.25, 48(%rsp)
	movq	$.L.str.25, 40(%rsp)
	movq	$.L.str.25, 32(%rsp)
	movq	$.L.str.24, 24(%rsp)
	movq	$.L.str.23, 16(%rsp)
	movq	$.L.str.22, (%rsp)
	movl	$.L.str.21, %edi
	movl	$65, %esi
	movl	$14000, %edx            # imm = 0x36B0
	movl	$0, %ecx
	xorl	%r8d, %r8d
	movl	$15, %r9d
	callq	print_results
	movb	timeron(%rip), %al
	andb	$1, %al
	je	.LBB0_195
# BB#194:                               # %for.inc221.2
.Ltmp333:
	.loc	1 381 12                # cg.c:381:12
	movl	$1, %edi
	callq	timer_read
.Ltmp334:
	#DEBUG_VALUE: main:tmax <- %XMM0
	.loc	1 382 14                # cg.c:382:14
	xorpd	%xmm1, %xmm1
.Ltmp335:
	#DEBUG_VALUE: main:tmax <- 1.000000e+00
	.loc	1 382 9 is_stmt 0       # cg.c:382:9
	movapd	%xmm0, %xmm2
	cmpeqsd	%xmm1, %xmm2
.Ltmp336:
	.loc	1 738 27 is_stmt 1      # cg.c:738:27
	movsd	.LCPI0_1(%rip), %xmm1   # xmm1 = mem[0],zero
.Ltmp337:
	.loc	1 382 9                 # cg.c:382:9
	andpd	%xmm2, %xmm1
	andnpd	%xmm0, %xmm2
	orpd	%xmm1, %xmm2
	movsd	%xmm2, 96(%rsp)         # 8-byte Spill
	.loc	1 383 5                 # cg.c:383:5
	movl	$.Lstr.38, %edi
	callq	puts
.Ltmp338:
	#DEBUG_VALUE: main:i <- 0
	.loc	1 385 11                # cg.c:385:11
	xorl	%edi, %edi
	callq	timer_read
.Ltmp339:
	#DEBUG_VALUE: main:t <- %XMM0
	.loc	1 387 9                 # cg.c:387:9
	movl	$.L.str.29, %edi
	movl	$.L.str.2, %esi
	movb	$1, %al
	callq	printf
.Ltmp340:
	.loc	1 385 11                # cg.c:385:11
	movl	$1, %edi
	callq	timer_read
.Ltmp341:
	.loc	1 389 60                # cg.c:389:60
	movapd	%xmm0, %xmm1
	mulsd	.LCPI0_12(%rip), %xmm1
	.loc	1 389 66 is_stmt 0      # cg.c:389:66
	divsd	96(%rsp), %xmm1         # 8-byte Folded Reload
	.loc	1 389 9                 # cg.c:389:9
	movl	$.L.str.30, %edi
	movl	$.L.str.3, %esi
	movb	$2, %al
	callq	printf
.Ltmp342:
	.loc	1 385 11 is_stmt 1      # cg.c:385:11
	movl	$2, %edi
	callq	timer_read
.Ltmp343:
	.loc	1 389 60                # cg.c:389:60
	movsd	%xmm0, 112(%rsp)        # 8-byte Spill
	movapd	%xmm0, %xmm1
	mulsd	.LCPI0_12(%rip), %xmm1
	.loc	1 389 66 is_stmt 0      # cg.c:389:66
	divsd	96(%rsp), %xmm1         # 8-byte Folded Reload
	.loc	1 389 9                 # cg.c:389:9
	movl	$.L.str.30, %edi
	movl	$.L.str.4, %esi
	movb	$2, %al
	callq	printf
	movsd	96(%rsp), %xmm1         # 8-byte Reload
                                        # xmm1 = mem[0],zero
.Ltmp344:
	.loc	1 391 20 is_stmt 1      # cg.c:391:20
	movapd	%xmm1, %xmm0
	subsd	112(%rsp), %xmm0        # 8-byte Folded Reload
.Ltmp345:
	.loc	1 389 60                # cg.c:389:60
	movsd	.LCPI0_12(%rip), %xmm2  # xmm2 = mem[0],zero
.Ltmp346:
	.loc	1 392 64                # cg.c:392:64
	mulsd	%xmm0, %xmm2
	.loc	1 392 70 is_stmt 0      # cg.c:392:70
	divsd	%xmm1, %xmm2
	movapd	%xmm2, %xmm1
	.loc	1 392 11                # cg.c:392:11
	movl	$.L.str.31, %edi
	movl	$.L.str.32, %esi
	movb	$2, %al
	callq	printf
.Ltmp347:
.LBB0_195:                              # %if.end224
	.loc	1 399 1 is_stmt 1       # cg.c:399:1
	xorl	%eax, %eax
	addq	$360, %rsp              # imm = 0x168
	popq	%rbx
	popq	%r12
	popq	%r13
	popq	%r14
	popq	%r15
	popq	%rbp
	retq
.LBB0_84:                               # %if.then184.i.i
.Ltmp348:
	.loc	1 787 11                # cg.c:787:11
	movl	$.L.str.35, %edi
	xorl	%eax, %eax
	movq	136(%rsp), %rsi         # 8-byte Reload
	callq	printf
	.loc	1 788 11                # cg.c:788:11
	movl	$1, %edi
	callq	exit
.Ltmp349:
.LBB0_196:                              # %if.then.i5.i
	#DEBUG_VALUE: sparse:nza <- %EBP
	.loc	1 718 5                 # cg.c:718:5
	movl	$.Lstr.41, %edi
	callq	puts
	.loc	1 719 5                 # cg.c:719:5
	movl	$.L.str.34, %edi
	xorl	%eax, %eax
	movl	%ebp, %esi
	movl	%r15d, %edx
	callq	printf
	.loc	1 720 5                 # cg.c:720:5
	movl	$1, %edi
	callq	exit
.Ltmp350:
.Lfunc_end0:
	.size	main, .Lfunc_end0-main
	.cfi_endproc

	.p2align	4, 0x90
	.type	conj_grad,@function
conj_grad:                              # @conj_grad
.Lfunc_begin1:
	.loc	1 415 0                 # cg.c:415:0
	.cfi_startproc
# BB#0:                                 # %entry
	pushq	%rbp
.Ltmp351:
	.cfi_def_cfa_offset 16
	pushq	%r15
.Ltmp352:
	.cfi_def_cfa_offset 24
	pushq	%r14
.Ltmp353:
	.cfi_def_cfa_offset 32
	pushq	%r13
.Ltmp354:
	.cfi_def_cfa_offset 40
	pushq	%r12
.Ltmp355:
	.cfi_def_cfa_offset 48
	pushq	%rbx
.Ltmp356:
	.cfi_def_cfa_offset 56
	subq	$24, %rsp
.Ltmp357:
	.cfi_def_cfa_offset 80
.Ltmp358:
	.cfi_offset %rbx, -56
.Ltmp359:
	.cfi_offset %r12, -48
.Ltmp360:
	.cfi_offset %r13, -40
.Ltmp361:
	.cfi_offset %r14, -32
.Ltmp362:
	.cfi_offset %r15, -24
.Ltmp363:
	.cfi_offset %rbp, -16
	movq	%rdi, 16(%rsp)          # 8-byte Spill
.Ltmp364:
	#DEBUG_VALUE: conj_grad:j <- 0
	#DEBUG_VALUE: conj_grad:rho <- 0.000000e+00
	#DEBUG_VALUE: conj_grad:cgitmax <- 25
	movb	naa(%rip), %al
	andb	$1, %al
.Ltmp365:
	.loc	1 425 3 prologue_end discriminator 1 # cg.c:425:3
	movl	$112008, %eax           # imm = 0x1B588
	movl	$8, %ebx
	cmovneq	%rax, %rbx
	xorl	%ebp, %ebp
.Ltmp366:
	.loc	1 426 10                # cg.c:426:10
	movl	$q, %edi
	xorl	%esi, %esi
	movq	%rbx, %rdx
	callq	memset
	.loc	1 427 10                # cg.c:427:10
	movl	$z, %edi
	xorl	%esi, %esi
	movq	%rbx, %rdx
	callq	memset
	.loc	1 428 10                # cg.c:428:10
	movl	$r, %edi
	movl	$x, %esi
	movq	%rbx, %rdx
	callq	memcpy
	.loc	1 429 10                # cg.c:429:10
	movl	$p, %edi
	movl	$x, %esi
	movq	%rbx, %rdx
	callq	memcpy
	movb	lastcol(%rip), %r9b
	andb	$1, %r9b
.Ltmp367:
	.loc	1 436 3 discriminator 1 # cg.c:436:3
	movl	$14000, %ecx            # imm = 0x36B0
	movl	$1, %eax
	cmovneq	%rcx, %rax
	xorpd	%xmm2, %xmm2
	.p2align	4, 0x90
.LBB1_1:                                # %for.body14
                                        # =>This Inner Loop Header: Depth=1
.Ltmp368:
	.loc	1 437 17                # cg.c:437:17
	movsd	r(,%rbp,8), %xmm0       # xmm0 = mem[0],zero
	.loc	1 437 21 is_stmt 0      # cg.c:437:21
	mulsd	%xmm0, %xmm0
	.loc	1 437 15                # cg.c:437:15
	addsd	%xmm0, %xmm2
.Ltmp369:
	#DEBUG_VALUE: conj_grad:rho <- %XMM2
	.loc	1 436 3 is_stmt 1 discriminator 1 # cg.c:436:3
	incq	%rbp
	.loc	1 436 17 is_stmt 0 discriminator 1 # cg.c:436:17
	cmpq	%rax, %rbp
	.loc	1 436 3 discriminator 1 # cg.c:436:3
	jl	.LBB1_1
.Ltmp370:
# BB#2:                                 # %for.cond23.preheader
	#DEBUG_VALUE: conj_grad:rho <- %XMM2
	movb	lastrow(%rip), %cl
	andb	$1, %cl
.Ltmp371:
	.loc	1 445 3 is_stmt 1 discriminator 1 # cg.c:445:3
	movl	$14000, %ecx            # imm = 0x36B0
	movl	$1, %r12d
	movl	$1, %r13d
	cmovneq	%rcx, %r13
.Ltmp372:
	.loc	1 460 16                # cg.c:460:16
	movl	rowstr(%rip), %r11d
.Ltmp373:
	.loc	1 445 3 discriminator 1 # cg.c:445:3
	testb	%r9b, %r9b
	cmovneq	%rcx, %r12
.Ltmp374:
	.loc	1 527 5 discriminator 1 # cg.c:527:5
	movq	%r12, 8(%rsp)           # 8-byte Spill
	andl	$14000, %r12d           # imm = 0x36B0
	movl	$1, %r15d
	xorl	%r10d, %r10d
.Ltmp375:
	.loc	1 461 19                # cg.c:461:19
	xorpd	%xmm0, %xmm0
.Ltmp376:
	.p2align	4, 0x90
.LBB1_3:                                # %for.cond26.preheader
                                        # =>This Loop Header: Depth=1
                                        #     Child Loop BB1_4 Depth 2
                                        #       Child Loop BB1_9 Depth 3
                                        #     Child Loop BB1_11 Depth 2
                                        #     Child Loop BB1_15 Depth 2
                                        #     Child Loop BB1_17 Depth 2
                                        #     Child Loop BB1_18 Depth 2
                                        #     Child Loop BB1_22 Depth 2
                                        #     Child Loop BB1_24 Depth 2
	movapd	%xmm2, %xmm1
	.loc	1 460 16                # cg.c:460:16
	movl	%r11d, %esi
	xorl	%ebx, %ebx
	.p2align	4, 0x90
.LBB1_4:                                # %for.body30
                                        #   Parent Loop BB1_3 Depth=1
                                        # =>  This Loop Header: Depth=2
                                        #       Child Loop BB1_9 Depth 3
	movq	%rbx, %rdx
	movl	%esi, %edi
.Ltmp377:
	.loc	1 458 5 discriminator 1 # cg.c:458:5
	leaq	1(%rdx), %rbx
.Ltmp378:
	#DEBUG_VALUE: conj_grad:sum <- 0.000000e+00
	.loc	1 460 31 discriminator 1 # cg.c:460:31
	movl	rowstr+4(,%rdx,4), %esi
	xorpd	%xmm2, %xmm2
.Ltmp379:
	#DEBUG_VALUE: conj_grad:k <- %EDI
	.loc	1 460 7 is_stmt 0 discriminator 1 # cg.c:460:7
	cmpl	%esi, %edi
	xorpd	%xmm3, %xmm3
	jge	.LBB1_10
.Ltmp380:
# BB#5:                                 # %for.body38.lr.ph
                                        #   in Loop: Header=BB1_4 Depth=2
	#DEBUG_VALUE: conj_grad:k <- %EDI
	movslq	%esi, %rbp
	movslq	%edi, %rcx
	movl	%esi, %r8d
	subl	%edi, %r8d
	leaq	-1(%rbp), %r14
	xorpd	%xmm3, %xmm3
	testb	$1, %r8b
	jne	.LBB1_7
.Ltmp381:
# BB#6:                                 #   in Loop: Header=BB1_4 Depth=2
	#DEBUG_VALUE: conj_grad:k <- %EDI
	movq	%rcx, %rdi
.Ltmp382:
	jmp	.LBB1_8
	.p2align	4, 0x90
.LBB1_7:                                # %for.body38.prol
                                        #   in Loop: Header=BB1_4 Depth=2
.Ltmp383:
	#DEBUG_VALUE: conj_grad:k <- %EDI
	.loc	1 461 21 is_stmt 1      # cg.c:461:21
	movsd	a(,%rcx,8), %xmm3       # xmm3 = mem[0],zero
	.loc	1 461 26 is_stmt 0      # cg.c:461:26
	movslq	colidx(,%rcx,4), %rdi
.Ltmp384:
	.loc	1 461 25                # cg.c:461:25
	mulsd	p(,%rdi,8), %xmm3
	.loc	1 461 19                # cg.c:461:19
	addsd	%xmm0, %xmm3
.Ltmp385:
	#DEBUG_VALUE: conj_grad:sum <- %XMM3
	.loc	1 460 7 is_stmt 1 discriminator 1 # cg.c:460:7
	leaq	1(%rcx), %rdi
.Ltmp386:
.LBB1_8:                                # %for.body38.lr.ph.split
                                        #   in Loop: Header=BB1_4 Depth=2
	cmpq	%rcx, %r14
	je	.LBB1_10
	.p2align	4, 0x90
.LBB1_9:                                # %for.body38
                                        #   Parent Loop BB1_3 Depth=1
                                        #     Parent Loop BB1_4 Depth=2
                                        # =>    This Inner Loop Header: Depth=3
.Ltmp387:
	.loc	1 461 21                # cg.c:461:21
	movsd	a(,%rdi,8), %xmm4       # xmm4 = mem[0],zero
	.loc	1 461 26 is_stmt 0      # cg.c:461:26
	movslq	colidx(,%rdi,4), %rcx
	.loc	1 461 25                # cg.c:461:25
	mulsd	p(,%rcx,8), %xmm4
	.loc	1 461 19                # cg.c:461:19
	addsd	%xmm3, %xmm4
.Ltmp388:
	#DEBUG_VALUE: conj_grad:sum <- %XMM4
	.loc	1 461 21                # cg.c:461:21
	movsd	a+8(,%rdi,8), %xmm3     # xmm3 = mem[0],zero
	.loc	1 461 26                # cg.c:461:26
	movslq	colidx+4(,%rdi,4), %rcx
	.loc	1 461 25                # cg.c:461:25
	mulsd	p(,%rcx,8), %xmm3
	.loc	1 461 19                # cg.c:461:19
	addsd	%xmm4, %xmm3
.Ltmp389:
	.loc	1 460 7 is_stmt 1 discriminator 1 # cg.c:460:7
	addq	$2, %rdi
	.loc	1 460 29 is_stmt 0 discriminator 1 # cg.c:460:29
	cmpq	%rbp, %rdi
	.loc	1 460 7 discriminator 1 # cg.c:460:7
	jl	.LBB1_9
.Ltmp390:
.LBB1_10:                               # %for.end49
                                        #   in Loop: Header=BB1_4 Depth=2
	.loc	1 463 12 is_stmt 1      # cg.c:463:12
	movsd	%xmm3, q(,%rdx,8)
.Ltmp391:
	.loc	1 458 19 discriminator 1 # cg.c:458:19
	cmpq	%r13, %rbx
	movl	$0, %ecx
	jl	.LBB1_4
.Ltmp392:
	.p2align	4, 0x90
.LBB1_11:                               # %for.body59
                                        #   Parent Loop BB1_3 Depth=1
                                        # =>  This Inner Loop Header: Depth=2
	.loc	1 509 15                # cg.c:509:15
	movsd	p(,%rcx,8), %xmm3       # xmm3 = mem[0],zero
	.loc	1 509 19 is_stmt 0      # cg.c:509:19
	mulsd	q(,%rcx,8), %xmm3
	.loc	1 509 13                # cg.c:509:13
	addsd	%xmm3, %xmm2
.Ltmp393:
	#DEBUG_VALUE: conj_grad:d <- %XMM2
	.loc	1 508 5 is_stmt 1 discriminator 1 # cg.c:508:5
	incq	%rcx
	.loc	1 508 19 is_stmt 0 discriminator 1 # cg.c:508:19
	cmpq	%rax, %rcx
	.loc	1 508 5 discriminator 1 # cg.c:508:5
	jl	.LBB1_11
.Ltmp394:
# BB#12:                                # %for.end68
                                        #   in Loop: Header=BB1_3 Depth=1
	#DEBUG_VALUE: conj_grad:d <- %XMM2
	.loc	1 515 17 is_stmt 1      # cg.c:515:17
	movapd	%xmm1, %xmm3
	divsd	%xmm2, %xmm3
.Ltmp395:
	#DEBUG_VALUE: conj_grad:alpha <- %XMM3
	#DEBUG_VALUE: conj_grad:j <- 0
	#DEBUG_VALUE: conj_grad:rho <- 0.000000e+00
	.loc	1 527 5 discriminator 1 # cg.c:527:5
	testb	%r9b, %r9b
	movl	$0, %edx
	je	.LBB1_17
.Ltmp396:
# BB#13:                                # %min.iters.checked80
                                        #   in Loop: Header=BB1_3 Depth=1
	#DEBUG_VALUE: conj_grad:d <- %XMM2
	#DEBUG_VALUE: conj_grad:alpha <- %XMM3
	testq	%r12, %r12
	movl	$0, %edx
	je	.LBB1_17
.Ltmp397:
# BB#14:                                # %vector.ph84.split
                                        #   in Loop: Header=BB1_3 Depth=1
	#DEBUG_VALUE: conj_grad:alpha <- %XMM3
	#DEBUG_VALUE: conj_grad:d <- %XMM2
	movapd	%xmm3, %xmm2
.Ltmp398:
	movlhps	%xmm2, %xmm2            # xmm2 = xmm2[0,0]
	xorl	%edx, %edx
.Ltmp399:
	.p2align	4, 0x90
.LBB1_15:                               # %vector.body75
                                        #   Parent Loop BB1_3 Depth=1
                                        # =>  This Inner Loop Header: Depth=2
	movapd	p(,%rdx,8), %xmm4
.Ltmp400:
	.loc	1 528 26                # cg.c:528:26
	mulpd	%xmm2, %xmm4
	.loc	1 528 19 is_stmt 0      # cg.c:528:19
	addpd	z(,%rdx,8), %xmm4
	.loc	1 528 12                # cg.c:528:12
	movapd	%xmm4, z(,%rdx,8)
	.loc	1 529 14 is_stmt 1      # cg.c:529:14
	movapd	r(,%rdx,8), %xmm4
	movapd	q(,%rdx,8), %xmm5
	.loc	1 529 26 is_stmt 0      # cg.c:529:26
	mulpd	%xmm2, %xmm5
	.loc	1 529 19                # cg.c:529:19
	subpd	%xmm5, %xmm4
	.loc	1 529 12                # cg.c:529:12
	movapd	%xmm4, r(,%rdx,8)
	movapd	p+16(,%rdx,8), %xmm4
	.loc	1 528 26 is_stmt 1      # cg.c:528:26
	mulpd	%xmm2, %xmm4
	.loc	1 528 19 is_stmt 0      # cg.c:528:19
	addpd	z+16(,%rdx,8), %xmm4
	.loc	1 528 12                # cg.c:528:12
	movapd	%xmm4, z+16(,%rdx,8)
	.loc	1 529 14 is_stmt 1      # cg.c:529:14
	movapd	r+16(,%rdx,8), %xmm4
	movapd	q+16(,%rdx,8), %xmm5
	.loc	1 529 26 is_stmt 0      # cg.c:529:26
	mulpd	%xmm2, %xmm5
	.loc	1 529 19                # cg.c:529:19
	subpd	%xmm5, %xmm4
	.loc	1 529 12                # cg.c:529:12
	movapd	%xmm4, r+16(,%rdx,8)
.Ltmp401:
	.loc	1 527 5 is_stmt 1 discriminator 1 # cg.c:527:5
	addq	$4, %rdx
	cmpq	%rdx, %r12
	jne	.LBB1_15
# BB#16:                                # %middle.block76
                                        #   in Loop: Header=BB1_3 Depth=1
	xorpd	%xmm2, %xmm2
	cmpq	%r12, 8(%rsp)           # 8-byte Folded Reload
	movq	%r12, %rdx
	movl	$0, %ecx
	je	.LBB1_18
	.p2align	4, 0x90
.LBB1_17:                               # %for.body73
                                        #   Parent Loop BB1_3 Depth=1
                                        # =>  This Inner Loop Header: Depth=2
	movsd	p(,%rdx,8), %xmm2       # xmm2 = mem[0],zero
.Ltmp402:
	.loc	1 528 26                # cg.c:528:26
	mulsd	%xmm3, %xmm2
	.loc	1 528 19 is_stmt 0      # cg.c:528:19
	addsd	z(,%rdx,8), %xmm2
	.loc	1 528 12                # cg.c:528:12
	movsd	%xmm2, z(,%rdx,8)
	.loc	1 529 14 is_stmt 1      # cg.c:529:14
	movsd	r(,%rdx,8), %xmm2       # xmm2 = mem[0],zero
	movsd	q(,%rdx,8), %xmm4       # xmm4 = mem[0],zero
	.loc	1 529 26 is_stmt 0      # cg.c:529:26
	mulsd	%xmm3, %xmm4
	.loc	1 529 19                # cg.c:529:19
	subsd	%xmm4, %xmm2
	.loc	1 529 12                # cg.c:529:12
	movsd	%xmm2, r(,%rdx,8)
.Ltmp403:
	.loc	1 527 5 is_stmt 1 discriminator 1 # cg.c:527:5
	incq	%rdx
	xorpd	%xmm2, %xmm2
	.loc	1 527 19 is_stmt 0 discriminator 1 # cg.c:527:19
	cmpq	%rax, %rdx
	movl	$0, %ecx
	.loc	1 527 5 discriminator 1 # cg.c:527:5
	jl	.LBB1_17
.Ltmp404:
	.p2align	4, 0x90
.LBB1_18:                               # %for.body97
                                        #   Parent Loop BB1_3 Depth=1
                                        # =>  This Inner Loop Header: Depth=2
	.loc	1 537 19 is_stmt 1      # cg.c:537:19
	movsd	r(,%rcx,8), %xmm3       # xmm3 = mem[0],zero
	.loc	1 537 23 is_stmt 0      # cg.c:537:23
	mulsd	%xmm3, %xmm3
	.loc	1 537 17                # cg.c:537:17
	addsd	%xmm3, %xmm2
.Ltmp405:
	#DEBUG_VALUE: conj_grad:rho0 <- %XMM2
	#DEBUG_VALUE: conj_grad:rho <- %XMM2
	.loc	1 536 5 is_stmt 1 discriminator 1 # cg.c:536:5
	incq	%rcx
	.loc	1 536 19 is_stmt 0 discriminator 1 # cg.c:536:19
	cmpq	%rax, %rcx
	.loc	1 536 5 discriminator 1 # cg.c:536:5
	jl	.LBB1_18
.Ltmp406:
# BB#19:                                # %for.end106
                                        #   in Loop: Header=BB1_3 Depth=1
	#DEBUG_VALUE: conj_grad:rho <- %XMM2
	#DEBUG_VALUE: conj_grad:rho0 <- %XMM2
	.loc	1 543 16 is_stmt 1      # cg.c:543:16
	movapd	%xmm2, %xmm3
	divsd	%xmm1, %xmm3
.Ltmp407:
	#DEBUG_VALUE: conj_grad:beta <- %XMM3
	#DEBUG_VALUE: conj_grad:j <- 0
	.loc	1 548 5 discriminator 1 # cg.c:548:5
	testb	%r9b, %r9b
	movl	$0, %ecx
	je	.LBB1_24
.Ltmp408:
# BB#20:                                # %min.iters.checked
                                        #   in Loop: Header=BB1_3 Depth=1
	#DEBUG_VALUE: conj_grad:rho0 <- %XMM2
	#DEBUG_VALUE: conj_grad:rho <- %XMM2
	#DEBUG_VALUE: conj_grad:beta <- %XMM3
	testq	%r12, %r12
	movl	$0, %ecx
	je	.LBB1_24
.Ltmp409:
# BB#21:                                # %vector.ph.split
                                        #   in Loop: Header=BB1_3 Depth=1
	#DEBUG_VALUE: conj_grad:beta <- %XMM3
	#DEBUG_VALUE: conj_grad:rho <- %XMM2
	#DEBUG_VALUE: conj_grad:rho0 <- %XMM2
	movapd	%xmm3, %xmm1
	movlhps	%xmm1, %xmm1            # xmm1 = xmm1[0,0]
	xorl	%edx, %edx
.Ltmp410:
	.p2align	4, 0x90
.LBB1_22:                               # %vector.body
                                        #   Parent Loop BB1_3 Depth=1
                                        # =>  This Inner Loop Header: Depth=2
	movapd	p(,%rdx,8), %xmm4
.Ltmp411:
	.loc	1 549 25                # cg.c:549:25
	mulpd	%xmm1, %xmm4
	movapd	p+16(,%rdx,8), %xmm5
	mulpd	%xmm1, %xmm5
	.loc	1 549 19 is_stmt 0      # cg.c:549:19
	addpd	r(,%rdx,8), %xmm4
	addpd	r+16(,%rdx,8), %xmm5
	.loc	1 549 12                # cg.c:549:12
	movapd	%xmm4, p(,%rdx,8)
	movapd	%xmm5, p+16(,%rdx,8)
	movapd	p+32(,%rdx,8), %xmm4
	.loc	1 549 25                # cg.c:549:25
	mulpd	%xmm1, %xmm4
	movapd	p+48(,%rdx,8), %xmm5
	mulpd	%xmm1, %xmm5
	.loc	1 549 19                # cg.c:549:19
	addpd	r+32(,%rdx,8), %xmm4
	addpd	r+48(,%rdx,8), %xmm5
	.loc	1 549 12                # cg.c:549:12
	movapd	%xmm4, p+32(,%rdx,8)
	movapd	%xmm5, p+48(,%rdx,8)
.Ltmp412:
	.loc	1 548 5 is_stmt 1 discriminator 1 # cg.c:548:5
	addq	$8, %rdx
	cmpq	%rdx, %r12
	jne	.LBB1_22
# BB#23:                                # %middle.block
                                        #   in Loop: Header=BB1_3 Depth=1
	cmpq	%r12, 8(%rsp)           # 8-byte Folded Reload
	movq	%r12, %rcx
	je	.LBB1_25
	.p2align	4, 0x90
.LBB1_24:                               # %for.body112
                                        #   Parent Loop BB1_3 Depth=1
                                        # =>  This Inner Loop Header: Depth=2
	movsd	p(,%rcx,8), %xmm1       # xmm1 = mem[0],zero
.Ltmp413:
	.loc	1 549 25                # cg.c:549:25
	mulsd	%xmm3, %xmm1
	.loc	1 549 19 is_stmt 0      # cg.c:549:19
	addsd	r(,%rcx,8), %xmm1
	.loc	1 549 12                # cg.c:549:12
	movsd	%xmm1, p(,%rcx,8)
.Ltmp414:
	.loc	1 548 5 is_stmt 1 discriminator 1 # cg.c:548:5
	incq	%rcx
	.loc	1 548 19 is_stmt 0 discriminator 1 # cg.c:548:19
	cmpq	%rax, %rcx
	.loc	1 548 5 discriminator 1 # cg.c:548:5
	jl	.LBB1_24
.Ltmp415:
.LBB1_25:                               # %for.inc124
                                        #   in Loop: Header=BB1_3 Depth=1
	.loc	1 445 39 is_stmt 1 discriminator 2 # cg.c:445:39
	incl	%r15d
.Ltmp416:
	#DEBUG_VALUE: conj_grad:cgit <- %R15D
	.loc	1 445 3 is_stmt 0 discriminator 1 # cg.c:445:3
	cmpl	$26, %r15d
	jne	.LBB1_3
.Ltmp417:
# BB#26:
	#DEBUG_VALUE: conj_grad:cgit <- %R15D
	.loc	1 562 13 is_stmt 1      # cg.c:562:13
	xorpd	%xmm0, %xmm0
	xorl	%edi, %edi
.Ltmp418:
	.p2align	4, 0x90
.LBB1_27:                               # %for.body131
                                        # =>This Loop Header: Depth=1
                                        #     Child Loop BB1_32 Depth 2
	movq	%r10, %rdx
	.loc	1 561 14                # cg.c:561:14
	movl	%r11d, %ebp
.Ltmp419:
	.loc	1 559 3 discriminator 1 # cg.c:559:3
	leaq	1(%rdx), %r10
.Ltmp420:
	#DEBUG_VALUE: conj_grad:d <- 0.000000e+00
	.loc	1 561 29 discriminator 1 # cg.c:561:29
	movl	rowstr+4(,%rdx,4), %r11d
.Ltmp421:
	#DEBUG_VALUE: conj_grad:k <- %EBP
	.loc	1 561 5 is_stmt 0 discriminator 1 # cg.c:561:5
	cmpl	%r11d, %ebp
	xorpd	%xmm1, %xmm1
	jge	.LBB1_33
.Ltmp422:
# BB#28:                                # %for.body139.lr.ph
                                        #   in Loop: Header=BB1_27 Depth=1
	#DEBUG_VALUE: conj_grad:k <- %EBP
	movslq	%r11d, %rsi
	movslq	%ebp, %rcx
	movl	%r11d, %ebx
	subl	%ebp, %ebx
	leaq	-1(%rsi), %r8
	xorpd	%xmm1, %xmm1
	testb	$1, %bl
	jne	.LBB1_30
.Ltmp423:
# BB#29:                                #   in Loop: Header=BB1_27 Depth=1
	#DEBUG_VALUE: conj_grad:k <- %EBP
	movq	%rcx, %rbp
.Ltmp424:
	jmp	.LBB1_31
	.p2align	4, 0x90
.LBB1_30:                               # %for.body139.prol
                                        #   in Loop: Header=BB1_27 Depth=1
.Ltmp425:
	#DEBUG_VALUE: conj_grad:k <- %EBP
	.loc	1 562 15 is_stmt 1      # cg.c:562:15
	movsd	a(,%rcx,8), %xmm1       # xmm1 = mem[0],zero
	.loc	1 562 20 is_stmt 0      # cg.c:562:20
	movslq	colidx(,%rcx,4), %rbp
.Ltmp426:
	.loc	1 562 19                # cg.c:562:19
	mulsd	z(,%rbp,8), %xmm1
	.loc	1 562 13                # cg.c:562:13
	addsd	%xmm0, %xmm1
.Ltmp427:
	#DEBUG_VALUE: conj_grad:d <- %XMM1
	.loc	1 561 5 is_stmt 1 discriminator 1 # cg.c:561:5
	leaq	1(%rcx), %rbp
.Ltmp428:
.LBB1_31:                               # %for.body139.lr.ph.split
                                        #   in Loop: Header=BB1_27 Depth=1
	cmpq	%rcx, %r8
	je	.LBB1_33
	.p2align	4, 0x90
.LBB1_32:                               # %for.body139
                                        #   Parent Loop BB1_27 Depth=1
                                        # =>  This Inner Loop Header: Depth=2
.Ltmp429:
	.loc	1 562 15                # cg.c:562:15
	movsd	a(,%rbp,8), %xmm2       # xmm2 = mem[0],zero
	.loc	1 562 20 is_stmt 0      # cg.c:562:20
	movslq	colidx(,%rbp,4), %rcx
	.loc	1 562 19                # cg.c:562:19
	mulsd	z(,%rcx,8), %xmm2
	.loc	1 562 13                # cg.c:562:13
	addsd	%xmm1, %xmm2
.Ltmp430:
	#DEBUG_VALUE: conj_grad:d <- %XMM2
	.loc	1 562 15                # cg.c:562:15
	movsd	a+8(,%rbp,8), %xmm1     # xmm1 = mem[0],zero
	.loc	1 562 20                # cg.c:562:20
	movslq	colidx+4(,%rbp,4), %rcx
	.loc	1 562 19                # cg.c:562:19
	mulsd	z(,%rcx,8), %xmm1
	.loc	1 562 13                # cg.c:562:13
	addsd	%xmm2, %xmm1
.Ltmp431:
	.loc	1 561 5 is_stmt 1 discriminator 1 # cg.c:561:5
	addq	$2, %rbp
	.loc	1 561 27 is_stmt 0 discriminator 1 # cg.c:561:27
	cmpq	%rsi, %rbp
	.loc	1 561 5 discriminator 1 # cg.c:561:5
	jl	.LBB1_32
.Ltmp432:
.LBB1_33:                               # %for.end150
                                        #   in Loop: Header=BB1_27 Depth=1
	.loc	1 564 10 is_stmt 1      # cg.c:564:10
	movsd	%xmm1, r(,%rdx,8)
.Ltmp433:
	.loc	1 559 17 discriminator 1 # cg.c:559:17
	cmpq	%r13, %r10
	jl	.LBB1_27
.Ltmp434:
# BB#34:
	xorpd	%xmm0, %xmm0
	.p2align	4, 0x90
.LBB1_35:                               # %for.body160
                                        # =>This Inner Loop Header: Depth=1
.Ltmp435:
	.loc	1 571 11                # cg.c:571:11
	movsd	x(,%rdi,8), %xmm1       # xmm1 = mem[0],zero
	.loc	1 571 16 is_stmt 0      # cg.c:571:16
	subsd	r(,%rdi,8), %xmm1
.Ltmp436:
	#DEBUG_VALUE: conj_grad:d <- %XMM1
	.loc	1 572 18 is_stmt 1      # cg.c:572:18
	mulsd	%xmm1, %xmm1
.Ltmp437:
	.loc	1 572 15 is_stmt 0      # cg.c:572:15
	addsd	%xmm1, %xmm0
.Ltmp438:
	#DEBUG_VALUE: conj_grad:sum <- %XMM0
	.loc	1 570 3 is_stmt 1 discriminator 1 # cg.c:570:3
	incq	%rdi
	.loc	1 570 17 is_stmt 0 discriminator 1 # cg.c:570:17
	cmpq	%rax, %rdi
	.loc	1 570 3 discriminator 1 # cg.c:570:3
	jl	.LBB1_35
.Ltmp439:
# BB#36:                                # %for.end170
	#DEBUG_VALUE: conj_grad:sum <- %XMM0
	.loc	1 575 12 is_stmt 1      # cg.c:575:12
	xorps	%xmm1, %xmm1
	sqrtsd	%xmm0, %xmm1
	.loc	1 575 10 is_stmt 0      # cg.c:575:10
	ucomisd	%xmm1, %xmm1
	jnp	.LBB1_38
.Ltmp440:
# BB#37:                                # %call.sqrt
	#DEBUG_VALUE: conj_grad:sum <- %XMM0
	callq	sqrt
.Ltmp441:
	movapd	%xmm0, %xmm1
.LBB1_38:                               # %for.end170.split
	movq	16(%rsp), %rax          # 8-byte Reload
	movsd	%xmm1, (%rax)
	.loc	1 576 1 is_stmt 1       # cg.c:576:1
	addq	$24, %rsp
	popq	%rbx
	popq	%r12
	popq	%r13
	popq	%r14
	popq	%r15
	popq	%rbp
	retq
.Ltmp442:
.Lfunc_end1:
	.size	conj_grad, .Lfunc_end1-conj_grad
	.cfi_endproc

	.section	.rodata.cst8,"aM",@progbits,8
	.p2align	3
.LCPI2_0:
	.quad	4607182418800017408     # double 1
	.text
	.globl	print_results
	.p2align	4, 0x90
	.type	print_results,@function
print_results:                          # @print_results
.Lfunc_begin2:
	.file	6 "/home/norouzi/Desktop/software/benchmarks/NAS/NPB3.3-SER-C/common/print_results.c"
	.loc	6 10 0                  # print_results.c:10:0
	.cfi_startproc
# BB#0:                                 # %entry
	pushq	%rbp
.Ltmp443:
	.cfi_def_cfa_offset 16
	pushq	%r15
.Ltmp444:
	.cfi_def_cfa_offset 24
	pushq	%r14
.Ltmp445:
	.cfi_def_cfa_offset 32
	pushq	%r13
.Ltmp446:
	.cfi_def_cfa_offset 40
	pushq	%r12
.Ltmp447:
	.cfi_def_cfa_offset 48
	pushq	%rbx
.Ltmp448:
	.cfi_def_cfa_offset 56
	subq	$40, %rsp
.Ltmp449:
	.cfi_def_cfa_offset 96
.Ltmp450:
	.cfi_offset %rbx, -56
.Ltmp451:
	.cfi_offset %r12, -48
.Ltmp452:
	.cfi_offset %r13, -40
.Ltmp453:
	.cfi_offset %r14, -32
.Ltmp454:
	.cfi_offset %r15, -24
.Ltmp455:
	.cfi_offset %rbp, -16
	#DEBUG_VALUE: print_results:name <- %RDI
	#DEBUG_VALUE: print_results:class <- %ESI
	#DEBUG_VALUE: print_results:n1 <- %EDX
	#DEBUG_VALUE: print_results:n2 <- %ECX
	#DEBUG_VALUE: print_results:n3 <- %R8D
	#DEBUG_VALUE: print_results:niter <- %R9D
	#DEBUG_VALUE: print_results:t <- %XMM0
	#DEBUG_VALUE: print_results:mops <- %XMM1
	movsd	%xmm1, 8(%rsp)          # 8-byte Spill
.Ltmp456:
	#DEBUG_VALUE: print_results:mops <- [%RSP+8]
	movsd	%xmm0, (%rsp)           # 8-byte Spill
.Ltmp457:
	#DEBUG_VALUE: print_results:t <- [%RSP+0]
	movl	%r9d, %r14d
.Ltmp458:
	#DEBUG_VALUE: print_results:niter <- %R14D
	movl	%r8d, %r12d
.Ltmp459:
	#DEBUG_VALUE: print_results:n3 <- %R12D
	movl	%ecx, %r13d
.Ltmp460:
	#DEBUG_VALUE: print_results:n2 <- %R13D
	movl	%edx, %r15d
.Ltmp461:
	#DEBUG_VALUE: print_results:n1 <- %R15D
	movl	%esi, %ebx
.Ltmp462:
	#DEBUG_VALUE: print_results:class <- %EBX
	movq	%rdi, %rbp
	#DEBUG_VALUE: print_results:optype <- undef
	#DEBUG_VALUE: print_results:verified <- undef
.Ltmp463:
	#DEBUG_VALUE: print_results:name <- %RBP
	.loc	6 14 3 prologue_end     # print_results.c:14:3
	movl	$.L.str.5, %edi
	xorl	%eax, %eax
	movq	%rbp, %rsi
	callq	printf
.Ltmp464:
	.loc	6 15 3                  # print_results.c:15:3
	movl	$.L.str.1.6, %edi
	xorl	%eax, %eax
	movl	%ebx, %esi
.Ltmp465:
	#DEBUG_VALUE: print_results:class <- %ESI
	callq	printf
.Ltmp466:
	.loc	6 22 20                 # print_results.c:22:20
	movl	%r12d, %eax
	orl	%r13d, %eax
	je	.LBB2_1
.Ltmp467:
# BB#7:                                 # %if.else30
	#DEBUG_VALUE: print_results:class <- %ESI
	#DEBUG_VALUE: print_results:name <- %RBP
	#DEBUG_VALUE: print_results:n1 <- %R15D
	#DEBUG_VALUE: print_results:n2 <- %R13D
	#DEBUG_VALUE: print_results:n3 <- %R12D
	#DEBUG_VALUE: print_results:niter <- %R14D
	.loc	6 36 5                  # print_results.c:36:5
	movl	$.L.str.5.10, %edi
	xorl	%eax, %eax
	movl	%r15d, %esi
.Ltmp468:
	movl	%r13d, %edx
	movl	%r12d, %ecx
	callq	printf
	jmp	.LBB2_8
.Ltmp469:
.LBB2_1:                                # %if.then
	#DEBUG_VALUE: print_results:class <- %ESI
	#DEBUG_VALUE: print_results:name <- %RBP
	#DEBUG_VALUE: print_results:n1 <- %R15D
	#DEBUG_VALUE: print_results:n2 <- %R13D
	#DEBUG_VALUE: print_results:n3 <- %R12D
	#DEBUG_VALUE: print_results:niter <- %R14D
	.loc	6 23 29                 # print_results.c:23:29
	movzbl	(%rbp), %eax
	cmpl	$69, %eax
	jne	.LBB2_6
.Ltmp470:
# BB#2:                                 # %land.lhs.true8
	#DEBUG_VALUE: print_results:niter <- %R14D
	#DEBUG_VALUE: print_results:n3 <- %R12D
	#DEBUG_VALUE: print_results:n2 <- %R13D
	#DEBUG_VALUE: print_results:n1 <- %R15D
	#DEBUG_VALUE: print_results:name <- %RBP
	#DEBUG_VALUE: print_results:class <- %ESI
	.loc	6 23 10 is_stmt 0 discriminator 1 # print_results.c:23:10
	movzbl	1(%rbp), %eax
	cmpl	$80, %eax
	jne	.LBB2_6
.Ltmp471:
# BB#3:                                 # %if.then13
	#DEBUG_VALUE: print_results:class <- %ESI
	#DEBUG_VALUE: print_results:name <- %RBP
	#DEBUG_VALUE: print_results:n1 <- %R15D
	#DEBUG_VALUE: print_results:n2 <- %R13D
	#DEBUG_VALUE: print_results:n3 <- %R12D
	#DEBUG_VALUE: print_results:niter <- %R14D
	.loc	6 24 33 is_stmt 1       # print_results.c:24:33
	movsd	.LCPI2_0(%rip), %xmm0   # xmm0 = mem[0],zero
	movl	%r15d, %edi
	callq	ldexp
	leaq	16(%rsp), %rdi
	.loc	6 24 7 is_stmt 0 discriminator 1 # print_results.c:24:7
	movl	$.L.str.2.7, %esi
.Ltmp472:
	movb	$1, %al
	callq	sprintf
	movl	$15, %eax
.Ltmp473:
	#DEBUG_VALUE: print_results:j <- 14
	.loc	6 26 12 is_stmt 1       # print_results.c:26:12
	movzbl	30(%rsp), %ecx
	cmpl	$46, %ecx
	jne	.LBB2_5
.Ltmp474:
# BB#4:                                 # %if.then21
	#DEBUG_VALUE: print_results:niter <- %R14D
	#DEBUG_VALUE: print_results:n3 <- %R12D
	#DEBUG_VALUE: print_results:n2 <- %R13D
	#DEBUG_VALUE: print_results:n1 <- %R15D
	#DEBUG_VALUE: print_results:name <- %RBP
	.loc	6 27 17                 # print_results.c:27:17
	movb	$32, 30(%rsp)
	movl	$14, %eax
.Ltmp475:
	#DEBUG_VALUE: print_results:j <- 13
.LBB2_5:                                # %if.end
	#DEBUG_VALUE: print_results:niter <- %R14D
	#DEBUG_VALUE: print_results:n3 <- %R12D
	#DEBUG_VALUE: print_results:n2 <- %R13D
	#DEBUG_VALUE: print_results:n1 <- %R15D
	#DEBUG_VALUE: print_results:name <- %RBP
	.loc	6 30 17                 # print_results.c:30:17
	movb	$0, 16(%rsp,%rax)
	leaq	16(%rsp), %rsi
	.loc	6 31 7                  # print_results.c:31:7
	movl	$.L.str.3.8, %edi
	xorl	%eax, %eax
	callq	printf
	jmp	.LBB2_8
.Ltmp476:
.LBB2_6:                                # %if.else
	#DEBUG_VALUE: print_results:niter <- %R14D
	#DEBUG_VALUE: print_results:n3 <- %R12D
	#DEBUG_VALUE: print_results:n2 <- %R13D
	#DEBUG_VALUE: print_results:n1 <- %R15D
	#DEBUG_VALUE: print_results:name <- %RBP
	#DEBUG_VALUE: print_results:class <- %ESI
	.loc	6 33 7                  # print_results.c:33:7
	movl	$.L.str.4.9, %edi
	xorl	%eax, %eax
	movl	%r15d, %esi
.Ltmp477:
	callq	printf
.Ltmp478:
.LBB2_8:                                # %if.end32
	#DEBUG_VALUE: print_results:niter <- %R14D
	#DEBUG_VALUE: print_results:n3 <- %R12D
	#DEBUG_VALUE: print_results:n2 <- %R13D
	#DEBUG_VALUE: print_results:n1 <- %R15D
	#DEBUG_VALUE: print_results:name <- %RBP
	#DEBUG_VALUE: print_results:cs7 <- undef
	movq	168(%rsp), %r12
.Ltmp479:
	#DEBUG_VALUE: print_results:cs6 <- %R12
	movq	160(%rsp), %r13
.Ltmp480:
	#DEBUG_VALUE: print_results:cs5 <- %R13
	movq	152(%rsp), %r15
.Ltmp481:
	#DEBUG_VALUE: print_results:cs4 <- %R15
	movq	144(%rsp), %rbp
.Ltmp482:
	#DEBUG_VALUE: print_results:cs3 <- %RBP
	movq	136(%rsp), %rbx
	#DEBUG_VALUE: print_results:npbversion <- undef
	#DEBUG_VALUE: print_results:compiletime <- undef
	#DEBUG_VALUE: print_results:cs1 <- undef
	#DEBUG_VALUE: print_results:cs2 <- %RBX
	.loc	6 39 3                  # print_results.c:39:3
	movl	$.L.str.6.11, %edi
	xorl	%eax, %eax
	movl	%r14d, %esi
	callq	printf
	.loc	6 40 3                  # print_results.c:40:3
	movl	$.L.str.7.12, %edi
	movb	$1, %al
	movsd	(%rsp), %xmm0           # 8-byte Reload
                                        # xmm0 = mem[0],zero
	callq	printf
	.loc	6 41 3                  # print_results.c:41:3
	movl	$.L.str.8, %edi
	movb	$1, %al
	movsd	8(%rsp), %xmm0          # 8-byte Reload
                                        # xmm0 = mem[0],zero
	callq	printf
	.loc	6 42 3                  # print_results.c:42:3
	movl	$.L.str.9.13, %edi
	xorl	%eax, %eax
	movq	96(%rsp), %rsi
	callq	printf
.Ltmp483:
	.loc	6 46 5                  # print_results.c:46:5
	movl	$.L.str.10, %edi
	.loc	6 43 8                  # print_results.c:43:8
	cmpl	$0, 104(%rsp)
.Ltmp484:
	.loc	6 43 8 is_stmt 0        # print_results.c:43:8
	je	.LBB2_10
.Ltmp485:
# BB#9:                                 # %if.then37
	#DEBUG_VALUE: print_results:niter <- %R14D
	#DEBUG_VALUE: print_results:cs2 <- %RBX
	#DEBUG_VALUE: print_results:cs3 <- %RBP
	#DEBUG_VALUE: print_results:cs4 <- %R15
	#DEBUG_VALUE: print_results:cs5 <- %R13
	#DEBUG_VALUE: print_results:cs6 <- %R12
	.loc	6 44 5 is_stmt 1        # print_results.c:44:5
	movl	$.L.str.11.14, %esi
	jmp	.LBB2_11
.Ltmp486:
.LBB2_10:                               # %if.else39
	#DEBUG_VALUE: print_results:niter <- %R14D
	#DEBUG_VALUE: print_results:cs2 <- %RBX
	#DEBUG_VALUE: print_results:cs3 <- %RBP
	#DEBUG_VALUE: print_results:cs4 <- %R15
	#DEBUG_VALUE: print_results:cs5 <- %R13
	#DEBUG_VALUE: print_results:cs6 <- %R12
	.loc	6 46 5                  # print_results.c:46:5
	movl	$.L.str.12, %esi
.Ltmp487:
.LBB2_11:                               # %if.end41
	#DEBUG_VALUE: print_results:cs6 <- %R12
	#DEBUG_VALUE: print_results:cs5 <- %R13
	#DEBUG_VALUE: print_results:cs4 <- %R15
	#DEBUG_VALUE: print_results:cs3 <- %RBP
	#DEBUG_VALUE: print_results:cs2 <- %RBX
	#DEBUG_VALUE: print_results:niter <- %R14D
	xorl	%eax, %eax
	callq	printf
	movq	176(%rsp), %r14
.Ltmp488:
	movq	112(%rsp), %rsi
.Ltmp489:
	.loc	6 47 3                  # print_results.c:47:3
	movl	$.L.str.13, %edi
	xorl	%eax, %eax
	callq	printf
	.loc	6 48 3                  # print_results.c:48:3
	movl	$.L.str.14.15, %edi
	xorl	%eax, %eax
	movq	120(%rsp), %rsi
	callq	printf
	.loc	6 50 3                  # print_results.c:50:3
	movl	$.L.str.15.16, %edi
	xorl	%eax, %eax
	movq	128(%rsp), %rsi
	callq	printf
	.loc	6 52 3                  # print_results.c:52:3
	movl	$.L.str.16, %edi
	xorl	%eax, %eax
	movq	%rbx, %rsi
	callq	printf
	.loc	6 53 3                  # print_results.c:53:3
	movl	$.L.str.17.17, %edi
	xorl	%eax, %eax
	movq	%rbp, %rsi
	callq	printf
	.loc	6 54 3                  # print_results.c:54:3
	movl	$.L.str.18.18, %edi
	xorl	%eax, %eax
	movq	%r15, %rsi
	callq	printf
	.loc	6 55 3                  # print_results.c:55:3
	movl	$.L.str.19, %edi
	xorl	%eax, %eax
	movq	%r13, %rsi
	callq	printf
	.loc	6 56 3                  # print_results.c:56:3
	movl	$.L.str.20, %edi
	xorl	%eax, %eax
	movq	%r12, %rsi
	callq	printf
	.loc	6 57 3                  # print_results.c:57:3
	movl	$.L.str.21.19, %edi
	xorl	%eax, %eax
	movq	%r14, %rsi
	callq	printf
	.loc	6 59 3                  # print_results.c:59:3
	movl	$.Lstr.20, %edi
	callq	puts
	.loc	6 65 1                  # print_results.c:65:1
	addq	$40, %rsp
	popq	%rbx
.Ltmp490:
	popq	%r12
.Ltmp491:
	popq	%r13
.Ltmp492:
	popq	%r14
	popq	%r15
.Ltmp493:
	popq	%rbp
.Ltmp494:
	retq
.Ltmp495:
.Lfunc_end2:
	.size	print_results, .Lfunc_end2-print_results
	.cfi_endproc

	.section	.rodata.cst8,"aM",@progbits,8
	.p2align	3
.LCPI3_0:
	.quad	4503599627370496000     # double 1.1920928955078125E-7
.LCPI3_1:
	.quad	4710765210229538816     # double 8388608
.LCPI3_2:
	.quad	4400016835940974592     # double 1.4210854715202004E-14
.LCPI3_3:
	.quad	-4409024035195715584    # double -70368744177664
	.text
	.globl	randlc
	.p2align	4, 0x90
	.type	randlc,@function
randlc:                                 # @randlc
.Lfunc_begin3:
	.file	7 "/home/norouzi/Desktop/software/benchmarks/NAS/NPB3.3-SER-C/common/randdp.c"
	.loc	7 5 0                   # randdp.c:5:0
	.cfi_startproc
# BB#0:                                 # %entry
	#DEBUG_VALUE: randlc:x <- %RDI
	#DEBUG_VALUE: randlc:a <- %XMM0
	#DEBUG_VALUE: randlc:r23 <- 1.192093e-07
	#DEBUG_VALUE: randlc:r46 <- 1.421085e-14
	#DEBUG_VALUE: randlc:t23 <- 8.388608e+06
	#DEBUG_VALUE: randlc:t46 <- 7.036874e+13
	.loc	7 47 12 prologue_end    # randdp.c:47:12
	movsd	.LCPI3_0(%rip), %xmm3   # xmm3 = mem[0],zero
	movapd	%xmm0, %xmm1
	mulsd	%xmm3, %xmm1
.Ltmp496:
	#DEBUG_VALUE: randlc:t1 <- %XMM1
	.loc	7 48 8                  # randdp.c:48:8
	cvttsd2si	%xmm1, %eax
	cvtsi2sdl	%eax, %xmm2
.Ltmp497:
	#DEBUG_VALUE: randlc:a1 <- %XMM2
	.loc	7 49 16                 # randdp.c:49:16
	movsd	.LCPI3_1(%rip), %xmm4   # xmm4 = mem[0],zero
	movapd	%xmm2, %xmm1
.Ltmp498:
	mulsd	%xmm4, %xmm1
	.loc	7 49 10 is_stmt 0       # randdp.c:49:10
	subsd	%xmm1, %xmm0
.Ltmp499:
	#DEBUG_VALUE: randlc:a2 <- %XMM0
	.loc	7 56 15 is_stmt 1       # randdp.c:56:15
	movsd	(%rdi), %xmm1           # xmm1 = mem[0],zero
	.loc	7 56 12 is_stmt 0       # randdp.c:56:12
	movapd	%xmm1, %xmm5
	mulsd	%xmm3, %xmm5
.Ltmp500:
	#DEBUG_VALUE: randlc:t1 <- %XMM5
	.loc	7 57 8 is_stmt 1        # randdp.c:57:8
	cvttsd2si	%xmm5, %eax
	xorps	%xmm5, %xmm5
.Ltmp501:
	cvtsi2sdl	%eax, %xmm5
	.loc	7 59 21                 # randdp.c:59:21
	movapd	%xmm0, %xmm6
	mulsd	%xmm5, %xmm6
.Ltmp502:
	#DEBUG_VALUE: randlc:x1 <- %XMM5
	.loc	7 58 17                 # randdp.c:58:17
	mulsd	%xmm4, %xmm5
.Ltmp503:
	.loc	7 58 11 is_stmt 0       # randdp.c:58:11
	subsd	%xmm5, %xmm1
.Ltmp504:
	#DEBUG_VALUE: randlc:x2 <- %XMM1
	.loc	7 59 11 is_stmt 1       # randdp.c:59:11
	mulsd	%xmm1, %xmm2
.Ltmp505:
	.loc	7 59 16 is_stmt 0       # randdp.c:59:16
	addsd	%xmm6, %xmm2
.Ltmp506:
	#DEBUG_VALUE: randlc:t1 <- %XMM2
	.loc	7 60 19 is_stmt 1       # randdp.c:60:19
	mulsd	%xmm2, %xmm3
	.loc	7 60 8 is_stmt 0        # randdp.c:60:8
	cvttsd2si	%xmm3, %eax
	xorps	%xmm3, %xmm3
	cvtsi2sdl	%eax, %xmm3
.Ltmp507:
	#DEBUG_VALUE: randlc:t2 <- %XMM3
	.loc	7 61 16 is_stmt 1       # randdp.c:61:16
	mulsd	%xmm4, %xmm3
.Ltmp508:
	.loc	7 61 10 is_stmt 0       # randdp.c:61:10
	subsd	%xmm3, %xmm2
.Ltmp509:
	#DEBUG_VALUE: randlc:z <- %XMM2
	.loc	7 62 12 is_stmt 1       # randdp.c:62:12
	mulsd	%xmm4, %xmm2
.Ltmp510:
	.loc	7 62 21 is_stmt 0       # randdp.c:62:21
	mulsd	%xmm0, %xmm1
.Ltmp511:
	.loc	7 62 16                 # randdp.c:62:16
	addsd	%xmm2, %xmm1
.Ltmp512:
	#DEBUG_VALUE: randlc:t3 <- %XMM1
	.loc	7 63 19 is_stmt 1       # randdp.c:63:19
	movsd	.LCPI3_2(%rip), %xmm2   # xmm2 = mem[0],zero
	movapd	%xmm1, %xmm0
.Ltmp513:
	mulsd	%xmm2, %xmm0
	.loc	7 63 8 is_stmt 0        # randdp.c:63:8
	cvttsd2si	%xmm0, %eax
	xorps	%xmm0, %xmm0
	cvtsi2sdl	%eax, %xmm0
.Ltmp514:
	#DEBUG_VALUE: randlc:t4 <- %XMM0
	.loc	7 64 17 is_stmt 1       # randdp.c:64:17
	mulsd	.LCPI3_3(%rip), %xmm0
.Ltmp515:
	.loc	7 64 11 is_stmt 0       # randdp.c:64:11
	addsd	%xmm1, %xmm0
	.loc	7 64 6                  # randdp.c:64:6
	movsd	%xmm0, (%rdi)
	.loc	7 65 11 is_stmt 1       # randdp.c:65:11
	mulsd	%xmm2, %xmm0
.Ltmp516:
	#DEBUG_VALUE: randlc:r <- %XMM0
	.loc	7 67 3                  # randdp.c:67:3
	retq
.Ltmp517:
.Lfunc_end3:
	.size	randlc, .Lfunc_end3-randlc
	.cfi_endproc

	.section	.rodata.cst8,"aM",@progbits,8
	.p2align	3
.LCPI4_0:
	.quad	4503599627370496000     # double 1.1920928955078125E-7
.LCPI4_1:
	.quad	-4512606826625236992    # double -8388608
.LCPI4_2:
	.quad	4710765210229538816     # double 8388608
.LCPI4_3:
	.quad	4400016835940974592     # double 1.4210854715202004E-14
.LCPI4_4:
	.quad	-4409024035195715584    # double -70368744177664
	.text
	.globl	vranlc
	.p2align	4, 0x90
	.type	vranlc,@function
vranlc:                                 # @vranlc
.Lfunc_begin4:
	.loc	7 72 0                  # randdp.c:72:0
	.cfi_startproc
# BB#0:                                 # %entry
	#DEBUG_VALUE: vranlc:n <- %EDI
	#DEBUG_VALUE: vranlc:x <- %RSI
	#DEBUG_VALUE: vranlc:a <- %XMM0
	#DEBUG_VALUE: vranlc:y <- %RDX
	#DEBUG_VALUE: vranlc:r23 <- 1.192093e-07
	#DEBUG_VALUE: vranlc:r46 <- 1.421085e-14
	#DEBUG_VALUE: vranlc:t23 <- 8.388608e+06
	#DEBUG_VALUE: vranlc:t46 <- 7.036874e+13
	#DEBUG_VALUE: vranlc:i <- 0
	.loc	7 122 3 prologue_end discriminator 1 # randdp.c:122:3
	testl	%edi, %edi
	jle	.LBB4_3
.Ltmp518:
# BB#1:
	#DEBUG_VALUE: vranlc:y <- %RDX
	#DEBUG_VALUE: vranlc:a <- %XMM0
	#DEBUG_VALUE: vranlc:x <- %RSI
	#DEBUG_VALUE: vranlc:n <- %EDI
	movsd	.LCPI4_0(%rip), %xmm1   # xmm1 = mem[0],zero
	.loc	7 115 12                # randdp.c:115:12
	mulsd	%xmm0, %xmm1
.Ltmp519:
	#DEBUG_VALUE: vranlc:t1 <- %XMM1
	.loc	7 116 8                 # randdp.c:116:8
	cvttsd2si	%xmm1, %eax
	xorps	%xmm1, %xmm1
.Ltmp520:
	cvtsi2sdl	%eax, %xmm1
.Ltmp521:
	#DEBUG_VALUE: vranlc:a1 <- %XMM1
	movsd	.LCPI4_1(%rip), %xmm5   # xmm5 = mem[0],zero
	.loc	7 117 16                # randdp.c:117:16
	mulsd	%xmm1, %xmm5
	.loc	7 117 10 is_stmt 0      # randdp.c:117:10
	addsd	%xmm0, %xmm5
.Ltmp522:
	#DEBUG_VALUE: vranlc:a2 <- %XMM5
	.loc	7 128 14 is_stmt 1      # randdp.c:128:14
	movsd	.LCPI4_0(%rip), %xmm0   # xmm0 = mem[0],zero
.Ltmp523:
	.loc	7 130 19                # randdp.c:130:19
	movsd	.LCPI4_2(%rip), %xmm3   # xmm3 = mem[0],zero
	.loc	7 135 21                # randdp.c:135:21
	movsd	.LCPI4_3(%rip), %xmm4   # xmm4 = mem[0],zero
	movsd	.LCPI4_4(%rip), %xmm8   # xmm8 = mem[0],zero
.Ltmp524:
	.p2align	4, 0x90
.LBB4_2:                                # %for.body
                                        # =>This Inner Loop Header: Depth=1
	.loc	7 128 17                # randdp.c:128:17
	movsd	(%rsi), %xmm6           # xmm6 = mem[0],zero
	.loc	7 128 14 is_stmt 0      # randdp.c:128:14
	movapd	%xmm6, %xmm7
	mulsd	%xmm0, %xmm7
.Ltmp525:
	#DEBUG_VALUE: vranlc:t1 <- %XMM7
	.loc	7 129 10 is_stmt 1      # randdp.c:129:10
	cvttsd2si	%xmm7, %eax
	xorps	%xmm7, %xmm7
.Ltmp526:
	cvtsi2sdl	%eax, %xmm7
	.loc	7 131 23                # randdp.c:131:23
	movapd	%xmm5, %xmm2
	mulsd	%xmm7, %xmm2
.Ltmp527:
	#DEBUG_VALUE: vranlc:x1 <- %XMM7
	.loc	7 130 19                # randdp.c:130:19
	mulsd	%xmm3, %xmm7
.Ltmp528:
	.loc	7 130 13 is_stmt 0      # randdp.c:130:13
	subsd	%xmm7, %xmm6
.Ltmp529:
	#DEBUG_VALUE: vranlc:x2 <- %XMM6
	.loc	7 131 13 is_stmt 1      # randdp.c:131:13
	movapd	%xmm1, %xmm7
	mulsd	%xmm6, %xmm7
	.loc	7 131 18 is_stmt 0      # randdp.c:131:18
	addsd	%xmm2, %xmm7
.Ltmp530:
	#DEBUG_VALUE: vranlc:t1 <- %XMM7
	.loc	7 132 21 is_stmt 1      # randdp.c:132:21
	movapd	%xmm7, %xmm2
	mulsd	%xmm0, %xmm2
	.loc	7 132 10 is_stmt 0      # randdp.c:132:10
	cvttsd2si	%xmm2, %eax
	xorps	%xmm2, %xmm2
	cvtsi2sdl	%eax, %xmm2
.Ltmp531:
	#DEBUG_VALUE: vranlc:t2 <- %XMM2
	.loc	7 133 18 is_stmt 1      # randdp.c:133:18
	mulsd	%xmm3, %xmm2
.Ltmp532:
	.loc	7 133 12 is_stmt 0      # randdp.c:133:12
	subsd	%xmm2, %xmm7
.Ltmp533:
	#DEBUG_VALUE: vranlc:z <- %XMM7
	.loc	7 134 14 is_stmt 1      # randdp.c:134:14
	mulsd	%xmm3, %xmm7
.Ltmp534:
	.loc	7 134 23 is_stmt 0      # randdp.c:134:23
	mulsd	%xmm5, %xmm6
.Ltmp535:
	.loc	7 134 18                # randdp.c:134:18
	addsd	%xmm7, %xmm6
.Ltmp536:
	#DEBUG_VALUE: vranlc:t3 <- %XMM6
	.loc	7 135 21 is_stmt 1      # randdp.c:135:21
	movapd	%xmm6, %xmm2
	mulsd	%xmm4, %xmm2
	.loc	7 135 10 is_stmt 0      # randdp.c:135:10
	cvttsd2si	%xmm2, %eax
	xorps	%xmm2, %xmm2
	cvtsi2sdl	%eax, %xmm2
.Ltmp537:
	#DEBUG_VALUE: vranlc:t4 <- %XMM2
	.loc	7 136 19 is_stmt 1      # randdp.c:136:19
	mulsd	%xmm8, %xmm2
.Ltmp538:
	.loc	7 136 13 is_stmt 0      # randdp.c:136:13
	addsd	%xmm6, %xmm2
	.loc	7 136 8                 # randdp.c:136:8
	movsd	%xmm2, (%rsi)
	.loc	7 137 16 is_stmt 1      # randdp.c:137:16
	mulsd	%xmm4, %xmm2
	.loc	7 137 10 is_stmt 0      # randdp.c:137:10
	movsd	%xmm2, (%rdx)
.Ltmp539:
	.loc	7 122 3 is_stmt 1 discriminator 1 # randdp.c:122:3
	addq	$8, %rdx
	decl	%edi
	jne	.LBB4_2
.Ltmp540:
.LBB4_3:                                # %for.end
	.loc	7 141 1                 # randdp.c:141:1
	retq
.Ltmp541:
.Lfunc_end4:
	.size	vranlc, .Lfunc_end4-vranlc
	.cfi_endproc

	.globl	timer_clear
	.p2align	4, 0x90
	.type	timer_clear,@function
timer_clear:                            # @timer_clear
.Lfunc_begin5:
	.loc	4 26 0                  # c_timers.c:26:0
	.cfi_startproc
# BB#0:                                 # %entry
	#DEBUG_VALUE: timer_clear:n <- %EDI
	.loc	4 27 5 prologue_end     # c_timers.c:27:5
	movslq	%edi, %rax
	.loc	4 27 16 is_stmt 0       # c_timers.c:27:16
	movq	$0, elapsed(,%rax,8)
	.loc	4 28 1 is_stmt 1        # c_timers.c:28:1
	retq
.Ltmp542:
.Lfunc_end5:
	.size	timer_clear, .Lfunc_end5-timer_clear
	.cfi_endproc

	.globl	timer_start
	.p2align	4, 0x90
	.type	timer_start,@function
timer_start:                            # @timer_start
.Lfunc_begin6:
	.loc	4 35 0                  # c_timers.c:35:0
	.cfi_startproc
# BB#0:                                 # %entry
	pushq	%rbx
.Ltmp543:
	.cfi_def_cfa_offset 16
	subq	$16, %rsp
.Ltmp544:
	.cfi_def_cfa_offset 32
.Ltmp545:
	.cfi_offset %rbx, -16
	#DEBUG_VALUE: timer_start:n <- %EDI
	movl	%edi, %ebx
.Ltmp546:
	#DEBUG_VALUE: timer_start:n <- %EBX
	leaq	8(%rsp), %rdi
.Ltmp547:
	#DEBUG_VALUE: elapsed_time:t <- [%RDI+0]
	.loc	4 15 5 prologue_end     # c_timers.c:15:5
	callq	wtime_
	.loc	4 16 13                 # c_timers.c:16:13
	movq	8(%rsp), %rax
.Ltmp548:
	.loc	4 36 5                  # c_timers.c:36:5
	movslq	%ebx, %rcx
	.loc	4 36 14 is_stmt 0       # c_timers.c:36:14
	movq	%rax, start(,%rcx,8)
	.loc	4 37 1 is_stmt 1        # c_timers.c:37:1
	addq	$16, %rsp
	popq	%rbx
.Ltmp549:
	retq
.Ltmp550:
.Lfunc_end6:
	.size	timer_start, .Lfunc_end6-timer_start
	.cfi_endproc

	.globl	timer_stop
	.p2align	4, 0x90
	.type	timer_stop,@function
timer_stop:                             # @timer_stop
.Lfunc_begin7:
	.loc	4 44 0                  # c_timers.c:44:0
	.cfi_startproc
# BB#0:                                 # %entry
	pushq	%rbx
.Ltmp551:
	.cfi_def_cfa_offset 16
	subq	$16, %rsp
.Ltmp552:
	.cfi_def_cfa_offset 32
.Ltmp553:
	.cfi_offset %rbx, -16
	#DEBUG_VALUE: timer_stop:n <- %EDI
	movl	%edi, %ebx
.Ltmp554:
	#DEBUG_VALUE: timer_stop:n <- %EBX
	leaq	8(%rsp), %rdi
.Ltmp555:
	#DEBUG_VALUE: elapsed_time:t <- [%RDI+0]
	.loc	4 15 5 prologue_end     # c_timers.c:15:5
	callq	wtime_
	.loc	4 16 13                 # c_timers.c:16:13
	movsd	8(%rsp), %xmm0          # xmm0 = mem[0],zero
.Ltmp556:
	#DEBUG_VALUE: elapsed_time:t <- %XMM0
	#DEBUG_VALUE: timer_stop:now <- %XMM0
	.loc	4 48 15                 # c_timers.c:48:15
	movslq	%ebx, %rax
	.loc	4 48 13 is_stmt 0       # c_timers.c:48:13
	subsd	start(,%rax,8), %xmm0
.Ltmp557:
	#DEBUG_VALUE: timer_stop:t <- %XMM0
	.loc	4 49 16 is_stmt 1       # c_timers.c:49:16
	addsd	elapsed(,%rax,8), %xmm0
.Ltmp558:
	movsd	%xmm0, elapsed(,%rax,8)
	.loc	4 51 1                  # c_timers.c:51:1
	addq	$16, %rsp
	popq	%rbx
.Ltmp559:
	retq
.Ltmp560:
.Lfunc_end7:
	.size	timer_stop, .Lfunc_end7-timer_stop
	.cfi_endproc

	.globl	timer_read
	.p2align	4, 0x90
	.type	timer_read,@function
timer_read:                             # @timer_read
.Lfunc_begin8:
	.loc	4 58 0                  # c_timers.c:58:0
	.cfi_startproc
# BB#0:                                 # %entry
	#DEBUG_VALUE: timer_read:n <- %EDI
	.loc	4 59 13 prologue_end    # c_timers.c:59:13
	movslq	%edi, %rax
	movsd	elapsed(,%rax,8), %xmm0 # xmm0 = mem[0],zero
	.loc	4 59 5 is_stmt 0        # c_timers.c:59:5
	retq
.Ltmp561:
.Lfunc_end8:
	.size	timer_read, .Lfunc_end8-timer_read
	.cfi_endproc

	.section	.rodata.cst8,"aM",@progbits,8
	.p2align	3
.LCPI9_0:
	.quad	4517329193108106637     # double 9.9999999999999995E-7
	.text
	.globl	wtime_
	.p2align	4, 0x90
	.type	wtime_,@function
wtime_:                                 # @wtime_
.Lfunc_begin9:
	.loc	5 8 0 is_stmt 1         # ../common/wtime.c:8:0
	.cfi_startproc
# BB#0:                                 # %entry
	pushq	%rbx
.Ltmp562:
	.cfi_def_cfa_offset 16
	subq	$16, %rsp
.Ltmp563:
	.cfi_def_cfa_offset 32
.Ltmp564:
	.cfi_offset %rbx, -16
	#DEBUG_VALUE: wtime_:t <- %RDI
	movq	%rdi, %rbx
.Ltmp565:
	#DEBUG_VALUE: wtime_:t <- %RBX
	leaq	(%rsp), %rdi
.Ltmp566:
	#DEBUG_VALUE: wtime_:tv <- [%RDI+0]
	.loc	5 11 3 prologue_end     # ../common/wtime.c:11:3
	xorl	%esi, %esi
	callq	gettimeofday
.Ltmp567:
	.loc	5 12 7                  # ../common/wtime.c:12:7
	movl	wtime_.sec(%rip), %ecx
	.loc	5 12 25 is_stmt 0 discriminator 1 # ../common/wtime.c:12:25
	movq	(%rsp), %rax
.Ltmp568:
	.loc	5 12 7                  # ../common/wtime.c:12:7
	testl	%ecx, %ecx
	jns	.LBB9_2
.Ltmp569:
# BB#1:                                 # %if.then
	#DEBUG_VALUE: wtime_:tv <- [%RDI+0]
	#DEBUG_VALUE: wtime_:t <- %RBX
	.loc	5 12 20 discriminator 1 # ../common/wtime.c:12:20
	movl	%eax, wtime_.sec(%rip)
.Ltmp570:
	.loc	5 13 21 is_stmt 1       # ../common/wtime.c:13:21
	movl	%eax, %ecx
.Ltmp571:
.LBB9_2:                                # %if.end
	#DEBUG_VALUE: wtime_:tv <- [%RDI+0]
	#DEBUG_VALUE: wtime_:t <- %RBX
	movslq	%ecx, %rcx
	.loc	5 13 19 is_stmt 0       # ../common/wtime.c:13:19
	subq	%rcx, %rax
	.loc	5 13 8                  # ../common/wtime.c:13:8
	cvtsi2sdq	%rax, %xmm0
	.loc	5 13 35                 # ../common/wtime.c:13:35
	cvtsi2sdq	8(%rsp), %xmm1
	.loc	5 13 34                 # ../common/wtime.c:13:34
	mulsd	.LCPI9_0(%rip), %xmm1
	.loc	5 13 26                 # ../common/wtime.c:13:26
	addsd	%xmm0, %xmm1
	.loc	5 13 6                  # ../common/wtime.c:13:6
	movsd	%xmm1, (%rbx)
	.loc	5 14 1 is_stmt 1        # ../common/wtime.c:14:1
	addq	$16, %rsp
	popq	%rbx
.Ltmp572:
	retq
.Ltmp573:
.Lfunc_end9:
	.size	wtime_, .Lfunc_end9-wtime_
	.cfi_endproc

	.type	.L.str,@object          # @.str
	.section	.rodata.str1.1,"aMS",@progbits,1
.L.str:
	.asciz	"timer.flag"
	.size	.L.str, 11

	.type	.L.str.1,@object        # @.str.1
.L.str.1:
	.asciz	"r"
	.size	.L.str.1, 2

	.type	timeron,@object         # @timeron
	.local	timeron
	.comm	timeron,1,4
	.type	lastrow,@object         # @lastrow
	.local	lastrow
	.comm	lastrow,1,4
	.type	lastcol,@object         # @lastcol
	.local	lastcol
	.comm	lastcol,1,4
	.type	.Lstr,@object           # @str
	.section	.rodata.str1.16,"aMS",@progbits,1
	.p2align	4
.Lstr:
	.asciz	"\n\n NAS Parallel Benchmarks (NPB3.3-SER-C) - CG Benchmark\n"
	.size	.Lstr, 58

	.type	.L.str.6,@object        # @.str.6
	.section	.rodata.str1.1,"aMS",@progbits,1
.L.str.6:
	.asciz	" Size: %11d\n"
	.size	.L.str.6, 13

	.type	.L.str.7,@object        # @.str.7
.L.str.7:
	.asciz	" Iterations: %5d\n"
	.size	.L.str.7, 18

	.type	naa,@object             # @naa
	.local	naa
	.comm	naa,1,4
	.type	nzz,@object             # @nzz
	.local	nzz
	.comm	nzz,1,4
	.type	tran,@object            # @tran
	.local	tran
	.comm	tran,8,8
	.type	amult,@object           # @amult
	.local	amult
	.comm	amult,8,8
	.type	acol,@object            # @acol
	.local	acol
	.comm	acol,672000,16
	.type	aelt,@object            # @aelt
	.local	aelt
	.comm	aelt,1344000,16
	.type	arow,@object            # @arow
	.local	arow
	.comm	arow,56000,16
	.type	rowstr,@object          # @rowstr
	.local	rowstr
	.comm	rowstr,56004,16
	.type	iv,@object              # @iv
	.local	iv
	.comm	iv,56000,16
	.type	.Lstr.41,@object        # @str.41
	.section	.rodata.str1.16,"aMS",@progbits,1
	.p2align	4
.Lstr.41:
	.asciz	"Space for matrix elements exceeded in sparse"
	.size	.Lstr.41, 45

	.type	.L.str.34,@object       # @.str.34
	.section	.rodata.str1.1,"aMS",@progbits,1
.L.str.34:
	.asciz	"nza, nzmax = %d, %d\n"
	.size	.L.str.34, 21

	.type	a,@object               # @a
	.local	a
	.comm	a,16128000,16
	.type	colidx,@object          # @colidx
	.local	colidx
	.comm	colidx,8064000,16
	.type	.L.str.35,@object       # @.str.35
.L.str.35:
	.asciz	"internal error in sparse: i=%d\n"
	.size	.L.str.35, 32

	.type	x,@object               # @x
	.local	x
	.comm	x,112016,16
	.type	q,@object               # @q
	.local	q
	.comm	q,112016,16
	.type	z,@object               # @z
	.local	z
	.comm	z,112016,16
	.type	r,@object               # @r
	.local	r
	.comm	r,112016,16
	.type	p,@object               # @p
	.local	p
	.comm	p,112016,16
	.type	.L.str.9,@object        # @.str.9
.L.str.9:
	.asciz	" Initialization time = %15.3f seconds\n"
	.size	.L.str.9, 39

	.type	.Lstr.40,@object        # @str.40
	.section	.rodata.str1.16,"aMS",@progbits,1
	.p2align	4
.Lstr.40:
	.asciz	"\n   iteration           ||r||                 zeta"
	.size	.Lstr.40, 51

	.type	.L.str.11,@object       # @.str.11
	.section	.rodata.str1.1,"aMS",@progbits,1
.L.str.11:
	.asciz	"    %5d       %20.14E%20.13f\n"
	.size	.L.str.11, 30

	.type	.Lstr.36,@object        # @str.36
	.section	.rodata.str1.16,"aMS",@progbits,1
	.p2align	4
.Lstr.36:
	.asciz	" Benchmark completed"
	.size	.Lstr.36, 21

	.type	.Lstr.39,@object        # @str.39
	.p2align	4
.Lstr.39:
	.asciz	" VERIFICATION SUCCESSFUL"
	.size	.Lstr.39, 25

	.type	.L.str.14,@object       # @.str.14
	.section	.rodata.str1.1,"aMS",@progbits,1
.L.str.14:
	.asciz	" Zeta is    %20.13E\n"
	.size	.L.str.14, 21

	.type	.L.str.15,@object       # @.str.15
.L.str.15:
	.asciz	" Error is   %20.13E\n"
	.size	.L.str.15, 21

	.type	.Lstr.37,@object        # @str.37
	.section	.rodata.str1.16,"aMS",@progbits,1
	.p2align	4
.Lstr.37:
	.asciz	" VERIFICATION FAILED"
	.size	.Lstr.37, 21

	.type	.L.str.17,@object       # @.str.17
	.section	.rodata.str1.1,"aMS",@progbits,1
.L.str.17:
	.asciz	" Zeta                %20.13E\n"
	.size	.L.str.17, 30

	.type	.L.str.18,@object       # @.str.18
.L.str.18:
	.asciz	" The correct zeta is %20.13E\n"
	.size	.L.str.18, 30

	.type	.L.str.21,@object       # @.str.21
.L.str.21:
	.asciz	"CG"
	.size	.L.str.21, 3

	.type	.L.str.22,@object       # @.str.22
.L.str.22:
	.asciz	"          floating point"
	.size	.L.str.22, 25

	.type	.L.str.23,@object       # @.str.23
.L.str.23:
	.asciz	"3.3.1"
	.size	.L.str.23, 6

	.type	.L.str.24,@object       # @.str.24
.L.str.24:
	.asciz	"03 Mar 2016"
	.size	.L.str.24, 12

	.type	.L.str.25,@object       # @.str.25
.L.str.25:
	.asciz	"(none)"
	.size	.L.str.25, 7

	.type	.L.str.26,@object       # @.str.26
.L.str.26:
	.asciz	"-I ../common "
	.size	.L.str.26, 14

	.type	.L.str.27,@object       # @.str.27
.L.str.27:
	.asciz	"randdp"
	.size	.L.str.27, 7

	.type	.Lstr.38,@object        # @str.38
	.section	.rodata.str1.16,"aMS",@progbits,1
	.p2align	4
.Lstr.38:
	.asciz	"  SECTION   Time (secs)"
	.size	.Lstr.38, 24

	.type	.L.str.29,@object       # @.str.29
	.section	.rodata.str1.1,"aMS",@progbits,1
.L.str.29:
	.asciz	"  %8s:%9.3f\n"
	.size	.L.str.29, 13

	.type	.L.str.2,@object        # @.str.2
.L.str.2:
	.asciz	"init"
	.size	.L.str.2, 5

	.type	.L.str.30,@object       # @.str.30
.L.str.30:
	.asciz	"  %8s:%9.3f  (%6.2f%%)\n"
	.size	.L.str.30, 24

	.type	.L.str.3,@object        # @.str.3
.L.str.3:
	.asciz	"benchmk"
	.size	.L.str.3, 8

	.type	.L.str.4,@object        # @.str.4
.L.str.4:
	.asciz	"conjgd"
	.size	.L.str.4, 7

	.type	.L.str.31,@object       # @.str.31
.L.str.31:
	.asciz	"    --> %8s:%9.3f  (%6.2f%%)\n"
	.size	.L.str.31, 30

	.type	.L.str.32,@object       # @.str.32
.L.str.32:
	.asciz	"rest"
	.size	.L.str.32, 5

	.type	.L.str.5,@object        # @.str.5
.L.str.5:
	.asciz	"\n\n %s Benchmark Completed.\n"
	.size	.L.str.5, 28

	.type	.L.str.1.6,@object      # @.str.1.6
.L.str.1.6:
	.asciz	" Class           =             %12c\n"
	.size	.L.str.1.6, 37

	.type	.L.str.2.7,@object      # @.str.2.7
.L.str.2.7:
	.asciz	"%15.0lf"
	.size	.L.str.2.7, 8

	.type	.L.str.3.8,@object      # @.str.3.8
.L.str.3.8:
	.asciz	" Size            =          %15s\n"
	.size	.L.str.3.8, 34

	.type	.L.str.4.9,@object      # @.str.4.9
.L.str.4.9:
	.asciz	" Size            =             %12d\n"
	.size	.L.str.4.9, 37

	.type	.L.str.5.10,@object     # @.str.5.10
.L.str.5.10:
	.asciz	" Size            =           %4dx%4dx%4d\n"
	.size	.L.str.5.10, 42

	.type	.L.str.6.11,@object     # @.str.6.11
.L.str.6.11:
	.asciz	" Iterations      =             %12d\n"
	.size	.L.str.6.11, 37

	.type	.L.str.7.12,@object     # @.str.7.12
.L.str.7.12:
	.asciz	" Time in seconds =             %12.2lf\n"
	.size	.L.str.7.12, 40

	.type	.L.str.8,@object        # @.str.8
.L.str.8:
	.asciz	" Mop/s total     =          %15.2lf\n"
	.size	.L.str.8, 37

	.type	.L.str.9.13,@object     # @.str.9.13
.L.str.9.13:
	.asciz	" Operation type  = %24s\n"
	.size	.L.str.9.13, 25

	.type	.L.str.10,@object       # @.str.10
.L.str.10:
	.asciz	" Verification    =             %12s\n"
	.size	.L.str.10, 37

	.type	.L.str.11.14,@object    # @.str.11.14
.L.str.11.14:
	.asciz	"SUCCESSFUL"
	.size	.L.str.11.14, 11

	.type	.L.str.12,@object       # @.str.12
.L.str.12:
	.asciz	"UNSUCCESSFUL"
	.size	.L.str.12, 13

	.type	.L.str.13,@object       # @.str.13
.L.str.13:
	.asciz	" Version         =             %12s\n"
	.size	.L.str.13, 37

	.type	.L.str.14.15,@object    # @.str.14.15
.L.str.14.15:
	.asciz	" Compile date    =             %12s\n"
	.size	.L.str.14.15, 37

	.type	.L.str.15.16,@object    # @.str.15.16
.L.str.15.16:
	.asciz	"\n Compile options:\n    CC           = %s\n"
	.size	.L.str.15.16, 42

	.type	.L.str.16,@object       # @.str.16
.L.str.16:
	.asciz	"    CLINK        = %s\n"
	.size	.L.str.16, 23

	.type	.L.str.17.17,@object    # @.str.17.17
.L.str.17.17:
	.asciz	"    C_LIB        = %s\n"
	.size	.L.str.17.17, 23

	.type	.L.str.18.18,@object    # @.str.18.18
.L.str.18.18:
	.asciz	"    C_INC        = %s\n"
	.size	.L.str.18.18, 23

	.type	.L.str.19,@object       # @.str.19
.L.str.19:
	.asciz	"    CFLAGS       = %s\n"
	.size	.L.str.19, 23

	.type	.L.str.20,@object       # @.str.20
.L.str.20:
	.asciz	"    CLINKFLAGS   = %s\n"
	.size	.L.str.20, 23

	.type	.L.str.21.19,@object    # @.str.21.19
.L.str.21.19:
	.asciz	"    RAND         = %s\n"
	.size	.L.str.21.19, 23

	.type	.Lstr.20,@object        # @str.20
	.section	.rodata.str1.16,"aMS",@progbits,1
	.p2align	4
.Lstr.20:
	.asciz	"\n--------------------------------------\n Please send all errors/feedbacks to:\n Center for Manycore Programming\n cmp@aces.snu.ac.kr\n http://aces.snu.ac.kr\n--------------------------------------\n"
	.size	.Lstr.20, 194

	.type	elapsed,@object         # @elapsed
	.local	elapsed
	.comm	elapsed,512,16
	.type	start,@object           # @start
	.local	start
	.comm	start,512,16
	.type	wtime_.sec,@object      # @wtime_.sec
	.data
	.p2align	2
wtime_.sec:
	.long	4294967295              # 0xffffffff
	.size	wtime_.sec, 4

	.file	8 "/usr/include/libio.h"
	.file	9 "/usr/include/x86_64-linux-gnu/bits/types.h"
	.file	10 "/home/norouzi/Desktop/software/llvmTemp/build/bin/../lib/clang/3.9.0/include/stddef.h"
	.file	11 "/usr/include/stdio.h"
	.file	12 "/usr/include/x86_64-linux-gnu/bits/types.h"
	.file	13 "/usr/include/x86_64-linux-gnu/bits/time.h"
	.section	".note.GNU-stack","",@progbits