	.text
	.file	"ep.S.bc"
	.section	.rodata.cst8,"aM",@progbits,8
	.align	8
.LCPI0_0:
	.quad	4719772409484279808     # double 33554432
.LCPI0_2:
	.quad	4742906807993761792     # double 1220703125
.LCPI0_4:
	.quad	4607182418800017408     # double 1
.LCPI0_5:
	.quad	-4611686018427387904    # double -2
.LCPI0_7:
	.quad	4659360479003734399     # double 3247.83465203474
.LCPI0_8:
	.quad	-4564011557851041409    # double -3247.83465203474
.LCPI0_9:
	.quad	4487126258331716666     # double 1.0E-8
.LCPI0_10:
	.quad	4664372864194573024     # double 6958.4070783822972
.LCPI0_11:
	.quad	-4558999172660202784    # double -6958.4070783822972
.LCPI0_12:
	.quad	4696837146684686336     # double 1.0E+6
.LCPI0_13:
	.quad	4636737291354636288     # double 100
	.section	.rodata.cst16,"aM",@progbits,16
	.align	16
.LCPI0_1:
	.quad	-3135276447761457362    # double -1.000000e+99
	.quad	-3135276447761457362    # double -1.000000e+99
.LCPI0_3:
	.quad	-4616189618054758400    # double -1.000000e+00
	.quad	-4616189618054758400    # double -1.000000e+00
.LCPI0_6:
	.quad	9223372036854775807     # 0x7fffffffffffffff
	.quad	9223372036854775807     # 0x7fffffffffffffff
.LCPI0_14:
	.zero	16
	.text
	.globl	main
	.align	16, 0x90
	.type	main,@function
main:                                   # @main
.Lfunc_begin0:
	.loc	1 72 0                  # ep.c:72:0
	.cfi_startproc
# BB#0:                                 # %entry
	.loc	1 81 10 prologue_end    # ep.c:81:10
	pushq	%rbp
.Ltmp0:
	.cfi_def_cfa_offset 16
	pushq	%r15
.Ltmp1:
	.cfi_def_cfa_offset 24
	pushq	%r14
.Ltmp2:
	.cfi_def_cfa_offset 32
	pushq	%r13
.Ltmp3:
	.cfi_def_cfa_offset 40
	pushq	%r12
.Ltmp4:
	.cfi_def_cfa_offset 48
	pushq	%rbx
.Ltmp5:
	.cfi_def_cfa_offset 56
	subq	$200, %rsp
.Ltmp6:
	.cfi_def_cfa_offset 256
.Ltmp7:
	.cfi_offset %rbx, -56
.Ltmp8:
	.cfi_offset %r12, -48
.Ltmp9:
	.cfi_offset %r13, -40
.Ltmp10:
	.cfi_offset %r14, -32
.Ltmp11:
	.cfi_offset %r15, -24
.Ltmp12:
	.cfi_offset %rbp, -16
	movq	.Lmain.dum+16(%rip), %rax
	movq	%rax, 176(%rsp)
	movaps	.Lmain.dum(%rip), %xmm0
	movaps	%xmm0, 160(%rsp)
	.loc	1 86 13                 # ep.c:86:13
.Ltmp13:
	movl	$.L.str, %edi
	movl	$.L.str1, %esi
	callq	fopen
.Ltmp14:
	#DEBUG_VALUE: main:fp <- RAX
	movl	$0, 92(%rsp)            # 4-byte Folded Spill
	.loc	1 86 7 is_stmt 0        # ep.c:86:7
	testq	%rax, %rax
	je	.LBB0_2
.Ltmp15:
# BB#1:                                 # %if.else
	#DEBUG_VALUE: main:fp <- RAX
	#DEBUG_VALUE: main:timers_enabled <- 1
	.loc	1 90 5 is_stmt 1        # ep.c:90:5
	movq	%rax, %rdi
	callq	fclose
.Ltmp16:
	movl	$1, 92(%rsp)            # 4-byte Folded Spill
.Ltmp17:
.LBB0_2:                                # %if.end
	leaq	144(%rsp), %rcx
	movsd	.LCPI0_0(%rip), %xmm0
	.loc	1 100 3                 # ep.c:100:3
	movsd	%xmm0, 96(%rsp)         # 8-byte Spill
	movl	$.L.str2, %esi
	movb	$1, %al
	movq	%rcx, %rdi
	movsd	.LCPI0_0(%rip), %xmm0
	callq	sprintf
.Ltmp18:
	#DEBUG_VALUE: main:j <- 14
	.loc	1 102 7                 # ep.c:102:7
	movzbl	158(%rsp), %eax
	cmpl	$46, %eax
	movl	$14, %eax
.Ltmp19:
	#DEBUG_VALUE: main:j <- 13
	je	.LBB0_4
.Ltmp20:
# BB#3:                                 # %select.mid
	#DEBUG_VALUE: main:j <- 13
	movl	$15, %eax
.LBB0_4:                                # %select.end
	#DEBUG_VALUE: main:j <- 13
	.loc	1 103 3                 # ep.c:103:3
	movb	$0, 144(%rsp,%rax)
	.loc	1 104 3                 # ep.c:104:3
	movl	$.Lstr, %edi
	callq	puts
	leaq	144(%rsp), %rcx
	.loc	1 105 3                 # ep.c:105:3
	movl	$.L.str4, %edi
	xorl	%eax, %eax
	movq	%rcx, %rsi
	callq	printf
.Ltmp21:
	#DEBUG_VALUE: main:np <- 256
	#DEBUG_VALUE: main:verified <- 0
	.loc	1 124 22                # ep.c:124:22
	leaq	168(%rsp), %rbx
	movsd	168(%rsp), %xmm0
	.loc	1 124 30 is_stmt 0      # ep.c:124:30
	leaq	176(%rsp), %rcx
	leaq	160(%rsp), %rax
	xorl	%edi, %edi
	.loc	1 124 3                 # ep.c:124:3
	movq	%rax, %rsi
	movq	%rcx, %rdx
	callq	vranlc
	.loc	1 125 28 is_stmt 1      # ep.c:125:28
	movsd	176(%rsp), %xmm0
	.loc	1 125 12 is_stmt 0      # ep.c:125:12
	movq	%rbx, %rdi
	callq	randlc
	.loc	1 125 3                 # ep.c:125:3
	movsd	%xmm0, 160(%rsp)
.Ltmp22:
	#DEBUG_VALUE: main:i <- 0
	movq	$-1048576, %rax         # imm = 0xFFFFFFFFFFF00000
	.loc	1 127 5 is_stmt 1       # ep.c:127:5
.Ltmp23:
	movaps	.LCPI0_1(%rip), %xmm0   # xmm0 = [-1.000000e+99,-1.000000e+99]
	.align	16, 0x90
.LBB0_5:                                # %vector.body
                                        # =>This Inner Loop Header: Depth=1
	#DEBUG_VALUE: main:j <- 13
	#DEBUG_VALUE: main:verified <- 0
	#DEBUG_VALUE: main:np <- 256
	#DEBUG_VALUE: main:i <- 0
	movaps	%xmm0, x+1048576(%rax)
	movaps	%xmm0, x+1048592(%rax)
	movaps	%xmm0, x+1048608(%rax)
	movaps	%xmm0, x+1048624(%rax)
	movaps	%xmm0, x+1048640(%rax)
	movaps	%xmm0, x+1048656(%rax)
	movaps	%xmm0, x+1048672(%rax)
	movaps	%xmm0, x+1048688(%rax)
.Ltmp24:
	.loc	1 126 3                 # ep.c:126:3
	addq	$128, %rax
	jne	.LBB0_5
.Ltmp25:
# BB#6:                                 # %for.end
	#DEBUG_VALUE: main:j <- 13
	#DEBUG_VALUE: main:verified <- 0
	#DEBUG_VALUE: main:np <- 256
	#DEBUG_VALUE: main:i <- 0
	#DEBUG_VALUE: main:Mops <- 0.000000e+00
	xorl	%edi, %edi
	.loc	1 131 3                 # ep.c:131:3
	callq	timer_clear
	movl	$1, %ebx
	movl	$1, %edi
	.loc	1 132 3                 # ep.c:132:3
	callq	timer_clear
	movl	$2, %edi
	.loc	1 133 3                 # ep.c:133:3
	callq	timer_clear
	xorl	%edi, %edi
	.loc	1 134 3                 # ep.c:134:3
	callq	timer_start
	movabsq	$4742906807993761792, %r15 # imm = 0x41D2309CE5400000
.Ltmp26:
	#DEBUG_VALUE: main:t1 <- 1.220703e+09
	.loc	1 136 3                 # ep.c:136:3
	movq	%r15, 192(%rsp)
	leaq	192(%rsp), %r14
.Ltmp27:
	#DEBUG_VALUE: main:t1 <- [R14+0]
	#DEBUG_VALUE: main:i <- 1
	xorl	%edi, %edi
	.loc	1 137 3                 # ep.c:137:3
	movl	$x, %edx
	movq	%r14, %rsi
	movsd	.LCPI0_2(%rip), %xmm0
	callq	vranlc
	.loc	1 143 3                 # ep.c:143:3
	movq	%r15, 192(%rsp)
	.loc	1 146 10                # ep.c:146:10
.Ltmp28:
	movq	%r14, %rdi
	movsd	.LCPI0_2(%rip), %xmm0
	callq	randlc
.Ltmp29:
	#DEBUG_VALUE: main:t2 <- XMM0
	.loc	1 146 5 is_stmt 0       # ep.c:146:5
	movsd	%xmm0, 184(%rsp)
	.loc	1 146 22                # ep.c:146:22
	movsd	192(%rsp), %xmm0
.Ltmp30:
	#DEBUG_VALUE: main:t2 <- XMM0
	.loc	1 146 10                # ep.c:146:10
	movq	%r14, %rdi
	callq	randlc
.Ltmp31:
	.loc	1 146 5                 # ep.c:146:5
	movsd	%xmm0, 184(%rsp)
	.loc	1 146 22                # ep.c:146:22
	movsd	192(%rsp), %xmm0
	.loc	1 146 10                # ep.c:146:10
	movq	%r14, %rdi
	callq	randlc
	.loc	1 146 5                 # ep.c:146:5
	movsd	%xmm0, 184(%rsp)
	.loc	1 146 22                # ep.c:146:22
	movsd	192(%rsp), %xmm0
	.loc	1 146 10                # ep.c:146:10
	movq	%r14, %rdi
	callq	randlc
	.loc	1 146 5                 # ep.c:146:5
	movsd	%xmm0, 184(%rsp)
	.loc	1 146 22                # ep.c:146:22
	movsd	192(%rsp), %xmm0
	.loc	1 146 10                # ep.c:146:10
	movq	%r14, %rdi
	callq	randlc
	.loc	1 146 5                 # ep.c:146:5
	movsd	%xmm0, 184(%rsp)
	.loc	1 146 22                # ep.c:146:22
	movsd	192(%rsp), %xmm0
	.loc	1 146 10                # ep.c:146:10
	movq	%r14, %rdi
	callq	randlc
	.loc	1 146 5                 # ep.c:146:5
	movsd	%xmm0, 184(%rsp)
	.loc	1 146 22                # ep.c:146:22
	movsd	192(%rsp), %xmm0
	.loc	1 146 10                # ep.c:146:10
	movq	%r14, %rdi
	callq	randlc
	.loc	1 146 5                 # ep.c:146:5
	movsd	%xmm0, 184(%rsp)
	.loc	1 146 22                # ep.c:146:22
	movsd	192(%rsp), %xmm0
	.loc	1 146 10                # ep.c:146:10
	movq	%r14, %rdi
	callq	randlc
	.loc	1 146 5                 # ep.c:146:5
	movsd	%xmm0, 184(%rsp)
	.loc	1 146 22                # ep.c:146:22
	movsd	192(%rsp), %xmm0
	.loc	1 146 10                # ep.c:146:10
	movq	%r14, %rdi
	callq	randlc
	.loc	1 146 5                 # ep.c:146:5
	movsd	%xmm0, 184(%rsp)
	.loc	1 146 22                # ep.c:146:22
	movsd	192(%rsp), %xmm0
	.loc	1 146 10                # ep.c:146:10
	movq	%r14, %rdi
	callq	randlc
	.loc	1 146 5                 # ep.c:146:5
	movsd	%xmm0, 184(%rsp)
	.loc	1 146 22                # ep.c:146:22
	movsd	192(%rsp), %xmm0
	.loc	1 146 10                # ep.c:146:10
	movq	%r14, %rdi
	callq	randlc
	.loc	1 146 5                 # ep.c:146:5
	movsd	%xmm0, 184(%rsp)
	.loc	1 146 22                # ep.c:146:22
	movsd	192(%rsp), %xmm0
	.loc	1 146 10                # ep.c:146:10
	movq	%r14, %rdi
	callq	randlc
	.loc	1 146 5                 # ep.c:146:5
	movsd	%xmm0, 184(%rsp)
	.loc	1 146 22                # ep.c:146:22
	movsd	192(%rsp), %xmm0
	.loc	1 146 10                # ep.c:146:10
	movq	%r14, %rdi
	callq	randlc
	.loc	1 146 5                 # ep.c:146:5
	movsd	%xmm0, 184(%rsp)
	.loc	1 146 22                # ep.c:146:22
	movsd	192(%rsp), %xmm0
	.loc	1 146 10                # ep.c:146:10
	movq	%r14, %rdi
	callq	randlc
	.loc	1 146 5                 # ep.c:146:5
	movsd	%xmm0, 184(%rsp)
	.loc	1 146 22                # ep.c:146:22
	movsd	192(%rsp), %xmm0
	.loc	1 146 10                # ep.c:146:10
	movq	%r14, %rdi
	callq	randlc
	.loc	1 146 5                 # ep.c:146:5
	movsd	%xmm0, 184(%rsp)
	.loc	1 146 22                # ep.c:146:22
	movsd	192(%rsp), %xmm0
	.loc	1 146 10                # ep.c:146:10
	movq	%r14, %rdi
	callq	randlc
	.loc	1 146 5                 # ep.c:146:5
	movsd	%xmm0, 184(%rsp)
	.loc	1 146 22                # ep.c:146:22
	movsd	192(%rsp), %xmm0
	.loc	1 146 10                # ep.c:146:10
	movq	%r14, %rdi
	callq	randlc
	.loc	1 146 5                 # ep.c:146:5
	movsd	%xmm0, 184(%rsp)
	.loc	1 146 22                # ep.c:146:22
	movsd	192(%rsp), %xmm0
	movsd	%xmm0, 104(%rsp)        # 8-byte Spill
	xorpd	%xmm0, %xmm0
	movapd	%xmm0, 112(%rsp)        # 16-byte Spill
	xorpd	%xmm0, %xmm0
.Ltmp32:
	.loc	1 156 5 is_stmt 1       # ep.c:156:5
	movapd	%xmm0, q+64(%rip)
	xorpd	%xmm0, %xmm0
	movapd	%xmm0, q+48(%rip)
	xorpd	%xmm0, %xmm0
	movapd	%xmm0, q+32(%rip)
	xorpd	%xmm0, %xmm0
	movapd	%xmm0, q+16(%rip)
	xorpd	%xmm0, %xmm0
	movapd	%xmm0, q(%rip)
.Ltmp33:
	.loc	1 185 9                 # ep.c:185:9
	cmpl	$0, 92(%rsp)            # 4-byte Folded Reload
	je	.LBB0_7
.Ltmp34:
# BB#20:
	#DEBUG_VALUE: main:j <- 13
	#DEBUG_VALUE: main:verified <- 0
	#DEBUG_VALUE: main:np <- 256
	#DEBUG_VALUE: main:i <- 1
	#DEBUG_VALUE: main:Mops <- 0.000000e+00
	#DEBUG_VALUE: main:t1 <- 1.220703e+09
	leaq	192(%rsp), %r15
	leaq	184(%rsp), %r12
	.align	16, 0x90
.LBB0_21:                               # %for.body47.us
                                        # =>This Loop Header: Depth=1
                                        #     Child Loop BB0_22 Depth 2
                                        #     Child Loop BB0_27 Depth 2
	#DEBUG_VALUE: main:j <- 13
	#DEBUG_VALUE: main:verified <- 0
	#DEBUG_VALUE: main:np <- 256
	#DEBUG_VALUE: main:i <- 1
	#DEBUG_VALUE: main:Mops <- 0.000000e+00
	#DEBUG_VALUE: main:t1 <- 1.220703e+09
	.loc	1 168 10                # ep.c:168:10
	leal	-1(%rbx), %r14d
.Ltmp35:
	#DEBUG_VALUE: main:kk <- R14D
	#DEBUG_VALUE: main:t1 <- 2.718282e+08
	movabsq	$4733340128880099328, %rax # imm = 0x41B033C4D7000000
	.loc	1 169 5                 # ep.c:169:5
	movq	%rax, 192(%rsp)
	.loc	1 170 5                 # ep.c:170:5
	movsd	104(%rsp), %xmm0        # 8-byte Reload
	movsd	%xmm0, 184(%rsp)
	movl	$1, %ebp
.Ltmp36:
	.align	16, 0x90
.LBB0_22:                               # %for.body52.us
                                        #   Parent Loop BB0_21 Depth=1
                                        # =>  This Inner Loop Header: Depth=2
	#DEBUG_VALUE: main:j <- 13
	#DEBUG_VALUE: main:verified <- 0
	#DEBUG_VALUE: main:np <- 256
	#DEBUG_VALUE: main:i <- 1
	#DEBUG_VALUE: main:Mops <- 0.000000e+00
	#DEBUG_VALUE: main:t1 <- 2.718282e+08
	.loc	1 175 12                # ep.c:175:12
	movl	%r14d, %r13d
	shrl	$31, %r13d
	addl	%r14d, %r13d
	.loc	1 176 12                # ep.c:176:12
.Ltmp37:
	movl	%r13d, %eax
	andl	$-2, %eax
	.loc	1 176 11 is_stmt 0      # ep.c:176:11
	cmpl	%r14d, %eax
	je	.LBB0_24
# BB#23:                                # %if.then55.us
                                        #   in Loop: Header=BB0_22 Depth=2
	#DEBUG_VALUE: main:j <- 13
	#DEBUG_VALUE: main:verified <- 0
	#DEBUG_VALUE: main:np <- 256
	#DEBUG_VALUE: main:i <- 1
	#DEBUG_VALUE: main:Mops <- 0.000000e+00
	#DEBUG_VALUE: main:t1 <- 2.718282e+08
	.loc	1 176 44 discriminator 1 # ep.c:176:44
	movsd	184(%rsp), %xmm0
.Ltmp38:
	#DEBUG_VALUE: main:t1 <- [R15+0]
	.loc	1 176 32                # ep.c:176:32
	movq	%r15, %rdi
	callq	randlc
.Ltmp39:
.LBB0_24:                               # %if.end57.us
                                        #   in Loop: Header=BB0_22 Depth=2
	#DEBUG_VALUE: main:j <- 13
	#DEBUG_VALUE: main:verified <- 0
	#DEBUG_VALUE: main:np <- 256
	#DEBUG_VALUE: main:i <- 1
	#DEBUG_VALUE: main:Mops <- 0.000000e+00
	#DEBUG_VALUE: main:t1 <- 2.718282e+08
	.loc	1 177 11 is_stmt 1      # ep.c:177:11
	incl	%r14d
	cmpl	$3, %r14d
	jb	.LBB0_26
.Ltmp40:
# BB#25:                                # %if.end61.us
                                        #   in Loop: Header=BB0_22 Depth=2
	#DEBUG_VALUE: main:j <- 13
	#DEBUG_VALUE: main:verified <- 0
	#DEBUG_VALUE: main:np <- 256
	#DEBUG_VALUE: main:i <- 1
	#DEBUG_VALUE: main:Mops <- 0.000000e+00
	#DEBUG_VALUE: main:t1 <- 2.718282e+08
	.loc	1 175 12                # ep.c:175:12
	sarl	%r13d
.Ltmp41:
	#DEBUG_VALUE: main:ik <- R13D
	#DEBUG_VALUE: main:kk <- R13D
	.loc	1 178 24                # ep.c:178:24
	movsd	184(%rsp), %xmm0
.Ltmp42:
	#DEBUG_VALUE: main:t2 <- [R12+0]
	.loc	1 178 12 is_stmt 0      # ep.c:178:12
	movq	%r12, %rdi
	callq	randlc
.Ltmp43:
	.loc	1 174 27 is_stmt 1      # ep.c:174:27
	incl	%ebp
.Ltmp44:
	#DEBUG_VALUE: main:i <- EBP
	.loc	1 174 17 is_stmt 0 discriminator 2 # ep.c:174:17
	cmpl	$101, %ebp
	movl	%r13d, %r14d
.Ltmp45:
	#DEBUG_VALUE: main:ik <- R14D
	#DEBUG_VALUE: main:kk <- R14D
	jl	.LBB0_22
.Ltmp46:
.LBB0_26:                               # %for.cond74.preheader.us
                                        #   in Loop: Header=BB0_21 Depth=1
	#DEBUG_VALUE: main:j <- 13
	#DEBUG_VALUE: main:verified <- 0
	#DEBUG_VALUE: main:np <- 256
	#DEBUG_VALUE: main:i <- 1
	#DEBUG_VALUE: main:Mops <- 0.000000e+00
	#DEBUG_VALUE: main:t1 <- 2.718282e+08
	movl	$2, %edi
	.loc	1 185 25 is_stmt 1 discriminator 1 # ep.c:185:25
.Ltmp47:
	callq	timer_start
.Ltmp48:
	#DEBUG_VALUE: main:t1 <- [R15+0]
	movl	$131072, %edi           # imm = 0x20000
.Ltmp49:
	.loc	1 186 5                 # ep.c:186:5
	movl	$x, %edx
	movq	%r15, %rsi
	movsd	.LCPI0_2(%rip), %xmm0
	callq	vranlc
	movl	$2, %edi
	.loc	1 187 25 discriminator 1 # ep.c:187:25
.Ltmp50:
	callq	timer_stop
	movl	$1, %edi
.Ltmp51:
	.loc	1 194 25 discriminator 1 # ep.c:194:25
	callq	timer_start
	movq	$-1048576, %r14         # imm = 0xFFFFFFFFFFF00000
.Ltmp52:
	.align	16, 0x90
.LBB0_27:                               # %for.body77.us
                                        #   Parent Loop BB0_21 Depth=1
                                        # =>  This Inner Loop Header: Depth=2
	#DEBUG_VALUE: main:j <- 13
	#DEBUG_VALUE: main:verified <- 0
	#DEBUG_VALUE: main:np <- 256
	#DEBUG_VALUE: main:i <- 1
	#DEBUG_VALUE: main:Mops <- 0.000000e+00
	#DEBUG_VALUE: main:t1 <- 2.718282e+08
	#DEBUG_VALUE: main:t1 <- [R15+0]
	.loc	1 197 18                # ep.c:197:18
	movaps	x+1048576(%r14), %xmm0
	.loc	1 197 12 is_stmt 0      # ep.c:197:12
	movaps	%xmm0, 128(%rsp)        # 16-byte Spill
	movapd	128(%rsp), %xmm0        # 16-byte Reload
	addpd	%xmm0, %xmm0
	movapd	%xmm0, 128(%rsp)        # 16-byte Spill
	movapd	128(%rsp), %xmm0        # 16-byte Reload
	addpd	.LCPI0_3(%rip), %xmm0
	.loc	1 199 12 is_stmt 1      # ep.c:199:12
	movapd	%xmm0, 128(%rsp)        # 16-byte Spill
	movapd	128(%rsp), %xmm0        # 16-byte Reload
	mulpd	%xmm0, %xmm0
	movapd	%xmm0, %xmm1
	shufpd	$1, %xmm1, %xmm1        # xmm1 = xmm1[1,0]
	addsd	%xmm0, %xmm1
.Ltmp53:
	#DEBUG_VALUE: main:t1 <- XMM1
	.loc	1 199 7 is_stmt 0       # ep.c:199:7
	movsd	%xmm1, 192(%rsp)
	movsd	.LCPI0_4(%rip), %xmm0
	.loc	1 200 11 is_stmt 1      # ep.c:200:11
.Ltmp54:
	ucomisd	%xmm1, %xmm0
	jb	.LBB0_31
.Ltmp55:
# BB#28:                                # %if.then93.us
                                        #   in Loop: Header=BB0_27 Depth=2
	#DEBUG_VALUE: main:j <- 13
	#DEBUG_VALUE: main:verified <- 0
	#DEBUG_VALUE: main:np <- 256
	#DEBUG_VALUE: main:i <- 1
	#DEBUG_VALUE: main:Mops <- 0.000000e+00
	#DEBUG_VALUE: main:t1 <- XMM1
	#DEBUG_VALUE: main:t1 <- [R15+0]
	.loc	1 201 28                # ep.c:201:28
	movaps	%xmm1, %xmm0
	callq	log
	.loc	1 201 21 is_stmt 0      # ep.c:201:21
	mulsd	.LCPI0_5(%rip), %xmm0
	divsd	192(%rsp), %xmm0
	.loc	1 201 16                # ep.c:201:16
	xorps	%xmm1, %xmm1
	sqrtsd	%xmm0, %xmm1
	ucomisd	%xmm1, %xmm1
	jnp	.LBB0_30
.Ltmp56:
# BB#29:                                # %call.sqrt
                                        #   in Loop: Header=BB0_27 Depth=2
	#DEBUG_VALUE: main:j <- 13
	#DEBUG_VALUE: main:verified <- 0
	#DEBUG_VALUE: main:np <- 256
	#DEBUG_VALUE: main:i <- 1
	#DEBUG_VALUE: main:Mops <- 0.000000e+00
	#DEBUG_VALUE: main:t1 <- [R15+0]
	callq	sqrt
	movaps	%xmm0, %xmm1
.Ltmp57:
.LBB0_30:                               # %if.then93.us.split
                                        #   in Loop: Header=BB0_27 Depth=2
	#DEBUG_VALUE: main:j <- 13
	#DEBUG_VALUE: main:verified <- 0
	#DEBUG_VALUE: main:np <- 256
	#DEBUG_VALUE: main:i <- 1
	#DEBUG_VALUE: main:Mops <- 0.000000e+00
	#DEBUG_VALUE: main:t1 <- [R15+0]
	#DEBUG_VALUE: main:t2 <- XMM1
	.loc	1 201 9                 # ep.c:201:9
	movsd	%xmm1, 184(%rsp)
	.loc	1 202 17 is_stmt 1      # ep.c:202:17
	movlhps	%xmm1, %xmm1            # xmm1 = xmm1[0,0]
.Ltmp58:
	movapd	128(%rsp), %xmm0        # 16-byte Reload
	mulpd	%xmm1, %xmm0
	.loc	1 204 16                # ep.c:204:16
	movapd	%xmm0, 128(%rsp)        # 16-byte Spill
	movapd	128(%rsp), %xmm0        # 16-byte Reload
	andpd	.LCPI0_6(%rip), %xmm0
	movapd	%xmm0, %xmm1
	shufpd	$1, %xmm1, %xmm1        # xmm1 = xmm1[1,0]
	movapd	128(%rsp), %xmm2        # 16-byte Reload
	shufpd	$1, %xmm2, %xmm2        # xmm2 = xmm2[1,0]
	cmpltsd	%xmm0, %xmm1
	movapd	%xmm1, %xmm0
	andpd	128(%rsp), %xmm0        # 16-byte Folded Reload
	andnpd	%xmm2, %xmm1
	orpd	%xmm0, %xmm1
	.loc	1 204 16 is_stmt 0 discriminator 1 # ep.c:204:16
	andpd	.LCPI0_6(%rip), %xmm1
	.loc	1 204 16 discriminator 4 # ep.c:204:16
.Ltmp59:
	cvttsd2si	%xmm1, %eax
.Ltmp60:
	#DEBUG_VALUE: main:l <- EAX
	.loc	1 205 16 is_stmt 1      # ep.c:205:16
	cltq
.Ltmp61:
	movsd	q(,%rax,8), %xmm0
	addsd	.LCPI0_4(%rip), %xmm0
	.loc	1 205 9 is_stmt 0       # ep.c:205:9
	movsd	%xmm0, q(,%rax,8)
	.loc	1 206 16 is_stmt 1      # ep.c:206:16
	movapd	112(%rsp), %xmm0        # 16-byte Reload
	addpd	128(%rsp), %xmm0        # 16-byte Folded Reload
	movapd	%xmm0, 112(%rsp)        # 16-byte Spill
.Ltmp62:
.LBB0_31:                               # %for.inc115.us
                                        #   in Loop: Header=BB0_27 Depth=2
	#DEBUG_VALUE: main:j <- 13
	#DEBUG_VALUE: main:verified <- 0
	#DEBUG_VALUE: main:np <- 256
	#DEBUG_VALUE: main:i <- 1
	#DEBUG_VALUE: main:Mops <- 0.000000e+00
	#DEBUG_VALUE: main:t1 <- [R15+0]
	.loc	1 196 5                 # ep.c:196:5
	addq	$16, %r14
	jne	.LBB0_27
.Ltmp63:
# BB#32:                                # %for.inc121.us
                                        #   in Loop: Header=BB0_21 Depth=1
	#DEBUG_VALUE: main:j <- 13
	#DEBUG_VALUE: main:verified <- 0
	#DEBUG_VALUE: main:np <- 256
	#DEBUG_VALUE: main:i <- 1
	#DEBUG_VALUE: main:Mops <- 0.000000e+00
	#DEBUG_VALUE: main:t1 <- [R15+0]
	movl	$1, %edi
	.loc	1 211 25 discriminator 1 # ep.c:211:25
.Ltmp64:
	callq	timer_stop
.Ltmp65:
	.loc	1 167 24                # ep.c:167:24
	incl	%ebx
.Ltmp66:
	#DEBUG_VALUE: main:k <- EBX
	.loc	1 167 3 is_stmt 0       # ep.c:167:3
	cmpl	$257, %ebx              # imm = 0x101
	jne	.LBB0_21
	jmp	.LBB0_33
.Ltmp67:
.LBB0_7:
	#DEBUG_VALUE: main:j <- 13
	#DEBUG_VALUE: main:verified <- 0
	#DEBUG_VALUE: main:np <- 256
	#DEBUG_VALUE: main:i <- 1
	#DEBUG_VALUE: main:Mops <- 0.000000e+00
	#DEBUG_VALUE: main:t1 <- 1.220703e+09
	leaq	192(%rsp), %r15
	leaq	184(%rsp), %r12
	.align	16, 0x90
.LBB0_8:                                # %for.body47
                                        # =>This Loop Header: Depth=1
                                        #     Child Loop BB0_9 Depth 2
                                        #     Child Loop BB0_14 Depth 2
	#DEBUG_VALUE: main:j <- 13
	#DEBUG_VALUE: main:verified <- 0
	#DEBUG_VALUE: main:np <- 256
	#DEBUG_VALUE: main:i <- 1
	#DEBUG_VALUE: main:Mops <- 0.000000e+00
	#DEBUG_VALUE: main:t1 <- 1.220703e+09
	.loc	1 168 10 is_stmt 1      # ep.c:168:10
.Ltmp68:
	leal	-1(%rbx), %r14d
.Ltmp69:
	#DEBUG_VALUE: main:kk <- R14D
	#DEBUG_VALUE: main:t1 <- 2.718282e+08
	movabsq	$4733340128880099328, %rax # imm = 0x41B033C4D7000000
	.loc	1 169 5                 # ep.c:169:5
	movq	%rax, 192(%rsp)
	.loc	1 170 5                 # ep.c:170:5
	movsd	104(%rsp), %xmm0        # 8-byte Reload
	movsd	%xmm0, 184(%rsp)
	movl	$1, %ebp
.Ltmp70:
	.align	16, 0x90
.LBB0_9:                                # %for.body52
                                        #   Parent Loop BB0_8 Depth=1
                                        # =>  This Inner Loop Header: Depth=2
	#DEBUG_VALUE: main:j <- 13
	#DEBUG_VALUE: main:verified <- 0
	#DEBUG_VALUE: main:np <- 256
	#DEBUG_VALUE: main:i <- 1
	#DEBUG_VALUE: main:Mops <- 0.000000e+00
	#DEBUG_VALUE: main:t1 <- 2.718282e+08
	.loc	1 175 12                # ep.c:175:12
	movl	%r14d, %r13d
	shrl	$31, %r13d
	addl	%r14d, %r13d
	.loc	1 176 12                # ep.c:176:12
.Ltmp71:
	movl	%r13d, %eax
	andl	$-2, %eax
	.loc	1 176 11 is_stmt 0      # ep.c:176:11
	cmpl	%r14d, %eax
	je	.LBB0_11
# BB#10:                                # %if.then55
                                        #   in Loop: Header=BB0_9 Depth=2
	#DEBUG_VALUE: main:j <- 13
	#DEBUG_VALUE: main:verified <- 0
	#DEBUG_VALUE: main:np <- 256
	#DEBUG_VALUE: main:i <- 1
	#DEBUG_VALUE: main:Mops <- 0.000000e+00
	#DEBUG_VALUE: main:t1 <- 2.718282e+08
	.loc	1 176 44 discriminator 1 # ep.c:176:44
	movsd	184(%rsp), %xmm0
.Ltmp72:
	#DEBUG_VALUE: main:t1 <- [R15+0]
	.loc	1 176 32                # ep.c:176:32
	movq	%r15, %rdi
	callq	randlc
.Ltmp73:
.LBB0_11:                               # %if.end57
                                        #   in Loop: Header=BB0_9 Depth=2
	#DEBUG_VALUE: main:j <- 13
	#DEBUG_VALUE: main:verified <- 0
	#DEBUG_VALUE: main:np <- 256
	#DEBUG_VALUE: main:i <- 1
	#DEBUG_VALUE: main:Mops <- 0.000000e+00
	#DEBUG_VALUE: main:t1 <- 2.718282e+08
	.loc	1 177 11 is_stmt 1      # ep.c:177:11
	incl	%r14d
	cmpl	$3, %r14d
	jb	.LBB0_13
.Ltmp74:
# BB#12:                                # %if.end61
                                        #   in Loop: Header=BB0_9 Depth=2
	#DEBUG_VALUE: main:j <- 13
	#DEBUG_VALUE: main:verified <- 0
	#DEBUG_VALUE: main:np <- 256
	#DEBUG_VALUE: main:i <- 1
	#DEBUG_VALUE: main:Mops <- 0.000000e+00
	#DEBUG_VALUE: main:t1 <- 2.718282e+08
	.loc	1 175 12                # ep.c:175:12
	sarl	%r13d
.Ltmp75:
	#DEBUG_VALUE: main:ik <- R13D
	#DEBUG_VALUE: main:kk <- R13D
	.loc	1 178 24                # ep.c:178:24
	movsd	184(%rsp), %xmm0
.Ltmp76:
	#DEBUG_VALUE: main:t2 <- [R12+0]
	.loc	1 178 12 is_stmt 0      # ep.c:178:12
	movq	%r12, %rdi
	callq	randlc
.Ltmp77:
	.loc	1 174 27 is_stmt 1      # ep.c:174:27
	incl	%ebp
.Ltmp78:
	#DEBUG_VALUE: main:i <- EBP
	.loc	1 174 17 is_stmt 0 discriminator 2 # ep.c:174:17
	cmpl	$101, %ebp
	movl	%r13d, %r14d
.Ltmp79:
	#DEBUG_VALUE: main:ik <- R14D
	#DEBUG_VALUE: main:kk <- R14D
	jl	.LBB0_9
.Ltmp80:
.LBB0_13:                               # %for.cond74.preheader
                                        #   in Loop: Header=BB0_8 Depth=1
	#DEBUG_VALUE: main:j <- 13
	#DEBUG_VALUE: main:verified <- 0
	#DEBUG_VALUE: main:np <- 256
	#DEBUG_VALUE: main:i <- 1
	#DEBUG_VALUE: main:Mops <- 0.000000e+00
	#DEBUG_VALUE: main:t1 <- 2.718282e+08
	#DEBUG_VALUE: main:t1 <- [R15+0]
	movl	$131072, %edi           # imm = 0x20000
	.loc	1 186 5 is_stmt 1       # ep.c:186:5
	movl	$x, %edx
	movq	%r15, %rsi
	movsd	.LCPI0_2(%rip), %xmm0
	callq	vranlc
	movq	$-1048576, %r14         # imm = 0xFFFFFFFFFFF00000
.Ltmp81:
	.align	16, 0x90
.LBB0_14:                               # %for.body77
                                        #   Parent Loop BB0_8 Depth=1
                                        # =>  This Inner Loop Header: Depth=2
	#DEBUG_VALUE: main:j <- 13
	#DEBUG_VALUE: main:verified <- 0
	#DEBUG_VALUE: main:np <- 256
	#DEBUG_VALUE: main:i <- 1
	#DEBUG_VALUE: main:Mops <- 0.000000e+00
	#DEBUG_VALUE: main:t1 <- 2.718282e+08
	#DEBUG_VALUE: main:t1 <- [R15+0]
	.loc	1 197 18                # ep.c:197:18
	movaps	x+1048576(%r14), %xmm0
	.loc	1 197 12 is_stmt 0      # ep.c:197:12
	movaps	%xmm0, 128(%rsp)        # 16-byte Spill
	movapd	128(%rsp), %xmm0        # 16-byte Reload
	addpd	%xmm0, %xmm0
	movapd	%xmm0, 128(%rsp)        # 16-byte Spill
	movapd	128(%rsp), %xmm0        # 16-byte Reload
	addpd	.LCPI0_3(%rip), %xmm0
	.loc	1 199 12 is_stmt 1      # ep.c:199:12
	movapd	%xmm0, 128(%rsp)        # 16-byte Spill
	movapd	128(%rsp), %xmm0        # 16-byte Reload
	mulpd	%xmm0, %xmm0
	movapd	%xmm0, %xmm1
	shufpd	$1, %xmm1, %xmm1        # xmm1 = xmm1[1,0]
	addsd	%xmm0, %xmm1
.Ltmp82:
	#DEBUG_VALUE: main:t1 <- XMM1
	.loc	1 199 7 is_stmt 0       # ep.c:199:7
	movsd	%xmm1, 192(%rsp)
	movsd	.LCPI0_4(%rip), %xmm0
	.loc	1 200 11 is_stmt 1      # ep.c:200:11
.Ltmp83:
	ucomisd	%xmm1, %xmm0
	jb	.LBB0_18
.Ltmp84:
# BB#15:                                # %if.then93
                                        #   in Loop: Header=BB0_14 Depth=2
	#DEBUG_VALUE: main:j <- 13
	#DEBUG_VALUE: main:verified <- 0
	#DEBUG_VALUE: main:np <- 256
	#DEBUG_VALUE: main:i <- 1
	#DEBUG_VALUE: main:Mops <- 0.000000e+00
	#DEBUG_VALUE: main:t1 <- XMM1
	#DEBUG_VALUE: main:t1 <- [R15+0]
	.loc	1 201 28                # ep.c:201:28
	movaps	%xmm1, %xmm0
	callq	log
	.loc	1 201 21 is_stmt 0      # ep.c:201:21
	mulsd	.LCPI0_5(%rip), %xmm0
	divsd	192(%rsp), %xmm0
	.loc	1 201 16                # ep.c:201:16
	xorps	%xmm1, %xmm1
	sqrtsd	%xmm0, %xmm1
	ucomisd	%xmm1, %xmm1
	jnp	.LBB0_17
.Ltmp85:
# BB#16:                                # %call.sqrt36
                                        #   in Loop: Header=BB0_14 Depth=2
	#DEBUG_VALUE: main:j <- 13
	#DEBUG_VALUE: main:verified <- 0
	#DEBUG_VALUE: main:np <- 256
	#DEBUG_VALUE: main:i <- 1
	#DEBUG_VALUE: main:Mops <- 0.000000e+00
	#DEBUG_VALUE: main:t1 <- [R15+0]
	callq	sqrt
	movaps	%xmm0, %xmm1
.Ltmp86:
.LBB0_17:                               # %if.then93.split
                                        #   in Loop: Header=BB0_14 Depth=2
	#DEBUG_VALUE: main:j <- 13
	#DEBUG_VALUE: main:verified <- 0
	#DEBUG_VALUE: main:np <- 256
	#DEBUG_VALUE: main:i <- 1
	#DEBUG_VALUE: main:Mops <- 0.000000e+00
	#DEBUG_VALUE: main:t1 <- [R15+0]
	#DEBUG_VALUE: main:t2 <- XMM1
	.loc	1 201 9                 # ep.c:201:9
	movsd	%xmm1, 184(%rsp)
	.loc	1 202 17 is_stmt 1      # ep.c:202:17
	movlhps	%xmm1, %xmm1            # xmm1 = xmm1[0,0]
.Ltmp87:
	movapd	128(%rsp), %xmm0        # 16-byte Reload
	mulpd	%xmm1, %xmm0
	.loc	1 204 16                # ep.c:204:16
	movapd	%xmm0, 128(%rsp)        # 16-byte Spill
	movapd	128(%rsp), %xmm0        # 16-byte Reload
	andpd	.LCPI0_6(%rip), %xmm0
	movapd	%xmm0, %xmm1
	shufpd	$1, %xmm1, %xmm1        # xmm1 = xmm1[1,0]
	movapd	128(%rsp), %xmm2        # 16-byte Reload
	shufpd	$1, %xmm2, %xmm2        # xmm2 = xmm2[1,0]
	cmpltsd	%xmm0, %xmm1
	movapd	%xmm1, %xmm0
	andpd	128(%rsp), %xmm0        # 16-byte Folded Reload
	andnpd	%xmm2, %xmm1
	orpd	%xmm0, %xmm1
	.loc	1 204 16 is_stmt 0 discriminator 1 # ep.c:204:16
	andpd	.LCPI0_6(%rip), %xmm1
	.loc	1 204 16 discriminator 4 # ep.c:204:16
.Ltmp88:
	cvttsd2si	%xmm1, %eax
.Ltmp89:
	#DEBUG_VALUE: main:l <- EAX
	.loc	1 205 16 is_stmt 1      # ep.c:205:16
	cltq
.Ltmp90:
	movsd	q(,%rax,8), %xmm0
	addsd	.LCPI0_4(%rip), %xmm0
	.loc	1 205 9 is_stmt 0       # ep.c:205:9
	movsd	%xmm0, q(,%rax,8)
	.loc	1 206 16 is_stmt 1      # ep.c:206:16
	movapd	112(%rsp), %xmm0        # 16-byte Reload
	addpd	128(%rsp), %xmm0        # 16-byte Folded Reload
	movapd	%xmm0, 112(%rsp)        # 16-byte Spill
.Ltmp91:
.LBB0_18:                               # %for.inc115
                                        #   in Loop: Header=BB0_14 Depth=2
	#DEBUG_VALUE: main:j <- 13
	#DEBUG_VALUE: main:verified <- 0
	#DEBUG_VALUE: main:np <- 256
	#DEBUG_VALUE: main:i <- 1
	#DEBUG_VALUE: main:Mops <- 0.000000e+00
	#DEBUG_VALUE: main:t1 <- [R15+0]
	.loc	1 196 5                 # ep.c:196:5
	addq	$16, %r14
	jne	.LBB0_14
.Ltmp92:
# BB#19:                                # %for.inc121
                                        #   in Loop: Header=BB0_8 Depth=1
	#DEBUG_VALUE: main:j <- 13
	#DEBUG_VALUE: main:verified <- 0
	#DEBUG_VALUE: main:np <- 256
	#DEBUG_VALUE: main:i <- 1
	#DEBUG_VALUE: main:Mops <- 0.000000e+00
	#DEBUG_VALUE: main:t1 <- [R15+0]
	.loc	1 167 24                # ep.c:167:24
	incl	%ebx
.Ltmp93:
	#DEBUG_VALUE: main:k <- EBX
	.loc	1 167 3 is_stmt 0       # ep.c:167:3
	cmpl	$257, %ebx              # imm = 0x101
	jne	.LBB0_8
.Ltmp94:
.LBB0_33:                               # %for.cond124.preheader
	#DEBUG_VALUE: main:j <- 13
	#DEBUG_VALUE: main:verified <- 0
	#DEBUG_VALUE: main:np <- 256
	#DEBUG_VALUE: main:i <- 1
	#DEBUG_VALUE: main:Mops <- 0.000000e+00
	#DEBUG_VALUE: main:t1 <- 1.220703e+09
	xorpd	%xmm0, %xmm0
	.loc	1 215 10 is_stmt 1      # ep.c:215:10
.Ltmp95:
	movsd	%xmm0, 128(%rsp)        # 8-byte Spill
	movsd	128(%rsp), %xmm0        # 8-byte Reload
	addsd	q(%rip), %xmm0
	movsd	%xmm0, 128(%rsp)        # 8-byte Spill
.Ltmp96:
	#DEBUG_VALUE: main:gc <- [RSP+128]
	movsd	128(%rsp), %xmm0        # 8-byte Reload
	addsd	q+8(%rip), %xmm0
	movsd	%xmm0, 128(%rsp)        # 8-byte Spill
	movsd	128(%rsp), %xmm0        # 8-byte Reload
	addsd	q+16(%rip), %xmm0
	movsd	%xmm0, 128(%rsp)        # 8-byte Spill
	movsd	128(%rsp), %xmm0        # 8-byte Reload
	addsd	q+24(%rip), %xmm0
	movsd	%xmm0, 128(%rsp)        # 8-byte Spill
	movsd	128(%rsp), %xmm0        # 8-byte Reload
	addsd	q+32(%rip), %xmm0
	movsd	%xmm0, 128(%rsp)        # 8-byte Spill
	movsd	128(%rsp), %xmm0        # 8-byte Reload
	addsd	q+40(%rip), %xmm0
	movsd	%xmm0, 128(%rsp)        # 8-byte Spill
	movsd	128(%rsp), %xmm0        # 8-byte Reload
	addsd	q+48(%rip), %xmm0
	movsd	%xmm0, 128(%rsp)        # 8-byte Spill
	movsd	128(%rsp), %xmm0        # 8-byte Reload
	addsd	q+56(%rip), %xmm0
	movsd	%xmm0, 128(%rsp)        # 8-byte Spill
	movsd	128(%rsp), %xmm0        # 8-byte Reload
	addsd	q+64(%rip), %xmm0
	movsd	%xmm0, 128(%rsp)        # 8-byte Spill
	movsd	128(%rsp), %xmm0        # 8-byte Reload
	addsd	q+72(%rip), %xmm0
.Ltmp97:
	.loc	1 218 3                 # ep.c:218:3
	movsd	%xmm0, 128(%rsp)        # 8-byte Spill
	xorl	%ebx, %ebx
	xorl	%edi, %edi
	callq	timer_stop
.Ltmp98:
	xorl	%edi, %edi
	.loc	1 219 8                 # ep.c:219:8
	callq	timer_read
	movsd	%xmm0, 104(%rsp)        # 8-byte Spill
.Ltmp99:
	#DEBUG_VALUE: main:sy_verify_value <- -6.958407e+03
	#DEBUG_VALUE: main:sx_verify_value <- -3.247835e+03
	#DEBUG_VALUE: main:nit <- 0
	#DEBUG_VALUE: main:tm <- [RSP+104]
	#DEBUG_VALUE: main:verified <- 1
	movsd	.LCPI0_7(%rip), %xmm0
	.loc	1 249 20                # ep.c:249:20
.Ltmp100:
	addsd	112(%rsp), %xmm0        # 16-byte Folded Reload
	.loc	1 249 19 is_stmt 0      # ep.c:249:19
	divsd	.LCPI0_8(%rip), %xmm0
	.loc	1 249 14                # ep.c:249:14
	andpd	.LCPI0_6(%rip), %xmm0
.Ltmp101:
	#DEBUG_VALUE: main:sx_err <- XMM0
	movsd	.LCPI0_9(%rip), %xmm1
	.loc	1 251 18 is_stmt 1      # ep.c:251:18
	ucomisd	%xmm0, %xmm1
	jb	.LBB0_35
.Ltmp102:
# BB#34:                                # %land.rhs
	#DEBUG_VALUE: main:j <- 13
	#DEBUG_VALUE: main:verified <- 1
	#DEBUG_VALUE: main:np <- 256
	#DEBUG_VALUE: main:i <- 1
	#DEBUG_VALUE: main:Mops <- 0.000000e+00
	#DEBUG_VALUE: main:t1 <- 1.220703e+09
	#DEBUG_VALUE: main:gc <- [RSP+128]
	#DEBUG_VALUE: main:tm <- [RSP+104]
	#DEBUG_VALUE: main:nit <- 0
	#DEBUG_VALUE: main:sx_verify_value <- -3.247835e+03
	#DEBUG_VALUE: main:sy_verify_value <- -6.958407e+03
	.loc	1 250 20                # ep.c:250:20
	movapd	112(%rsp), %xmm0        # 16-byte Reload
	shufpd	$1, %xmm0, %xmm0        # xmm0 = xmm0[1,0]
	addsd	.LCPI0_10(%rip), %xmm0
	.loc	1 250 19 is_stmt 0      # ep.c:250:19
	divsd	.LCPI0_11(%rip), %xmm0
	.loc	1 250 14                # ep.c:250:14
	andpd	.LCPI0_6(%rip), %xmm0
.Ltmp103:
	#DEBUG_VALUE: main:sy_err <- XMM0
	.loc	1 251 41 is_stmt 1 discriminator 1 # ep.c:251:41
	ucomisd	%xmm0, %xmm1
	setae	%bl
.Ltmp104:
.LBB0_35:                               # %land.end
	#DEBUG_VALUE: main:j <- 13
	#DEBUG_VALUE: main:verified <- 1
	#DEBUG_VALUE: main:np <- 256
	#DEBUG_VALUE: main:i <- 1
	#DEBUG_VALUE: main:Mops <- 0.000000e+00
	#DEBUG_VALUE: main:t1 <- 1.220703e+09
	#DEBUG_VALUE: main:gc <- [RSP+128]
	#DEBUG_VALUE: main:tm <- [RSP+104]
	#DEBUG_VALUE: main:nit <- 0
	#DEBUG_VALUE: main:sx_verify_value <- -3.247835e+03
	#DEBUG_VALUE: main:sy_verify_value <- -6.958407e+03
	.loc	1 254 10                # ep.c:254:10
	movsd	96(%rsp), %xmm0         # 8-byte Reload
	divsd	104(%rsp), %xmm0        # 8-byte Folded Reload
	.loc	1 256 3                 # ep.c:256:3
	movsd	%xmm0, 96(%rsp)         # 8-byte Spill
	movl	$.Lstr22, %edi
	callq	puts
.Ltmp105:
	.loc	1 257 3                 # ep.c:257:3
	movl	$.L.str6, %edi
	movb	$1, %al
	movsd	104(%rsp), %xmm0        # 8-byte Reload
	callq	printf
	.loc	1 258 3                 # ep.c:258:3
	movl	$.L.str7, %edi
	movl	$24, %esi
	xorl	%eax, %eax
	callq	printf
	.loc	1 259 3                 # ep.c:259:3
	movl	$.L.str8, %edi
	movb	$1, %al
	movsd	128(%rsp), %xmm0        # 8-byte Reload
	callq	printf
	.loc	1 260 3                 # ep.c:260:3
	movapd	112(%rsp), %xmm1        # 16-byte Reload
	shufpd	$1, %xmm1, %xmm1        # xmm1 = xmm1[1,0]
	movl	$.L.str9, %edi
	movb	$2, %al
	movaps	112(%rsp), %xmm0        # 16-byte Reload
	callq	printf
	.loc	1 261 3                 # ep.c:261:3
	movl	$.Lstr23, %edi
	callq	puts
.Ltmp106:
	#DEBUG_VALUE: main:i <- 0
	.loc	1 263 31                # ep.c:263:31
	movsd	q(%rip), %xmm0
	.loc	1 263 5 is_stmt 0       # ep.c:263:5
	movl	$.L.str11, %edi
	xorl	%esi, %esi
	movb	$1, %al
	callq	printf
	.loc	1 263 31                # ep.c:263:31
	movsd	q+8(%rip), %xmm0
	.loc	1 263 5                 # ep.c:263:5
	movl	$.L.str11, %edi
	movl	$1, %esi
	movb	$1, %al
	callq	printf
	.loc	1 263 31                # ep.c:263:31
	movsd	q+16(%rip), %xmm0
	.loc	1 263 5                 # ep.c:263:5
	movl	$.L.str11, %edi
	movl	$2, %esi
	movb	$1, %al
	callq	printf
	.loc	1 263 31                # ep.c:263:31
	movsd	q+24(%rip), %xmm0
	.loc	1 263 5                 # ep.c:263:5
	movl	$.L.str11, %edi
	movl	$3, %esi
	movb	$1, %al
	callq	printf
	.loc	1 263 31                # ep.c:263:31
	movsd	q+32(%rip), %xmm0
	.loc	1 263 5                 # ep.c:263:5
	movl	$.L.str11, %edi
	movl	$4, %esi
	movb	$1, %al
	callq	printf
	.loc	1 263 31                # ep.c:263:31
	movsd	q+40(%rip), %xmm0
	.loc	1 263 5                 # ep.c:263:5
	movl	$.L.str11, %edi
	movl	$5, %esi
	movb	$1, %al
	callq	printf
	.loc	1 263 31                # ep.c:263:31
	movsd	q+48(%rip), %xmm0
	.loc	1 263 5                 # ep.c:263:5
	movl	$.L.str11, %edi
	movl	$6, %esi
	movb	$1, %al
	callq	printf
	.loc	1 263 31                # ep.c:263:31
	movsd	q+56(%rip), %xmm0
	.loc	1 263 5                 # ep.c:263:5
	movl	$.L.str11, %edi
	movl	$7, %esi
	movb	$1, %al
	callq	printf
	.loc	1 263 31                # ep.c:263:31
	movsd	q+64(%rip), %xmm0
	.loc	1 263 5                 # ep.c:263:5
	movl	$.L.str11, %edi
	movl	$8, %esi
	movb	$1, %al
	callq	printf
	.loc	1 263 31                # ep.c:263:31
	movsd	q+72(%rip), %xmm0
	.loc	1 263 5                 # ep.c:263:5
	movl	$.L.str11, %edi
	movl	$9, %esi
	movb	$1, %al
	callq	printf
.Ltmp107:
	.loc	1 251 17 is_stmt 1 discriminator 2 # ep.c:251:17
	movzbl	%bl, %eax
.Ltmp108:
	#DEBUG_VALUE: main:verified <- EAX
	.loc	1 254 10                # ep.c:254:10
	movsd	96(%rsp), %xmm0         # 8-byte Reload
	divsd	.LCPI0_12(%rip), %xmm0
	.loc	1 266 3                 # ep.c:266:3
	movsd	%xmm0, 96(%rsp)         # 8-byte Spill
.Ltmp109:
	#DEBUG_VALUE: main:Mops <- [RSP+96]
	movl	%eax, 8(%rsp)
	movq	$.L.str18, 80(%rsp)
	movq	$.L.str16, 72(%rsp)
	movq	$.L.str16, 64(%rsp)
	movq	$.L.str17, 56(%rsp)
	movq	$.L.str16, 48(%rsp)
	movq	$.L.str16, 40(%rsp)
	movq	$.L.str16, 32(%rsp)
	movq	$.L.str15, 24(%rsp)
	movq	$.L.str14, 16(%rsp)
	movq	$.L.str13, (%rsp)
	movl	$.L.str12, %edi
	movl	$83, %esi
	movl	$25, %edx
	movl	$0, %ecx
	xorl	%r8d, %r8d
	xorl	%r9d, %r9d
	movsd	104(%rsp), %xmm0        # 8-byte Reload
	movsd	96(%rsp), %xmm1         # 8-byte Reload
	callq	print_results
.Ltmp110:
	cmpl	$0, 92(%rsp)            # 4-byte Folded Reload
	je	.LBB0_37
.Ltmp111:
# BB#36:                                # %if.then168
	#DEBUG_VALUE: main:j <- 13
	#DEBUG_VALUE: main:np <- 256
	#DEBUG_VALUE: main:i <- 0
	#DEBUG_VALUE: main:Mops <- [RSP+96]
	#DEBUG_VALUE: main:t1 <- 1.220703e+09
	#DEBUG_VALUE: main:gc <- [RSP+128]
	#DEBUG_VALUE: main:tm <- 1.000000e+00
	#DEBUG_VALUE: main:nit <- 0
	#DEBUG_VALUE: main:sx_verify_value <- -3.247835e+03
	#DEBUG_VALUE: main:sy_verify_value <- -6.958407e+03
	xorps	%xmm1, %xmm1
	.loc	1 273 9                 # ep.c:273:9
.Ltmp112:
	movsd	104(%rsp), %xmm0        # 8-byte Reload
	movsd	%xmm0, 128(%rsp)        # 8-byte Spill
	movsd	128(%rsp), %xmm0        # 8-byte Reload
	cmpnlesd	%xmm1, %xmm0
	movsd	%xmm0, 128(%rsp)        # 8-byte Spill
	movsd	104(%rsp), %xmm1        # 8-byte Reload
	movsd	128(%rsp), %xmm0        # 8-byte Reload
	andpd	%xmm0, %xmm1
	movsd	%xmm1, 104(%rsp)        # 8-byte Spill
	movsd	.LCPI0_4(%rip), %xmm1
	movsd	128(%rsp), %xmm0        # 8-byte Reload
	andnpd	%xmm1, %xmm0
	movsd	%xmm0, 128(%rsp)        # 8-byte Spill
	movsd	104(%rsp), %xmm1        # 8-byte Reload
	movsd	128(%rsp), %xmm0        # 8-byte Reload
	orpd	%xmm1, %xmm0
	.loc	1 274 10                # ep.c:274:10
	movsd	%xmm0, 128(%rsp)        # 8-byte Spill
	xorl	%edi, %edi
	callq	timer_read
.Ltmp113:
	movapd	%xmm0, %xmm2
.Ltmp114:
	#DEBUG_VALUE: main:tt <- XMM2
	movsd	.LCPI0_13(%rip), %xmm0
	.loc	1 275 55                # ep.c:275:55
	movsd	%xmm0, 112(%rsp)        # 8-byte Spill
	movapd	%xmm2, %xmm1
	mulsd	.LCPI0_13(%rip), %xmm1
	divsd	128(%rsp), %xmm1        # 8-byte Folded Reload
	.loc	1 275 5 is_stmt 0       # ep.c:275:5
	movl	$.L.str19, %edi
	movb	$2, %al
	movapd	%xmm2, %xmm0
	callq	printf
	movl	$1, %edi
	.loc	1 276 10 is_stmt 1      # ep.c:276:10
	callq	timer_read
.Ltmp115:
	#DEBUG_VALUE: main:tt <- XMM0
	.loc	1 277 53                # ep.c:277:53
	movapd	%xmm0, %xmm1
	mulsd	.LCPI0_13(%rip), %xmm1
	divsd	128(%rsp), %xmm1        # 8-byte Folded Reload
	.loc	1 277 5 is_stmt 0       # ep.c:277:5
	movl	$.L.str20, %edi
	movb	$2, %al
	callq	printf
	movl	$2, %edi
	.loc	1 278 10 is_stmt 1      # ep.c:278:10
	callq	timer_read
.Ltmp116:
	movapd	%xmm0, %xmm1
.Ltmp117:
	#DEBUG_VALUE: main:tt <- XMM1
	.loc	1 279 53                # ep.c:279:53
	movsd	112(%rsp), %xmm0        # 8-byte Reload
	mulsd	%xmm1, %xmm0
	movsd	%xmm0, 112(%rsp)        # 8-byte Spill
	movsd	112(%rsp), %xmm0        # 8-byte Reload
	divsd	128(%rsp), %xmm0        # 8-byte Folded Reload
	.loc	1 279 5 is_stmt 0       # ep.c:279:5
	movsd	%xmm0, 112(%rsp)        # 8-byte Spill
	movl	$.L.str21, %edi
	movb	$2, %al
	movapd	%xmm1, %xmm0
	movsd	112(%rsp), %xmm1        # 8-byte Reload
.Ltmp118:
	callq	printf
.Ltmp119:
.LBB0_37:                               # %if.end185
	#DEBUG_VALUE: main:j <- 13
	#DEBUG_VALUE: main:np <- 256
	#DEBUG_VALUE: main:i <- 0
	#DEBUG_VALUE: main:Mops <- [RSP+96]
	#DEBUG_VALUE: main:t1 <- 1.220703e+09
	#DEBUG_VALUE: main:gc <- [RSP+128]
	#DEBUG_VALUE: main:tm <- [RSP+104]
	#DEBUG_VALUE: main:nit <- 0
	#DEBUG_VALUE: main:sx_verify_value <- -3.247835e+03
	#DEBUG_VALUE: main:sy_verify_value <- -6.958407e+03
	xorl	%eax, %eax
	.loc	1 282 3 is_stmt 1       # ep.c:282:3
	addq	$200, %rsp
.Ltmp120:
	popq	%rbx
	popq	%r12
	popq	%r13
	popq	%r14
	popq	%r15
	popq	%rbp
	retq
.Ltmp121:
.Ltmp122:
	.size	main, .Ltmp122-main
.Lfunc_end0:
	.cfi_endproc

	.section	.rodata.cst8,"aM",@progbits,8
	.align	8
.LCPI1_0:
	.quad	4607182418800017408     # double 1
	.text
	.globl	print_results
	.align	16, 0x90
	.type	print_results,@function
print_results:                          # @print_results
.Lfunc_begin1:
	.file	6 "/home/norouzi/Desktop/software/benchmarks/SNU_NPB-1.0.3 (2)/NPB3.3-SER-C/common/print_results.c"
	.loc	6 10 0                  # print_results.c:10:0
	.cfi_startproc
# BB#0:                                 # %entry
	pushq	%rbp
.Ltmp123:
	.cfi_def_cfa_offset 16
	pushq	%r15
.Ltmp124:
	.cfi_def_cfa_offset 24
	pushq	%r14
.Ltmp125:
	.cfi_def_cfa_offset 32
	pushq	%r13
.Ltmp126:
	.cfi_def_cfa_offset 40
	pushq	%r12
.Ltmp127:
	.cfi_def_cfa_offset 48
	pushq	%rbx
.Ltmp128:
	.cfi_def_cfa_offset 56
	subq	$40, %rsp
.Ltmp129:
	.cfi_def_cfa_offset 96
.Ltmp130:
	.cfi_offset %rbx, -56
.Ltmp131:
	.cfi_offset %r12, -48
.Ltmp132:
	.cfi_offset %r13, -40
.Ltmp133:
	.cfi_offset %r14, -32
.Ltmp134:
	.cfi_offset %r15, -24
.Ltmp135:
	.cfi_offset %rbp, -16
	#DEBUG_VALUE: print_results:name <- RDI
	#DEBUG_VALUE: print_results:class <- ESI
	#DEBUG_VALUE: print_results:n1 <- EDX
	#DEBUG_VALUE: print_results:n2 <- ECX
	#DEBUG_VALUE: print_results:n3 <- R8D
	#DEBUG_VALUE: print_results:niter <- R9D
	#DEBUG_VALUE: print_results:t <- XMM0
	#DEBUG_VALUE: print_results:mops <- XMM1
	movsd	%xmm1, (%rsp)           # 8-byte Spill
.Ltmp136:
	#DEBUG_VALUE: print_results:mops <- [RSP+0]
	movsd	%xmm0, 8(%rsp)          # 8-byte Spill
.Ltmp137:
	#DEBUG_VALUE: print_results:t <- [RSP+8]
	movl	%r9d, %ebp
.Ltmp138:
	#DEBUG_VALUE: print_results:niter <- EBP
	movl	%r8d, %ebx
.Ltmp139:
	#DEBUG_VALUE: print_results:n3 <- EBX
	movl	%ecx, %r12d
.Ltmp140:
	#DEBUG_VALUE: print_results:n2 <- R12D
	movl	%edx, %r14d
.Ltmp141:
	#DEBUG_VALUE: print_results:n1 <- R14D
	movl	%esi, %r13d
.Ltmp142:
	#DEBUG_VALUE: print_results:class <- R13D
	movq	%rdi, %r15
	#DEBUG_VALUE: print_results:optype <- undef
	#DEBUG_VALUE: print_results:verified <- undef
.Ltmp143:
	#DEBUG_VALUE: print_results:name <- R15
	.loc	6 14 3 prologue_end     # print_results.c:14:3
	movl	$.L.str3, %edi
	xorl	%eax, %eax
	movq	%r15, %rsi
	callq	printf
.Ltmp144:
	.loc	6 15 3                  # print_results.c:15:3
	movl	$.L.str110, %edi
	xorl	%eax, %eax
	movl	%r13d, %esi
.Ltmp145:
	#DEBUG_VALUE: print_results:class <- ESI
	callq	printf
	.loc	6 22 8                  # print_results.c:22:8
	movl	%ebx, %eax
	orl	%r12d, %eax
	je	.LBB1_1
.Ltmp146:
# BB#7:                                 # %if.else30
	#DEBUG_VALUE: print_results:n1 <- R14D
	#DEBUG_VALUE: print_results:n2 <- R12D
	#DEBUG_VALUE: print_results:n3 <- EBX
	#DEBUG_VALUE: print_results:niter <- EBP
	#DEBUG_VALUE: print_results:t <- [RSP+8]
	#DEBUG_VALUE: print_results:mops <- [RSP+0]
	#DEBUG_VALUE: print_results:verified <- undef
	#DEBUG_VALUE: print_results:optype <- undef
	.loc	6 36 5                  # print_results.c:36:5
	movl	$.L.str5, %edi
	xorl	%eax, %eax
	movl	%r14d, %esi
	movl	%r12d, %edx
	movl	%ebx, %ecx
	callq	printf
.Ltmp147:
	jmp	.LBB1_8
.Ltmp148:
.LBB1_1:                                # %if.then
	#DEBUG_VALUE: print_results:name <- R15
	#DEBUG_VALUE: print_results:n1 <- R14D
	#DEBUG_VALUE: print_results:niter <- EBP
	#DEBUG_VALUE: print_results:t <- [RSP+8]
	#DEBUG_VALUE: print_results:mops <- [RSP+0]
	#DEBUG_VALUE: print_results:verified <- undef
	#DEBUG_VALUE: print_results:optype <- undef
	.loc	6 23 10                 # print_results.c:23:10
	movzbl	(%r15), %eax
	cmpl	$69, %eax
	jne	.LBB1_6
.Ltmp149:
# BB#2:                                 # %land.lhs.true8
	#DEBUG_VALUE: print_results:name <- R15
	#DEBUG_VALUE: print_results:n1 <- R14D
	#DEBUG_VALUE: print_results:niter <- EBP
	#DEBUG_VALUE: print_results:t <- [RSP+8]
	#DEBUG_VALUE: print_results:mops <- [RSP+0]
	#DEBUG_VALUE: print_results:verified <- undef
	#DEBUG_VALUE: print_results:optype <- undef
	movzbl	1(%r15), %eax
	cmpl	$80, %eax
	jne	.LBB1_6
.Ltmp150:
# BB#3:                                 # %if.then13
	#DEBUG_VALUE: print_results:n1 <- R14D
	#DEBUG_VALUE: print_results:niter <- EBP
	#DEBUG_VALUE: print_results:t <- [RSP+8]
	#DEBUG_VALUE: print_results:mops <- [RSP+0]
	#DEBUG_VALUE: print_results:verified <- undef
	#DEBUG_VALUE: print_results:optype <- undef
	movsd	.LCPI1_0(%rip), %xmm0
	.loc	6 24 33                 # print_results.c:24:33
.Ltmp151:
	movl	%r14d, %edi
	callq	ldexp
.Ltmp152:
	leaq	16(%rsp), %rcx
	.loc	6 24 7 is_stmt 0        # print_results.c:24:7
	movl	$.L.str211, %esi
	movb	$1, %al
	movq	%rcx, %rdi
	callq	sprintf
	movl	$15, %eax
.Ltmp153:
	#DEBUG_VALUE: print_results:j <- 14
	.loc	6 26 12 is_stmt 1       # print_results.c:26:12
	movzbl	30(%rsp), %ecx
	cmpl	$46, %ecx
	jne	.LBB1_5
.Ltmp154:
# BB#4:                                 # %if.then21
	#DEBUG_VALUE: print_results:niter <- EBP
	#DEBUG_VALUE: print_results:t <- [RSP+8]
	#DEBUG_VALUE: print_results:mops <- [RSP+0]
	#DEBUG_VALUE: print_results:verified <- undef
	#DEBUG_VALUE: print_results:optype <- undef
	#DEBUG_VALUE: print_results:j <- 14
	.loc	6 27 9                  # print_results.c:27:9
	movb	$32, 30(%rsp)
	movl	$14, %eax
.Ltmp155:
	#DEBUG_VALUE: print_results:j <- 13
.LBB1_5:                                # %if.end
	#DEBUG_VALUE: print_results:niter <- EBP
	#DEBUG_VALUE: print_results:t <- [RSP+8]
	#DEBUG_VALUE: print_results:mops <- [RSP+0]
	#DEBUG_VALUE: print_results:verified <- undef
	#DEBUG_VALUE: print_results:optype <- undef
	#DEBUG_VALUE: print_results:j <- 14
	.loc	6 30 7                  # print_results.c:30:7
	movb	$0, 16(%rsp,%rax)
	leaq	16(%rsp), %rcx
	.loc	6 31 7                  # print_results.c:31:7
	movl	$.L.str312, %edi
	xorl	%eax, %eax
	movq	%rcx, %rsi
	callq	printf
.Ltmp156:
	jmp	.LBB1_8
.Ltmp157:
.LBB1_6:                                # %if.else
	#DEBUG_VALUE: print_results:n1 <- R14D
	#DEBUG_VALUE: print_results:niter <- EBP
	#DEBUG_VALUE: print_results:t <- [RSP+8]
	#DEBUG_VALUE: print_results:mops <- [RSP+0]
	#DEBUG_VALUE: print_results:verified <- undef
	#DEBUG_VALUE: print_results:optype <- undef
	.loc	6 33 7                  # print_results.c:33:7
	movl	$.L.str413, %edi
	xorl	%eax, %eax
	movl	%r14d, %esi
	callq	printf
.Ltmp158:
.LBB1_8:                                # %if.end32
	#DEBUG_VALUE: print_results:niter <- EBP
	#DEBUG_VALUE: print_results:t <- [RSP+8]
	#DEBUG_VALUE: print_results:mops <- [RSP+0]
	#DEBUG_VALUE: print_results:verified <- undef
	#DEBUG_VALUE: print_results:optype <- undef
	#DEBUG_VALUE: print_results:cs7 <- undef
	#DEBUG_VALUE: print_results:cs6 <- undef
	#DEBUG_VALUE: print_results:cs5 <- undef
	#DEBUG_VALUE: print_results:cs4 <- undef
	movq	144(%rsp), %rbx
	#DEBUG_VALUE: print_results:cs3 <- RBX
	movq	136(%rsp), %r14
	#DEBUG_VALUE: print_results:cs2 <- R14
	movq	128(%rsp), %r15
	#DEBUG_VALUE: print_results:cs1 <- R15
	movq	120(%rsp), %r12
	#DEBUG_VALUE: print_results:compiletime <- R12
	movq	112(%rsp), %r13
	#DEBUG_VALUE: print_results:npbversion <- R13
	.loc	6 39 3                  # print_results.c:39:3
	movl	$.L.str614, %edi
	xorl	%eax, %eax
	movl	%ebp, %esi
	callq	printf
.Ltmp159:
	.loc	6 40 3                  # print_results.c:40:3
	movl	$.L.str715, %edi
	movb	$1, %al
	movsd	8(%rsp), %xmm0          # 8-byte Reload
	callq	printf
	.loc	6 41 3                  # print_results.c:41:3
	movl	$.L.str816, %edi
	movb	$1, %al
	movsd	(%rsp), %xmm0           # 8-byte Reload
	callq	printf
	.loc	6 42 3                  # print_results.c:42:3
	movl	$.L.str917, %edi
	xorl	%eax, %eax
	movq	96(%rsp), %rcx
	movq	%rcx, %rsi
	callq	printf
.Ltmp160:
	#DEBUG_VALUE: print_results:t <- [RSP+8]
	#DEBUG_VALUE: print_results:mops <- [RSP+0]
	#DEBUG_VALUE: print_results:verified <- undef
	#DEBUG_VALUE: print_results:optype <- undef
	#DEBUG_VALUE: print_results:cs7 <- undef
	#DEBUG_VALUE: print_results:cs6 <- undef
	#DEBUG_VALUE: print_results:cs5 <- undef
	#DEBUG_VALUE: print_results:cs4 <- undef
	#DEBUG_VALUE: print_results:cs3 <- RBX
	#DEBUG_VALUE: print_results:cs2 <- R14
	#DEBUG_VALUE: print_results:cs1 <- R15
	#DEBUG_VALUE: print_results:compiletime <- R12
	#DEBUG_VALUE: print_results:npbversion <- R13
	.loc	6 46 5                  # print_results.c:46:5
	movl	$.L.str10, %edi
.Ltmp161:
	.loc	6 43 8                  # print_results.c:43:8
	cmpl	$0, 104(%rsp)
	je	.LBB1_10
.Ltmp162:
# BB#9:                                 # %if.then37
	.loc	6 44 5                  # print_results.c:44:5
	movl	$.L.str1118, %esi
	jmp	.LBB1_11
.LBB1_10:                               # %if.else39
	.loc	6 46 5                  # print_results.c:46:5
	movl	$.L.str1219, %esi
.LBB1_11:                               # %if.end41
	xorl	%eax, %eax
	callq	printf
.Ltmp163:
	#DEBUG_VALUE: print_results:t <- [RSP+8]
	#DEBUG_VALUE: print_results:mops <- [RSP+0]
	#DEBUG_VALUE: print_results:verified <- undef
	#DEBUG_VALUE: print_results:optype <- undef
	#DEBUG_VALUE: print_results:cs7 <- undef
	#DEBUG_VALUE: print_results:cs6 <- undef
	#DEBUG_VALUE: print_results:cs5 <- undef
	#DEBUG_VALUE: print_results:cs4 <- undef
	#DEBUG_VALUE: print_results:cs3 <- RBX
	#DEBUG_VALUE: print_results:cs2 <- R14
	#DEBUG_VALUE: print_results:cs1 <- R15
	#DEBUG_VALUE: print_results:compiletime <- R12
	#DEBUG_VALUE: print_results:npbversion <- R13
	.loc	6 47 3                  # print_results.c:47:3
	movl	$.L.str1320, %edi
	xorl	%eax, %eax
	movq	%r13, %rsi
	callq	printf
.Ltmp164:
	.loc	6 48 3                  # print_results.c:48:3
	movl	$.L.str1421, %edi
	xorl	%eax, %eax
	movq	%r12, %rsi
	callq	printf
	.loc	6 50 3                  # print_results.c:50:3
	movl	$.L.str1522, %edi
	xorl	%eax, %eax
	movq	%r15, %rsi
	callq	printf
	.loc	6 52 3                  # print_results.c:52:3
	movl	$.L.str1623, %edi
	xorl	%eax, %eax
	movq	%r14, %rsi
	callq	printf
	.loc	6 53 3                  # print_results.c:53:3
	movl	$.L.str1724, %edi
	xorl	%eax, %eax
	movq	%rbx, %rsi
	callq	printf
	.loc	6 54 3                  # print_results.c:54:3
	movl	$.L.str1825, %edi
	xorl	%eax, %eax
	movq	152(%rsp), %rcx
	movq	%rcx, %rsi
	callq	printf
	.loc	6 55 3                  # print_results.c:55:3
	movl	$.L.str1926, %edi
	xorl	%eax, %eax
	movq	160(%rsp), %rcx
	movq	%rcx, %rsi
	callq	printf
	.loc	6 56 3                  # print_results.c:56:3
	movl	$.L.str2027, %edi
	xorl	%eax, %eax
	movq	168(%rsp), %rcx
	movq	%rcx, %rsi
	callq	printf
	.loc	6 57 3                  # print_results.c:57:3
	movl	$.L.str2128, %edi
	xorl	%eax, %eax
	movq	176(%rsp), %rcx
	movq	%rcx, %rsi
	callq	printf
	.loc	6 59 3                  # print_results.c:59:3
	movl	$.Lstr29, %edi
	callq	puts
	.loc	6 65 1                  # print_results.c:65:1
	addq	$40, %rsp
	popq	%rbx
.Ltmp165:
	popq	%r12
.Ltmp166:
	popq	%r13
.Ltmp167:
	popq	%r14
.Ltmp168:
	popq	%r15
.Ltmp169:
	popq	%rbp
	retq
.Ltmp170:
.Ltmp171:
	.size	print_results, .Ltmp171-print_results
.Lfunc_end1:
	.cfi_endproc

	.section	.rodata.cst8,"aM",@progbits,8
	.align	8
.LCPI2_0:
	.quad	4503599627370496000     # double 1.1920928955078125E-7
.LCPI2_1:
	.quad	4710765210229538816     # double 8388608
.LCPI2_2:
	.quad	4400016835940974592     # double 1.4210854715202004E-14
.LCPI2_3:
	.quad	-4409024035195715584    # double -70368744177664
	.text
	.globl	randlc
	.align	16, 0x90
	.type	randlc,@function
randlc:                                 # @randlc
.Lfunc_begin2:
	.file	7 "/home/norouzi/Desktop/software/benchmarks/SNU_NPB-1.0.3 (2)/NPB3.3-SER-C/common/randdp.c"
	.loc	7 5 0                   # randdp.c:5:0
	.cfi_startproc
# BB#0:                                 # %entry
	#DEBUG_VALUE: randlc:x <- RDI
	#DEBUG_VALUE: randlc:a <- XMM0
	movaps	%xmm0, %xmm5
.Ltmp172:
	#DEBUG_VALUE: randlc:a <- XMM5
	movq	%rdi, %rcx
.Ltmp173:
	#DEBUG_VALUE: randlc:t46 <- 7.036874e+13
	#DEBUG_VALUE: randlc:t23 <- 8.388608e+06
	#DEBUG_VALUE: randlc:r46 <- 1.421085e-14
	#DEBUG_VALUE: randlc:r23 <- 1.192093e-07
	#DEBUG_VALUE: randlc:x <- RCX
	movsd	.LCPI2_0(%rip), %xmm1
	.loc	7 47 8 prologue_end     # randdp.c:47:8
.Ltmp174:
                                        # kill: XMM0<def> XMM5<kill>
	mulsd	%xmm1, %xmm0
.Ltmp175:
	#DEBUG_VALUE: randlc:t1 <- XMM0
	.loc	7 48 8                  # randdp.c:48:8
	cvttsd2si	%xmm0, %eax
	cvtsi2sdl	%eax, %xmm2
.Ltmp176:
	#DEBUG_VALUE: randlc:a1 <- XMM2
	movsd	.LCPI2_1(%rip), %xmm6
	.loc	7 49 12                 # randdp.c:49:12
	movaps	%xmm2, %xmm0
.Ltmp177:
	mulsd	%xmm6, %xmm0
	.loc	7 49 8 is_stmt 0        # randdp.c:49:8
	subsd	%xmm0, %xmm5
.Ltmp178:
	#DEBUG_VALUE: randlc:a2 <- XMM5
	.loc	7 56 15 is_stmt 1       # randdp.c:56:15
	movsd	(%rcx), %xmm0
	.loc	7 56 8 is_stmt 0        # randdp.c:56:8
	movaps	%xmm0, %xmm3
	mulsd	%xmm1, %xmm3
.Ltmp179:
	#DEBUG_VALUE: randlc:t1 <- XMM3
	.loc	7 57 8 is_stmt 1        # randdp.c:57:8
	cvttsd2si	%xmm3, %eax
	cvtsi2sdl	%eax, %xmm4
	.loc	7 59 18                 # randdp.c:59:18
	movaps	%xmm5, %xmm3
.Ltmp180:
	mulsd	%xmm4, %xmm3
.Ltmp181:
	#DEBUG_VALUE: randlc:x1 <- XMM4
	.loc	7 58 13                 # randdp.c:58:13
	mulsd	%xmm6, %xmm4
.Ltmp182:
	.loc	7 58 8 is_stmt 0        # randdp.c:58:8
	subsd	%xmm4, %xmm0
.Ltmp183:
	#DEBUG_VALUE: randlc:x2 <- XMM0
	.loc	7 59 8 is_stmt 1        # randdp.c:59:8
	mulsd	%xmm0, %xmm2
.Ltmp184:
	addsd	%xmm3, %xmm2
.Ltmp185:
	#DEBUG_VALUE: randlc:t1 <- XMM2
	.loc	7 60 15                 # randdp.c:60:15
	mulsd	%xmm2, %xmm1
	.loc	7 60 8 is_stmt 0        # randdp.c:60:8
	cvttsd2si	%xmm1, %eax
	xorps	%xmm1, %xmm1
	cvtsi2sdl	%eax, %xmm1
.Ltmp186:
	#DEBUG_VALUE: randlc:t2 <- XMM1
	.loc	7 61 12 is_stmt 1       # randdp.c:61:12
	mulsd	%xmm6, %xmm1
.Ltmp187:
	.loc	7 61 7 is_stmt 0        # randdp.c:61:7
	subsd	%xmm1, %xmm2
.Ltmp188:
	#DEBUG_VALUE: randlc:z <- XMM2
	.loc	7 62 8 is_stmt 1        # randdp.c:62:8
	mulsd	%xmm6, %xmm2
.Ltmp189:
	.loc	7 62 18 is_stmt 0       # randdp.c:62:18
	mulsd	%xmm5, %xmm0
.Ltmp190:
	.loc	7 62 8                  # randdp.c:62:8
	addsd	%xmm2, %xmm0
.Ltmp191:
	#DEBUG_VALUE: randlc:t3 <- XMM0
	movsd	.LCPI2_2(%rip), %xmm2
	.loc	7 63 15 is_stmt 1       # randdp.c:63:15
	movaps	%xmm0, %xmm1
	mulsd	%xmm2, %xmm1
	.loc	7 63 8 is_stmt 0        # randdp.c:63:8
	cvttsd2si	%xmm1, %eax
	xorps	%xmm1, %xmm1
	cvtsi2sdl	%eax, %xmm1
.Ltmp192:
	#DEBUG_VALUE: randlc:t4 <- XMM1
	.loc	7 64 13 is_stmt 1       # randdp.c:64:13
	mulsd	.LCPI2_3(%rip), %xmm1
.Ltmp193:
	.loc	7 64 8 is_stmt 0        # randdp.c:64:8
	addsd	%xmm0, %xmm1
	.loc	7 64 3                  # randdp.c:64:3
	movsd	%xmm1, (%rcx)
	.loc	7 65 7 is_stmt 1        # randdp.c:65:7
	mulsd	%xmm2, %xmm1
.Ltmp194:
	#DEBUG_VALUE: randlc:r <- XMM1
	.loc	7 67 3                  # randdp.c:67:3
	movaps	%xmm1, %xmm0
.Ltmp195:
	retq
.Ltmp196:
.Ltmp197:
	.size	randlc, .Ltmp197-randlc
.Lfunc_end2:
	.cfi_endproc

	.section	.rodata.cst8,"aM",@progbits,8
	.align	8
.LCPI3_0:
	.quad	4503599627370496000     # double 1.1920928955078125E-7
.LCPI3_1:
	.quad	-4512606826625236992    # double -8388608
.LCPI3_2:
	.quad	4710765210229538816     # double 8388608
.LCPI3_3:
	.quad	4400016835940974592     # double 1.4210854715202004E-14
.LCPI3_4:
	.quad	-4409024035195715584    # double -70368744177664
	.text
	.globl	vranlc
	.align	16, 0x90
	.type	vranlc,@function
vranlc:                                 # @vranlc
.Lfunc_begin3:
	.loc	7 72 0                  # randdp.c:72:0
	.cfi_startproc
# BB#0:                                 # %entry
	#DEBUG_VALUE: vranlc:n <- EDI
	#DEBUG_VALUE: vranlc:x <- RSI
	#DEBUG_VALUE: vranlc:a <- XMM0
	#DEBUG_VALUE: vranlc:y <- RDX
	movq	%rdx, %rcx
.Ltmp198:
	#DEBUG_VALUE: vranlc:y <- RCX
	movaps	%xmm0, %xmm1
.Ltmp199:
	#DEBUG_VALUE: vranlc:a <- XMM1
	movl	%edi, %eax
.Ltmp200:
	#DEBUG_VALUE: vranlc:i <- 0
	#DEBUG_VALUE: vranlc:t46 <- 7.036874e+13
	#DEBUG_VALUE: vranlc:t23 <- 8.388608e+06
	#DEBUG_VALUE: vranlc:r46 <- 1.421085e-14
	#DEBUG_VALUE: vranlc:r23 <- 1.192093e-07
	#DEBUG_VALUE: vranlc:n <- EAX
	.loc	7 122 3 prologue_end    # randdp.c:122:3
	testl	%eax, %eax
	jle	.LBB3_3
.Ltmp201:
# BB#1:
	#DEBUG_VALUE: vranlc:n <- EAX
	#DEBUG_VALUE: vranlc:x <- RSI
	#DEBUG_VALUE: vranlc:a <- XMM1
	#DEBUG_VALUE: vranlc:y <- RCX
	#DEBUG_VALUE: vranlc:r23 <- 1.192093e-07
	#DEBUG_VALUE: vranlc:r46 <- 1.421085e-14
	#DEBUG_VALUE: vranlc:t23 <- 8.388608e+06
	#DEBUG_VALUE: vranlc:t46 <- 7.036874e+13
	#DEBUG_VALUE: vranlc:i <- 0
	movsd	.LCPI3_0(%rip), %xmm0
	.loc	7 115 8                 # randdp.c:115:8
	mulsd	%xmm1, %xmm0
.Ltmp202:
	#DEBUG_VALUE: vranlc:t1 <- XMM0
	.loc	7 116 8                 # randdp.c:116:8
	cvttsd2si	%xmm0, %edx
	cvtsi2sdl	%edx, %xmm8
.Ltmp203:
	#DEBUG_VALUE: vranlc:a1 <- XMM8
	movsd	.LCPI3_1(%rip), %xmm7
	.loc	7 117 12                # randdp.c:117:12
	mulsd	%xmm8, %xmm7
	.loc	7 117 8 is_stmt 0       # randdp.c:117:8
	addsd	%xmm1, %xmm7
.Ltmp204:
	#DEBUG_VALUE: vranlc:a2 <- XMM7
	movsd	.LCPI3_0(%rip), %xmm6
	movsd	.LCPI3_2(%rip), %xmm5
	movsd	.LCPI3_3(%rip), %xmm2
	movsd	.LCPI3_4(%rip), %xmm0
.Ltmp205:
	.align	16, 0x90
.LBB3_2:                                # %for.body
                                        # =>This Inner Loop Header: Depth=1
	#DEBUG_VALUE: vranlc:x <- RSI
	#DEBUG_VALUE: vranlc:r23 <- 1.192093e-07
	#DEBUG_VALUE: vranlc:r46 <- 1.421085e-14
	#DEBUG_VALUE: vranlc:t23 <- 8.388608e+06
	#DEBUG_VALUE: vranlc:t46 <- 7.036874e+13
	#DEBUG_VALUE: vranlc:i <- 0
	#DEBUG_VALUE: vranlc:a1 <- XMM8
	#DEBUG_VALUE: vranlc:a2 <- XMM7
	.loc	7 128 17 is_stmt 1      # randdp.c:128:17
	movsd	(%rsi), %xmm3
	.loc	7 128 10 is_stmt 0      # randdp.c:128:10
	movaps	%xmm3, %xmm1
	mulsd	%xmm6, %xmm1
.Ltmp206:
	#DEBUG_VALUE: vranlc:t1 <- XMM1
	.loc	7 129 10 is_stmt 1      # randdp.c:129:10
	cvttsd2si	%xmm1, %edx
	cvtsi2sdl	%edx, %xmm4
	.loc	7 131 20                # randdp.c:131:20
	movaps	%xmm7, %xmm1
.Ltmp207:
	mulsd	%xmm4, %xmm1
.Ltmp208:
	#DEBUG_VALUE: vranlc:x1 <- XMM4
	.loc	7 130 15                # randdp.c:130:15
	mulsd	%xmm5, %xmm4
.Ltmp209:
	.loc	7 130 10 is_stmt 0      # randdp.c:130:10
	subsd	%xmm4, %xmm3
.Ltmp210:
	#DEBUG_VALUE: vranlc:x2 <- XMM3
	.loc	7 131 10 is_stmt 1      # randdp.c:131:10
	movaps	%xmm8, %xmm4
	mulsd	%xmm3, %xmm4
	addsd	%xmm1, %xmm4
.Ltmp211:
	#DEBUG_VALUE: vranlc:t1 <- XMM4
	.loc	7 132 17                # randdp.c:132:17
	movaps	%xmm4, %xmm1
	mulsd	%xmm6, %xmm1
	.loc	7 132 10 is_stmt 0      # randdp.c:132:10
	cvttsd2si	%xmm1, %edx
	xorps	%xmm1, %xmm1
	cvtsi2sdl	%edx, %xmm1
.Ltmp212:
	#DEBUG_VALUE: vranlc:t2 <- XMM1
	.loc	7 133 14 is_stmt 1      # randdp.c:133:14
	mulsd	%xmm5, %xmm1
.Ltmp213:
	.loc	7 133 9 is_stmt 0       # randdp.c:133:9
	subsd	%xmm1, %xmm4
.Ltmp214:
	#DEBUG_VALUE: vranlc:z <- XMM4
	.loc	7 134 10 is_stmt 1      # randdp.c:134:10
	mulsd	%xmm5, %xmm4
.Ltmp215:
	.loc	7 134 20 is_stmt 0      # randdp.c:134:20
	mulsd	%xmm7, %xmm3
.Ltmp216:
	.loc	7 134 10                # randdp.c:134:10
	addsd	%xmm4, %xmm3
.Ltmp217:
	#DEBUG_VALUE: vranlc:t3 <- XMM3
	.loc	7 135 17 is_stmt 1      # randdp.c:135:17
	movaps	%xmm3, %xmm1
	mulsd	%xmm2, %xmm1
	.loc	7 135 10 is_stmt 0      # randdp.c:135:10
	cvttsd2si	%xmm1, %edx
	xorps	%xmm1, %xmm1
	cvtsi2sdl	%edx, %xmm1
.Ltmp218:
	#DEBUG_VALUE: vranlc:t4 <- XMM1
	.loc	7 136 15 is_stmt 1      # randdp.c:136:15
	mulsd	%xmm0, %xmm1
.Ltmp219:
	.loc	7 136 10 is_stmt 0      # randdp.c:136:10
	addsd	%xmm3, %xmm1
	.loc	7 136 5                 # randdp.c:136:5
	movsd	%xmm1, (%rsi)
	.loc	7 137 12 is_stmt 1      # randdp.c:137:12
	mulsd	%xmm2, %xmm1
	.loc	7 137 5 is_stmt 0       # randdp.c:137:5
	movsd	%xmm1, (%rcx)
.Ltmp220:
	.loc	7 122 3 is_stmt 1       # randdp.c:122:3
	addq	$8, %rcx
	decl	%eax
	jne	.LBB3_2
.Ltmp221:
.LBB3_3:                                # %for.end
	#DEBUG_VALUE: vranlc:r23 <- 1.192093e-07
	#DEBUG_VALUE: vranlc:r46 <- 1.421085e-14
	#DEBUG_VALUE: vranlc:t23 <- 8.388608e+06
	#DEBUG_VALUE: vranlc:t46 <- 7.036874e+13
	#DEBUG_VALUE: vranlc:i <- 0
	.loc	7 140 3                 # randdp.c:140:3
	retq
.Ltmp222:
.Ltmp223:
	.size	vranlc, .Ltmp223-vranlc
.Lfunc_end3:
	.cfi_endproc

	.globl	timer_clear
	.align	16, 0x90
	.type	timer_clear,@function
timer_clear:                            # @timer_clear
.Lfunc_begin4:
	.loc	4 26 0                  # c_timers.c:26:0
	.cfi_startproc
# BB#0:                                 # %entry
	#DEBUG_VALUE: timer_clear:n <- EDI
	movl	%edi, %eax
.Ltmp224:
	#DEBUG_VALUE: timer_clear:n <- EAX
	.loc	4 27 5 prologue_end     # c_timers.c:27:5
	cltq
.Ltmp225:
	movq	$0, elapsed(,%rax,8)
	.loc	4 28 1                  # c_timers.c:28:1
	retq
.Ltmp226:
.Ltmp227:
	.size	timer_clear, .Ltmp227-timer_clear
.Lfunc_end4:
	.cfi_endproc

	.globl	timer_start
	.align	16, 0x90
	.type	timer_start,@function
timer_start:                            # @timer_start
.Lfunc_begin5:
	.loc	4 35 0                  # c_timers.c:35:0
	.cfi_startproc
# BB#0:                                 # %entry
	pushq	%rbx
.Ltmp228:
	.cfi_def_cfa_offset 16
	subq	$16, %rsp
.Ltmp229:
	.cfi_def_cfa_offset 32
.Ltmp230:
	.cfi_offset %rbx, -16
	#DEBUG_VALUE: timer_start:n <- EDI
	movl	%edi, %ebx
.Ltmp231:
	#DEBUG_VALUE: timer_start:n <- EBX
	leaq	8(%rsp), %rax
.Ltmp232:
	#DEBUG_VALUE: elapsed_time:t <- [RAX+0]
	.loc	4 15 5 prologue_end     # c_timers.c:15:5
	movq	%rax, %rdi
	callq	wtime_
	.loc	4 16 13                 # c_timers.c:16:13
	movsd	8(%rsp), %xmm0
.Ltmp233:
	.loc	4 36 5                  # c_timers.c:36:5
	movslq	%ebx, %rax
.Ltmp234:
	movsd	%xmm0, start(,%rax,8)
	.loc	4 37 1                  # c_timers.c:37:1
	addq	$16, %rsp
	popq	%rbx
.Ltmp235:
	retq
.Ltmp236:
.Ltmp237:
	.size	timer_start, .Ltmp237-timer_start
.Lfunc_end5:
	.cfi_endproc

	.globl	timer_stop
	.align	16, 0x90
	.type	timer_stop,@function
timer_stop:                             # @timer_stop
.Lfunc_begin6:
	.loc	4 44 0                  # c_timers.c:44:0
	.cfi_startproc
# BB#0:                                 # %entry
	pushq	%rbx
.Ltmp238:
	.cfi_def_cfa_offset 16
	subq	$16, %rsp
.Ltmp239:
	.cfi_def_cfa_offset 32
.Ltmp240:
	.cfi_offset %rbx, -16
	#DEBUG_VALUE: timer_stop:n <- EDI
	movl	%edi, %ebx
.Ltmp241:
	#DEBUG_VALUE: timer_stop:n <- EBX
	leaq	8(%rsp), %rax
.Ltmp242:
	#DEBUG_VALUE: elapsed_time:t <- [RAX+0]
	.loc	4 15 5 prologue_end     # c_timers.c:15:5
	movq	%rax, %rdi
	callq	wtime_
	.loc	4 16 13                 # c_timers.c:16:13
	movsd	8(%rsp), %xmm0
.Ltmp243:
	#DEBUG_VALUE: timer_stop:now <- XMM0
	.loc	4 48 15                 # c_timers.c:48:15
	movslq	%ebx, %rax
.Ltmp244:
	.loc	4 48 9 is_stmt 0        # c_timers.c:48:9
	subsd	start(,%rax,8), %xmm0
.Ltmp245:
	#DEBUG_VALUE: timer_stop:t <- XMM0
	.loc	4 49 5 is_stmt 1        # c_timers.c:49:5
	addsd	elapsed(,%rax,8), %xmm0
.Ltmp246:
	movsd	%xmm0, elapsed(,%rax,8)
	.loc	4 51 1                  # c_timers.c:51:1
	addq	$16, %rsp
	popq	%rbx
.Ltmp247:
	retq
.Ltmp248:
.Ltmp249:
	.size	timer_stop, .Ltmp249-timer_stop
.Lfunc_end6:
	.cfi_endproc

	.globl	timer_read
	.align	16, 0x90
	.type	timer_read,@function
timer_read:                             # @timer_read
.Lfunc_begin7:
	.loc	4 58 0                  # c_timers.c:58:0
	.cfi_startproc
# BB#0:                                 # %entry
	#DEBUG_VALUE: timer_read:n <- EDI
	movl	%edi, %eax
.Ltmp250:
	#DEBUG_VALUE: timer_read:n <- EAX
	.loc	4 59 13 prologue_end    # c_timers.c:59:13
	cltq
.Ltmp251:
	movsd	elapsed(,%rax,8), %xmm0
	.loc	4 59 5 is_stmt 0        # c_timers.c:59:5
	retq
.Ltmp252:
.Ltmp253:
	.size	timer_read, .Ltmp253-timer_read
.Lfunc_end7:
	.cfi_endproc

	.section	.rodata.cst8,"aM",@progbits,8
	.align	8
.LCPI8_0:
	.quad	4517329193108106637     # double 9.9999999999999995E-7
	.text
	.globl	wtime_
	.align	16, 0x90
	.type	wtime_,@function
wtime_:                                 # @wtime_
.Lfunc_begin8:
	.loc	5 8 0 is_stmt 1         # ../common/wtime.c:8:0
	.cfi_startproc
# BB#0:                                 # %entry
	pushq	%rbp
.Ltmp254:
	.cfi_def_cfa_offset 16
.Ltmp255:
	.cfi_offset %rbp, -16
	movq	%rsp, %rbp
.Ltmp256:
	.cfi_def_cfa_register %rbp
	subq	$32, %rsp
	movq	%rdi, %rax
	movq	%rax, -8(%rbp)
	leaq	-24(%rbp), %rax
	xorl	%esi, %esi
	.loc	5 11 3 prologue_end     # ../common/wtime.c:11:3
.Ltmp257:
	movq	%rax, %rdi
	callq	gettimeofday
	.loc	5 12 7                  # ../common/wtime.c:12:7
	cmpl	$0, wtime_.sec(%rip)
	jns	.LBB8_2
# BB#1:                                 # %if.then
	.loc	5 12 22 is_stmt 0 discriminator 1 # ../common/wtime.c:12:22
.Ltmp258:
	movl	-24(%rbp), %eax
	.loc	5 12 16                 # ../common/wtime.c:12:16
	movl	%eax, wtime_.sec(%rip)
.Ltmp259:
.LBB8_2:                                # %if.end
	.loc	5 13 9 is_stmt 1        # ../common/wtime.c:13:9
	movq	-24(%rbp), %rax
	.loc	5 13 21 is_stmt 0       # ../common/wtime.c:13:21
	movslq	wtime_.sec(%rip), %rcx
	.loc	5 13 9                  # ../common/wtime.c:13:9
	subq	%rcx, %rax
	.loc	5 13 8                  # ../common/wtime.c:13:8
	cvtsi2sdq	%rax, %xmm1
	.loc	5 13 35                 # ../common/wtime.c:13:35
	cvtsi2sdq	-16(%rbp), %xmm0
	.loc	5 13 28                 # ../common/wtime.c:13:28
	mulsd	.LCPI8_0(%rip), %xmm0
	.loc	5 13 8                  # ../common/wtime.c:13:8
	addsd	%xmm1, %xmm0
	.loc	5 13 4                  # ../common/wtime.c:13:4
	movq	-8(%rbp), %rax
	.loc	5 13 3                  # ../common/wtime.c:13:3
	movsd	%xmm0, (%rax)
	.loc	5 14 1 is_stmt 1        # ../common/wtime.c:14:1
	addq	$32, %rsp
	popq	%rbp
	retq
.Ltmp260:
.Ltmp261:
	.size	wtime_, .Ltmp261-wtime_
.Lfunc_end8:
	.cfi_endproc

	.type	.Lmain.dum,@object      # @main.dum
	.section	.rodata,"a",@progbits
	.align	16
.Lmain.dum:
	.quad	4607182418800017408     # double 1.000000e+00
	.quad	4607182418800017408     # double 1.000000e+00
	.quad	4607182418800017408     # double 1.000000e+00
	.size	.Lmain.dum, 24

	.type	.L.str,@object          # @.str
	.section	.rodata.str1.1,"aMS",@progbits,1
.L.str:
	.asciz	"timer.flag"
	.size	.L.str, 11

	.type	.L.str1,@object         # @.str1
.L.str1:
	.asciz	"r"
	.size	.L.str1, 2

	.type	.L.str2,@object         # @.str2
.L.str2:
	.asciz	"%15.0lf"
	.size	.L.str2, 8

	.type	.Lstr,@object           # @str
	.section	.rodata.str1.16,"aMS",@progbits,1
	.align	16
.Lstr:
	.asciz	"\n\n NAS Parallel Benchmarks (NPB3.3-SER-C) - EP Benchmark"
	.size	.Lstr, 57

	.type	.L.str4,@object         # @.str4
	.section	.rodata.str1.1,"aMS",@progbits,1
.L.str4:
	.asciz	"\n Number of random numbers generated: %15s\n"
	.size	.L.str4, 44

	.type	x,@object               # @x
	.local	x
	.comm	x,1048576,16
	.type	q,@object               # @q
	.local	q
	.comm	q,80,16
	.type	.Lstr22,@object         # @str22
	.section	.rodata.str1.16,"aMS",@progbits,1
	.align	16
.Lstr22:
	.asciz	"\nEP Benchmark Results:\n"
	.size	.Lstr22, 24

	.type	.L.str6,@object         # @.str6
	.section	.rodata.str1.1,"aMS",@progbits,1
.L.str6:
	.asciz	"CPU Time =%10.4lf\n"
	.size	.L.str6, 19

	.type	.L.str7,@object         # @.str7
.L.str7:
	.asciz	"N = 2^%5d\n"
	.size	.L.str7, 11

	.type	.L.str8,@object         # @.str8
.L.str8:
	.asciz	"No. Gaussian Pairs = %15.0lf\n"
	.size	.L.str8, 30

	.type	.L.str9,@object         # @.str9
.L.str9:
	.asciz	"Sums = %25.15lE %25.15lE\n"
	.size	.L.str9, 26

	.type	.Lstr23,@object         # @str23
.Lstr23:
	.asciz	"Counts: "
	.size	.Lstr23, 9

	.type	.L.str11,@object        # @.str11
.L.str11:
	.asciz	"%3d%15.0lf\n"
	.size	.L.str11, 12

	.type	.L.str12,@object        # @.str12
.L.str12:
	.asciz	"EP"
	.size	.L.str12, 3

	.type	.L.str13,@object        # @.str13
.L.str13:
	.asciz	"Random numbers generated"
	.size	.L.str13, 25

	.type	.L.str14,@object        # @.str14
.L.str14:
	.asciz	"3.3.1"
	.size	.L.str14, 6

	.type	.L.str15,@object        # @.str15
.L.str15:
	.asciz	"22 Feb 2016"
	.size	.L.str15, 12

	.type	.L.str16,@object        # @.str16
.L.str16:
	.asciz	"(none)"
	.size	.L.str16, 7

	.type	.L.str17,@object        # @.str17
.L.str17:
	.asciz	"-I../common"
	.size	.L.str17, 12

	.type	.L.str18,@object        # @.str18
.L.str18:
	.asciz	"randdp"
	.size	.L.str18, 7

	.type	.L.str19,@object        # @.str19
.L.str19:
	.asciz	"\nTotal time:     %9.3lf (%6.2lf)\n"
	.size	.L.str19, 34

	.type	.L.str20,@object        # @.str20
.L.str20:
	.asciz	"Gaussian pairs: %9.3lf (%6.2lf)\n"
	.size	.L.str20, 33

	.type	.L.str21,@object        # @.str21
.L.str21:
	.asciz	"Random numbers: %9.3lf (%6.2lf)\n"
	.size	.L.str21, 33

	.type	.L.str3,@object         # @.str3
.L.str3:
	.asciz	"\n\n %s Benchmark Completed.\n"
	.size	.L.str3, 28

	.type	.L.str110,@object       # @.str110
.L.str110:
	.asciz	" Class           =             %12c\n"
	.size	.L.str110, 37

	.type	.L.str211,@object       # @.str211
.L.str211:
	.asciz	"%15.0lf"
	.size	.L.str211, 8

	.type	.L.str312,@object       # @.str312
.L.str312:
	.asciz	" Size            =          %15s\n"
	.size	.L.str312, 34

	.type	.L.str413,@object       # @.str413
.L.str413:
	.asciz	" Size            =             %12d\n"
	.size	.L.str413, 37

	.type	.L.str5,@object         # @.str5
.L.str5:
	.asciz	" Size            =           %4dx%4dx%4d\n"
	.size	.L.str5, 42

	.type	.L.str614,@object       # @.str614
.L.str614:
	.asciz	" Iterations      =             %12d\n"
	.size	.L.str614, 37

	.type	.L.str715,@object       # @.str715
.L.str715:
	.asciz	" Time in seconds =             %12.2lf\n"
	.size	.L.str715, 40

	.type	.L.str816,@object       # @.str816
.L.str816:
	.asciz	" Mop/s total     =          %15.2lf\n"
	.size	.L.str816, 37

	.type	.L.str917,@object       # @.str917
.L.str917:
	.asciz	" Operation type  = %24s\n"
	.size	.L.str917, 25

	.type	.L.str10,@object        # @.str10
.L.str10:
	.asciz	" Verification    =             %12s\n"
	.size	.L.str10, 37

	.type	.L.str1118,@object      # @.str1118
.L.str1118:
	.asciz	"SUCCESSFUL"
	.size	.L.str1118, 11

	.type	.L.str1219,@object      # @.str1219
.L.str1219:
	.asciz	"UNSUCCESSFUL"
	.size	.L.str1219, 13

	.type	.L.str1320,@object      # @.str1320
.L.str1320:
	.asciz	" Version         =             %12s\n"
	.size	.L.str1320, 37

	.type	.L.str1421,@object      # @.str1421
.L.str1421:
	.asciz	" Compile date    =             %12s\n"
	.size	.L.str1421, 37

	.type	.L.str1522,@object      # @.str1522
.L.str1522:
	.asciz	"\n Compile options:\n    CC           = %s\n"
	.size	.L.str1522, 42

	.type	.L.str1623,@object      # @.str1623
.L.str1623:
	.asciz	"    CLINK        = %s\n"
	.size	.L.str1623, 23

	.type	.L.str1724,@object      # @.str1724
.L.str1724:
	.asciz	"    C_LIB        = %s\n"
	.size	.L.str1724, 23

	.type	.L.str1825,@object      # @.str1825
.L.str1825:
	.asciz	"    C_INC        = %s\n"
	.size	.L.str1825, 23

	.type	.L.str1926,@object      # @.str1926
.L.str1926:
	.asciz	"    CFLAGS       = %s\n"
	.size	.L.str1926, 23

	.type	.L.str2027,@object      # @.str2027
.L.str2027:
	.asciz	"    CLINKFLAGS   = %s\n"
	.size	.L.str2027, 23

	.type	.L.str2128,@object      # @.str2128
.L.str2128:
	.asciz	"    RAND         = %s\n"
	.size	.L.str2128, 23

	.type	.Lstr29,@object         # @str29
	.section	.rodata.str1.16,"aMS",@progbits,1
	.align	16
.Lstr29:
	.asciz	"\n--------------------------------------\n Please send all errors/feedbacks to:\n Center for Manycore Programming\n cmp@aces.snu.ac.kr\n http://aces.snu.ac.kr\n--------------------------------------\n"
	.size	.Lstr29, 194

	.type	elapsed,@object         # @elapsed
	.local	elapsed
	.comm	elapsed,512,16
	.type	start,@object           # @start
	.local	start
	.comm	start,512,16
	.type	wtime_.sec,@object      # @wtime_.sec
	.data
	.align	4
wtime_.sec:
	.long	4294967295              # 0xffffffff
	.size	wtime_.sec, 4

.Ldebug_end1:
	.text
.Ldebug_end2:
	.file	8 "/usr/include/libio.h"
	.file	9 "/usr/include/x86_64-linux-gnu/bits/types.h"
	.file	10 "/home/norouzi/Desktop/software/dp_clang/bin/../lib/clang/3.6.1/include/stddef.h"
	.file	11 "/usr/include/stdio.h"
	.file	12 "/usr/include/x86_64-linux-gnu/bits/types.h"
	.file	13 "/usr/include/x86_64-linux-gnu/bits/time.h"
	.section	".note.GNU-stack","",@progbits